
Cruise.elf:     file format elf32-littlearm

Sections:
Idx Name          Size      VMA       LMA       File off  Algn
  0 .isr_vector   0000010c  08000000  08000000  00010000  2**0
                  CONTENTS, ALLOC, LOAD, READONLY, DATA
  1 .text         00007ae8  08000110  08000110  00010110  2**3
                  CONTENTS, ALLOC, LOAD, READONLY, CODE
  2 .rodata       00000768  08007bf8  08007bf8  00017bf8  2**3
                  CONTENTS, ALLOC, LOAD, READONLY, DATA
  3 .init_array   00000004  08008360  08008360  00018360  2**2
                  CONTENTS, ALLOC, LOAD, DATA
  4 .fini_array   00000004  08008364  08008364  00018364  2**2
                  CONTENTS, ALLOC, LOAD, DATA
  5 .data         00000078  20000000  08008368  00020000  2**2
                  CONTENTS, ALLOC, LOAD, DATA
  6 .bss          00000334  20000078  080083e0  00020078  2**2
                  ALLOC
  7 ._user_heap_stack 00000600  200003ac  080083e0  000203ac  2**0
                  ALLOC
  8 .ARM.attributes 00000029  00000000  00000000  00020078  2**0
                  CONTENTS, READONLY
  9 .comment      0000007c  00000000  00000000  000200a1  2**0
                  CONTENTS, READONLY
 10 .debug_frame  00000778  00000000  00000000  00020120  2**2
                  CONTENTS, READONLY, DEBUGGING
 11 .stabstr      0000014d  00000000  00000000  00020898  2**0
                  CONTENTS, READONLY, DEBUGGING

Disassembly of section .text:

08000110 <__do_global_dtors_aux>:
 8000110:	b510      	push	{r4, lr}
 8000112:	4c05      	ldr	r4, [pc, #20]	; (8000128 <__do_global_dtors_aux+0x18>)
 8000114:	7823      	ldrb	r3, [r4, #0]
 8000116:	b933      	cbnz	r3, 8000126 <__do_global_dtors_aux+0x16>
 8000118:	4b04      	ldr	r3, [pc, #16]	; (800012c <__do_global_dtors_aux+0x1c>)
 800011a:	b113      	cbz	r3, 8000122 <__do_global_dtors_aux+0x12>
 800011c:	4804      	ldr	r0, [pc, #16]	; (8000130 <__do_global_dtors_aux+0x20>)
 800011e:	f3af 8000 	nop.w
 8000122:	2301      	movs	r3, #1
 8000124:	7023      	strb	r3, [r4, #0]
 8000126:	bd10      	pop	{r4, pc}
 8000128:	20000078 	.word	0x20000078
 800012c:	00000000 	.word	0x00000000
 8000130:	08007be0 	.word	0x08007be0

08000134 <frame_dummy>:
 8000134:	b508      	push	{r3, lr}
 8000136:	4b03      	ldr	r3, [pc, #12]	; (8000144 <frame_dummy+0x10>)
 8000138:	b11b      	cbz	r3, 8000142 <frame_dummy+0xe>
 800013a:	4903      	ldr	r1, [pc, #12]	; (8000148 <frame_dummy+0x14>)
 800013c:	4803      	ldr	r0, [pc, #12]	; (800014c <frame_dummy+0x18>)
 800013e:	f3af 8000 	nop.w
 8000142:	bd08      	pop	{r3, pc}
 8000144:	00000000 	.word	0x00000000
 8000148:	2000007c 	.word	0x2000007c
 800014c:	08007be0 	.word	0x08007be0

08000150 <__aeabi_drsub>:
 8000150:	f081 4100 	eor.w	r1, r1, #2147483648	; 0x80000000
 8000154:	e002      	b.n	800015c <__adddf3>
 8000156:	bf00      	nop

08000158 <__aeabi_dsub>:
 8000158:	f083 4300 	eor.w	r3, r3, #2147483648	; 0x80000000

0800015c <__adddf3>:
 800015c:	b530      	push	{r4, r5, lr}
 800015e:	ea4f 0441 	mov.w	r4, r1, lsl #1
 8000162:	ea4f 0543 	mov.w	r5, r3, lsl #1
 8000166:	ea94 0f05 	teq	r4, r5
 800016a:	bf08      	it	eq
 800016c:	ea90 0f02 	teqeq	r0, r2
 8000170:	bf1f      	itttt	ne
 8000172:	ea54 0c00 	orrsne.w	ip, r4, r0
 8000176:	ea55 0c02 	orrsne.w	ip, r5, r2
 800017a:	ea7f 5c64 	mvnsne.w	ip, r4, asr #21
 800017e:	ea7f 5c65 	mvnsne.w	ip, r5, asr #21
 8000182:	f000 80e2 	beq.w	800034a <__adddf3+0x1ee>
 8000186:	ea4f 5454 	mov.w	r4, r4, lsr #21
 800018a:	ebd4 5555 	rsbs	r5, r4, r5, lsr #21
 800018e:	bfb8      	it	lt
 8000190:	426d      	neglt	r5, r5
 8000192:	dd0c      	ble.n	80001ae <__adddf3+0x52>
 8000194:	442c      	add	r4, r5
 8000196:	ea80 0202 	eor.w	r2, r0, r2
 800019a:	ea81 0303 	eor.w	r3, r1, r3
 800019e:	ea82 0000 	eor.w	r0, r2, r0
 80001a2:	ea83 0101 	eor.w	r1, r3, r1
 80001a6:	ea80 0202 	eor.w	r2, r0, r2
 80001aa:	ea81 0303 	eor.w	r3, r1, r3
 80001ae:	2d36      	cmp	r5, #54	; 0x36
 80001b0:	bf88      	it	hi
 80001b2:	bd30      	pophi	{r4, r5, pc}
 80001b4:	f011 4f00 	tst.w	r1, #2147483648	; 0x80000000
 80001b8:	ea4f 3101 	mov.w	r1, r1, lsl #12
 80001bc:	f44f 1c80 	mov.w	ip, #1048576	; 0x100000
 80001c0:	ea4c 3111 	orr.w	r1, ip, r1, lsr #12
 80001c4:	d002      	beq.n	80001cc <__adddf3+0x70>
 80001c6:	4240      	negs	r0, r0
 80001c8:	eb61 0141 	sbc.w	r1, r1, r1, lsl #1
 80001cc:	f013 4f00 	tst.w	r3, #2147483648	; 0x80000000
 80001d0:	ea4f 3303 	mov.w	r3, r3, lsl #12
 80001d4:	ea4c 3313 	orr.w	r3, ip, r3, lsr #12
 80001d8:	d002      	beq.n	80001e0 <__adddf3+0x84>
 80001da:	4252      	negs	r2, r2
 80001dc:	eb63 0343 	sbc.w	r3, r3, r3, lsl #1
 80001e0:	ea94 0f05 	teq	r4, r5
 80001e4:	f000 80a7 	beq.w	8000336 <__adddf3+0x1da>
 80001e8:	f1a4 0401 	sub.w	r4, r4, #1
 80001ec:	f1d5 0e20 	rsbs	lr, r5, #32
 80001f0:	db0d      	blt.n	800020e <__adddf3+0xb2>
 80001f2:	fa02 fc0e 	lsl.w	ip, r2, lr
 80001f6:	fa22 f205 	lsr.w	r2, r2, r5
 80001fa:	1880      	adds	r0, r0, r2
 80001fc:	f141 0100 	adc.w	r1, r1, #0
 8000200:	fa03 f20e 	lsl.w	r2, r3, lr
 8000204:	1880      	adds	r0, r0, r2
 8000206:	fa43 f305 	asr.w	r3, r3, r5
 800020a:	4159      	adcs	r1, r3
 800020c:	e00e      	b.n	800022c <__adddf3+0xd0>
 800020e:	f1a5 0520 	sub.w	r5, r5, #32
 8000212:	f10e 0e20 	add.w	lr, lr, #32
 8000216:	2a01      	cmp	r2, #1
 8000218:	fa03 fc0e 	lsl.w	ip, r3, lr
 800021c:	bf28      	it	cs
 800021e:	f04c 0c02 	orrcs.w	ip, ip, #2
 8000222:	fa43 f305 	asr.w	r3, r3, r5
 8000226:	18c0      	adds	r0, r0, r3
 8000228:	eb51 71e3 	adcs.w	r1, r1, r3, asr #31
 800022c:	f001 4500 	and.w	r5, r1, #2147483648	; 0x80000000
 8000230:	d507      	bpl.n	8000242 <__adddf3+0xe6>
 8000232:	f04f 0e00 	mov.w	lr, #0
 8000236:	f1dc 0c00 	rsbs	ip, ip, #0
 800023a:	eb7e 0000 	sbcs.w	r0, lr, r0
 800023e:	eb6e 0101 	sbc.w	r1, lr, r1
 8000242:	f5b1 1f80 	cmp.w	r1, #1048576	; 0x100000
 8000246:	d31b      	bcc.n	8000280 <__adddf3+0x124>
 8000248:	f5b1 1f00 	cmp.w	r1, #2097152	; 0x200000
 800024c:	d30c      	bcc.n	8000268 <__adddf3+0x10c>
 800024e:	0849      	lsrs	r1, r1, #1
 8000250:	ea5f 0030 	movs.w	r0, r0, rrx
 8000254:	ea4f 0c3c 	mov.w	ip, ip, rrx
 8000258:	f104 0401 	add.w	r4, r4, #1
 800025c:	ea4f 5244 	mov.w	r2, r4, lsl #21
 8000260:	f512 0f80 	cmn.w	r2, #4194304	; 0x400000
 8000264:	f080 809a 	bcs.w	800039c <__adddf3+0x240>
 8000268:	f1bc 4f00 	cmp.w	ip, #2147483648	; 0x80000000
 800026c:	bf08      	it	eq
 800026e:	ea5f 0c50 	movseq.w	ip, r0, lsr #1
 8000272:	f150 0000 	adcs.w	r0, r0, #0
 8000276:	eb41 5104 	adc.w	r1, r1, r4, lsl #20
 800027a:	ea41 0105 	orr.w	r1, r1, r5
 800027e:	bd30      	pop	{r4, r5, pc}
 8000280:	ea5f 0c4c 	movs.w	ip, ip, lsl #1
 8000284:	4140      	adcs	r0, r0
 8000286:	eb41 0101 	adc.w	r1, r1, r1
 800028a:	f411 1f80 	tst.w	r1, #1048576	; 0x100000
 800028e:	f1a4 0401 	sub.w	r4, r4, #1
 8000292:	d1e9      	bne.n	8000268 <__adddf3+0x10c>
 8000294:	f091 0f00 	teq	r1, #0
 8000298:	bf04      	itt	eq
 800029a:	4601      	moveq	r1, r0
 800029c:	2000      	moveq	r0, #0
 800029e:	fab1 f381 	clz	r3, r1
 80002a2:	bf08      	it	eq
 80002a4:	3320      	addeq	r3, #32
 80002a6:	f1a3 030b 	sub.w	r3, r3, #11
 80002aa:	f1b3 0220 	subs.w	r2, r3, #32
 80002ae:	da0c      	bge.n	80002ca <__adddf3+0x16e>
 80002b0:	320c      	adds	r2, #12
 80002b2:	dd08      	ble.n	80002c6 <__adddf3+0x16a>
 80002b4:	f102 0c14 	add.w	ip, r2, #20
 80002b8:	f1c2 020c 	rsb	r2, r2, #12
 80002bc:	fa01 f00c 	lsl.w	r0, r1, ip
 80002c0:	fa21 f102 	lsr.w	r1, r1, r2
 80002c4:	e00c      	b.n	80002e0 <__adddf3+0x184>
 80002c6:	f102 0214 	add.w	r2, r2, #20
 80002ca:	bfd8      	it	le
 80002cc:	f1c2 0c20 	rsble	ip, r2, #32
 80002d0:	fa01 f102 	lsl.w	r1, r1, r2
 80002d4:	fa20 fc0c 	lsr.w	ip, r0, ip
 80002d8:	bfdc      	itt	le
 80002da:	ea41 010c 	orrle.w	r1, r1, ip
 80002de:	4090      	lslle	r0, r2
 80002e0:	1ae4      	subs	r4, r4, r3
 80002e2:	bfa2      	ittt	ge
 80002e4:	eb01 5104 	addge.w	r1, r1, r4, lsl #20
 80002e8:	4329      	orrge	r1, r5
 80002ea:	bd30      	popge	{r4, r5, pc}
 80002ec:	ea6f 0404 	mvn.w	r4, r4
 80002f0:	3c1f      	subs	r4, #31
 80002f2:	da1c      	bge.n	800032e <__adddf3+0x1d2>
 80002f4:	340c      	adds	r4, #12
 80002f6:	dc0e      	bgt.n	8000316 <__adddf3+0x1ba>
 80002f8:	f104 0414 	add.w	r4, r4, #20
 80002fc:	f1c4 0220 	rsb	r2, r4, #32
 8000300:	fa20 f004 	lsr.w	r0, r0, r4
 8000304:	fa01 f302 	lsl.w	r3, r1, r2
 8000308:	ea40 0003 	orr.w	r0, r0, r3
 800030c:	fa21 f304 	lsr.w	r3, r1, r4
 8000310:	ea45 0103 	orr.w	r1, r5, r3
 8000314:	bd30      	pop	{r4, r5, pc}
 8000316:	f1c4 040c 	rsb	r4, r4, #12
 800031a:	f1c4 0220 	rsb	r2, r4, #32
 800031e:	fa20 f002 	lsr.w	r0, r0, r2
 8000322:	fa01 f304 	lsl.w	r3, r1, r4
 8000326:	ea40 0003 	orr.w	r0, r0, r3
 800032a:	4629      	mov	r1, r5
 800032c:	bd30      	pop	{r4, r5, pc}
 800032e:	fa21 f004 	lsr.w	r0, r1, r4
 8000332:	4629      	mov	r1, r5
 8000334:	bd30      	pop	{r4, r5, pc}
 8000336:	f094 0f00 	teq	r4, #0
 800033a:	f483 1380 	eor.w	r3, r3, #1048576	; 0x100000
 800033e:	bf06      	itte	eq
 8000340:	f481 1180 	eoreq.w	r1, r1, #1048576	; 0x100000
 8000344:	3401      	addeq	r4, #1
 8000346:	3d01      	subne	r5, #1
 8000348:	e74e      	b.n	80001e8 <__adddf3+0x8c>
 800034a:	ea7f 5c64 	mvns.w	ip, r4, asr #21
 800034e:	bf18      	it	ne
 8000350:	ea7f 5c65 	mvnsne.w	ip, r5, asr #21
 8000354:	d029      	beq.n	80003aa <__adddf3+0x24e>
 8000356:	ea94 0f05 	teq	r4, r5
 800035a:	bf08      	it	eq
 800035c:	ea90 0f02 	teqeq	r0, r2
 8000360:	d005      	beq.n	800036e <__adddf3+0x212>
 8000362:	ea54 0c00 	orrs.w	ip, r4, r0
 8000366:	bf04      	itt	eq
 8000368:	4619      	moveq	r1, r3
 800036a:	4610      	moveq	r0, r2
 800036c:	bd30      	pop	{r4, r5, pc}
 800036e:	ea91 0f03 	teq	r1, r3
 8000372:	bf1e      	ittt	ne
 8000374:	2100      	movne	r1, #0
 8000376:	2000      	movne	r0, #0
 8000378:	bd30      	popne	{r4, r5, pc}
 800037a:	ea5f 5c54 	movs.w	ip, r4, lsr #21
 800037e:	d105      	bne.n	800038c <__adddf3+0x230>
 8000380:	0040      	lsls	r0, r0, #1
 8000382:	4149      	adcs	r1, r1
 8000384:	bf28      	it	cs
 8000386:	f041 4100 	orrcs.w	r1, r1, #2147483648	; 0x80000000
 800038a:	bd30      	pop	{r4, r5, pc}
 800038c:	f514 0480 	adds.w	r4, r4, #4194304	; 0x400000
 8000390:	bf3c      	itt	cc
 8000392:	f501 1180 	addcc.w	r1, r1, #1048576	; 0x100000
 8000396:	bd30      	popcc	{r4, r5, pc}
 8000398:	f001 4500 	and.w	r5, r1, #2147483648	; 0x80000000
 800039c:	f045 41fe 	orr.w	r1, r5, #2130706432	; 0x7f000000
 80003a0:	f441 0170 	orr.w	r1, r1, #15728640	; 0xf00000
 80003a4:	f04f 0000 	mov.w	r0, #0
 80003a8:	bd30      	pop	{r4, r5, pc}
 80003aa:	ea7f 5c64 	mvns.w	ip, r4, asr #21
 80003ae:	bf1a      	itte	ne
 80003b0:	4619      	movne	r1, r3
 80003b2:	4610      	movne	r0, r2
 80003b4:	ea7f 5c65 	mvnseq.w	ip, r5, asr #21
 80003b8:	bf1c      	itt	ne
 80003ba:	460b      	movne	r3, r1
 80003bc:	4602      	movne	r2, r0
 80003be:	ea50 3401 	orrs.w	r4, r0, r1, lsl #12
 80003c2:	bf06      	itte	eq
 80003c4:	ea52 3503 	orrseq.w	r5, r2, r3, lsl #12
 80003c8:	ea91 0f03 	teqeq	r1, r3
 80003cc:	f441 2100 	orrne.w	r1, r1, #524288	; 0x80000
 80003d0:	bd30      	pop	{r4, r5, pc}
 80003d2:	bf00      	nop

080003d4 <__aeabi_ui2d>:
 80003d4:	f090 0f00 	teq	r0, #0
 80003d8:	bf04      	itt	eq
 80003da:	2100      	moveq	r1, #0
 80003dc:	4770      	bxeq	lr
 80003de:	b530      	push	{r4, r5, lr}
 80003e0:	f44f 6480 	mov.w	r4, #1024	; 0x400
 80003e4:	f104 0432 	add.w	r4, r4, #50	; 0x32
 80003e8:	f04f 0500 	mov.w	r5, #0
 80003ec:	f04f 0100 	mov.w	r1, #0
 80003f0:	e750      	b.n	8000294 <__adddf3+0x138>
 80003f2:	bf00      	nop

080003f4 <__aeabi_i2d>:
 80003f4:	f090 0f00 	teq	r0, #0
 80003f8:	bf04      	itt	eq
 80003fa:	2100      	moveq	r1, #0
 80003fc:	4770      	bxeq	lr
 80003fe:	b530      	push	{r4, r5, lr}
 8000400:	f44f 6480 	mov.w	r4, #1024	; 0x400
 8000404:	f104 0432 	add.w	r4, r4, #50	; 0x32
 8000408:	f010 4500 	ands.w	r5, r0, #2147483648	; 0x80000000
 800040c:	bf48      	it	mi
 800040e:	4240      	negmi	r0, r0
 8000410:	f04f 0100 	mov.w	r1, #0
 8000414:	e73e      	b.n	8000294 <__adddf3+0x138>
 8000416:	bf00      	nop

08000418 <__aeabi_f2d>:
 8000418:	0042      	lsls	r2, r0, #1
 800041a:	ea4f 01e2 	mov.w	r1, r2, asr #3
 800041e:	ea4f 0131 	mov.w	r1, r1, rrx
 8000422:	ea4f 7002 	mov.w	r0, r2, lsl #28
 8000426:	bf1f      	itttt	ne
 8000428:	f012 437f 	andsne.w	r3, r2, #4278190080	; 0xff000000
 800042c:	f093 4f7f 	teqne	r3, #4278190080	; 0xff000000
 8000430:	f081 5160 	eorne.w	r1, r1, #939524096	; 0x38000000
 8000434:	4770      	bxne	lr
 8000436:	f092 0f00 	teq	r2, #0
 800043a:	bf14      	ite	ne
 800043c:	f093 4f7f 	teqne	r3, #4278190080	; 0xff000000
 8000440:	4770      	bxeq	lr
 8000442:	b530      	push	{r4, r5, lr}
 8000444:	f44f 7460 	mov.w	r4, #896	; 0x380
 8000448:	f001 4500 	and.w	r5, r1, #2147483648	; 0x80000000
 800044c:	f021 4100 	bic.w	r1, r1, #2147483648	; 0x80000000
 8000450:	e720      	b.n	8000294 <__adddf3+0x138>
 8000452:	bf00      	nop

08000454 <__aeabi_ul2d>:
 8000454:	ea50 0201 	orrs.w	r2, r0, r1
 8000458:	bf08      	it	eq
 800045a:	4770      	bxeq	lr
 800045c:	b530      	push	{r4, r5, lr}
 800045e:	f04f 0500 	mov.w	r5, #0
 8000462:	e00a      	b.n	800047a <__aeabi_l2d+0x16>

08000464 <__aeabi_l2d>:
 8000464:	ea50 0201 	orrs.w	r2, r0, r1
 8000468:	bf08      	it	eq
 800046a:	4770      	bxeq	lr
 800046c:	b530      	push	{r4, r5, lr}
 800046e:	f011 4500 	ands.w	r5, r1, #2147483648	; 0x80000000
 8000472:	d502      	bpl.n	800047a <__aeabi_l2d+0x16>
 8000474:	4240      	negs	r0, r0
 8000476:	eb61 0141 	sbc.w	r1, r1, r1, lsl #1
 800047a:	f44f 6480 	mov.w	r4, #1024	; 0x400
 800047e:	f104 0432 	add.w	r4, r4, #50	; 0x32
 8000482:	ea5f 5c91 	movs.w	ip, r1, lsr #22
 8000486:	f43f aedc 	beq.w	8000242 <__adddf3+0xe6>
 800048a:	f04f 0203 	mov.w	r2, #3
 800048e:	ea5f 0cdc 	movs.w	ip, ip, lsr #3
 8000492:	bf18      	it	ne
 8000494:	3203      	addne	r2, #3
 8000496:	ea5f 0cdc 	movs.w	ip, ip, lsr #3
 800049a:	bf18      	it	ne
 800049c:	3203      	addne	r2, #3
 800049e:	eb02 02dc 	add.w	r2, r2, ip, lsr #3
 80004a2:	f1c2 0320 	rsb	r3, r2, #32
 80004a6:	fa00 fc03 	lsl.w	ip, r0, r3
 80004aa:	fa20 f002 	lsr.w	r0, r0, r2
 80004ae:	fa01 fe03 	lsl.w	lr, r1, r3
 80004b2:	ea40 000e 	orr.w	r0, r0, lr
 80004b6:	fa21 f102 	lsr.w	r1, r1, r2
 80004ba:	4414      	add	r4, r2
 80004bc:	e6c1      	b.n	8000242 <__adddf3+0xe6>
 80004be:	bf00      	nop

080004c0 <__aeabi_dmul>:
 80004c0:	b570      	push	{r4, r5, r6, lr}
 80004c2:	f04f 0cff 	mov.w	ip, #255	; 0xff
 80004c6:	f44c 6ce0 	orr.w	ip, ip, #1792	; 0x700
 80004ca:	ea1c 5411 	ands.w	r4, ip, r1, lsr #20
 80004ce:	bf1d      	ittte	ne
 80004d0:	ea1c 5513 	andsne.w	r5, ip, r3, lsr #20
 80004d4:	ea94 0f0c 	teqne	r4, ip
 80004d8:	ea95 0f0c 	teqne	r5, ip
 80004dc:	f000 f8de 	bleq	800069c <__aeabi_dmul+0x1dc>
 80004e0:	442c      	add	r4, r5
 80004e2:	ea81 0603 	eor.w	r6, r1, r3
 80004e6:	ea21 514c 	bic.w	r1, r1, ip, lsl #21
 80004ea:	ea23 534c 	bic.w	r3, r3, ip, lsl #21
 80004ee:	ea50 3501 	orrs.w	r5, r0, r1, lsl #12
 80004f2:	bf18      	it	ne
 80004f4:	ea52 3503 	orrsne.w	r5, r2, r3, lsl #12
 80004f8:	f441 1180 	orr.w	r1, r1, #1048576	; 0x100000
 80004fc:	f443 1380 	orr.w	r3, r3, #1048576	; 0x100000
 8000500:	d038      	beq.n	8000574 <__aeabi_dmul+0xb4>
 8000502:	fba0 ce02 	umull	ip, lr, r0, r2
 8000506:	f04f 0500 	mov.w	r5, #0
 800050a:	fbe1 e502 	umlal	lr, r5, r1, r2
 800050e:	f006 4200 	and.w	r2, r6, #2147483648	; 0x80000000
 8000512:	fbe0 e503 	umlal	lr, r5, r0, r3
 8000516:	f04f 0600 	mov.w	r6, #0
 800051a:	fbe1 5603 	umlal	r5, r6, r1, r3
 800051e:	f09c 0f00 	teq	ip, #0
 8000522:	bf18      	it	ne
 8000524:	f04e 0e01 	orrne.w	lr, lr, #1
 8000528:	f1a4 04ff 	sub.w	r4, r4, #255	; 0xff
 800052c:	f5b6 7f00 	cmp.w	r6, #512	; 0x200
 8000530:	f564 7440 	sbc.w	r4, r4, #768	; 0x300
 8000534:	d204      	bcs.n	8000540 <__aeabi_dmul+0x80>
 8000536:	ea5f 0e4e 	movs.w	lr, lr, lsl #1
 800053a:	416d      	adcs	r5, r5
 800053c:	eb46 0606 	adc.w	r6, r6, r6
 8000540:	ea42 21c6 	orr.w	r1, r2, r6, lsl #11
 8000544:	ea41 5155 	orr.w	r1, r1, r5, lsr #21
 8000548:	ea4f 20c5 	mov.w	r0, r5, lsl #11
 800054c:	ea40 505e 	orr.w	r0, r0, lr, lsr #21
 8000550:	ea4f 2ece 	mov.w	lr, lr, lsl #11
 8000554:	f1b4 0cfd 	subs.w	ip, r4, #253	; 0xfd
 8000558:	bf88      	it	hi
 800055a:	f5bc 6fe0 	cmphi.w	ip, #1792	; 0x700
 800055e:	d81e      	bhi.n	800059e <__aeabi_dmul+0xde>
 8000560:	f1be 4f00 	cmp.w	lr, #2147483648	; 0x80000000
 8000564:	bf08      	it	eq
 8000566:	ea5f 0e50 	movseq.w	lr, r0, lsr #1
 800056a:	f150 0000 	adcs.w	r0, r0, #0
 800056e:	eb41 5104 	adc.w	r1, r1, r4, lsl #20
 8000572:	bd70      	pop	{r4, r5, r6, pc}
 8000574:	f006 4600 	and.w	r6, r6, #2147483648	; 0x80000000
 8000578:	ea46 0101 	orr.w	r1, r6, r1
 800057c:	ea40 0002 	orr.w	r0, r0, r2
 8000580:	ea81 0103 	eor.w	r1, r1, r3
 8000584:	ebb4 045c 	subs.w	r4, r4, ip, lsr #1
 8000588:	bfc2      	ittt	gt
 800058a:	ebd4 050c 	rsbsgt	r5, r4, ip
 800058e:	ea41 5104 	orrgt.w	r1, r1, r4, lsl #20
 8000592:	bd70      	popgt	{r4, r5, r6, pc}
 8000594:	f441 1180 	orr.w	r1, r1, #1048576	; 0x100000
 8000598:	f04f 0e00 	mov.w	lr, #0
 800059c:	3c01      	subs	r4, #1
 800059e:	f300 80ab 	bgt.w	80006f8 <__aeabi_dmul+0x238>
 80005a2:	f114 0f36 	cmn.w	r4, #54	; 0x36
 80005a6:	bfde      	ittt	le
 80005a8:	2000      	movle	r0, #0
 80005aa:	f001 4100 	andle.w	r1, r1, #2147483648	; 0x80000000
 80005ae:	bd70      	pople	{r4, r5, r6, pc}
 80005b0:	f1c4 0400 	rsb	r4, r4, #0
 80005b4:	3c20      	subs	r4, #32
 80005b6:	da35      	bge.n	8000624 <__aeabi_dmul+0x164>
 80005b8:	340c      	adds	r4, #12
 80005ba:	dc1b      	bgt.n	80005f4 <__aeabi_dmul+0x134>
 80005bc:	f104 0414 	add.w	r4, r4, #20
 80005c0:	f1c4 0520 	rsb	r5, r4, #32
 80005c4:	fa00 f305 	lsl.w	r3, r0, r5
 80005c8:	fa20 f004 	lsr.w	r0, r0, r4
 80005cc:	fa01 f205 	lsl.w	r2, r1, r5
 80005d0:	ea40 0002 	orr.w	r0, r0, r2
 80005d4:	f001 4200 	and.w	r2, r1, #2147483648	; 0x80000000
 80005d8:	f021 4100 	bic.w	r1, r1, #2147483648	; 0x80000000
 80005dc:	eb10 70d3 	adds.w	r0, r0, r3, lsr #31
 80005e0:	fa21 f604 	lsr.w	r6, r1, r4
 80005e4:	eb42 0106 	adc.w	r1, r2, r6
 80005e8:	ea5e 0e43 	orrs.w	lr, lr, r3, lsl #1
 80005ec:	bf08      	it	eq
 80005ee:	ea20 70d3 	biceq.w	r0, r0, r3, lsr #31
 80005f2:	bd70      	pop	{r4, r5, r6, pc}
 80005f4:	f1c4 040c 	rsb	r4, r4, #12
 80005f8:	f1c4 0520 	rsb	r5, r4, #32
 80005fc:	fa00 f304 	lsl.w	r3, r0, r4
 8000600:	fa20 f005 	lsr.w	r0, r0, r5
 8000604:	fa01 f204 	lsl.w	r2, r1, r4
 8000608:	ea40 0002 	orr.w	r0, r0, r2
 800060c:	f001 4100 	and.w	r1, r1, #2147483648	; 0x80000000
 8000610:	eb10 70d3 	adds.w	r0, r0, r3, lsr #31
 8000614:	f141 0100 	adc.w	r1, r1, #0
 8000618:	ea5e 0e43 	orrs.w	lr, lr, r3, lsl #1
 800061c:	bf08      	it	eq
 800061e:	ea20 70d3 	biceq.w	r0, r0, r3, lsr #31
 8000622:	bd70      	pop	{r4, r5, r6, pc}
 8000624:	f1c4 0520 	rsb	r5, r4, #32
 8000628:	fa00 f205 	lsl.w	r2, r0, r5
 800062c:	ea4e 0e02 	orr.w	lr, lr, r2
 8000630:	fa20 f304 	lsr.w	r3, r0, r4
 8000634:	fa01 f205 	lsl.w	r2, r1, r5
 8000638:	ea43 0302 	orr.w	r3, r3, r2
 800063c:	fa21 f004 	lsr.w	r0, r1, r4
 8000640:	f001 4100 	and.w	r1, r1, #2147483648	; 0x80000000
 8000644:	fa21 f204 	lsr.w	r2, r1, r4
 8000648:	ea20 0002 	bic.w	r0, r0, r2
 800064c:	eb00 70d3 	add.w	r0, r0, r3, lsr #31
 8000650:	ea5e 0e43 	orrs.w	lr, lr, r3, lsl #1
 8000654:	bf08      	it	eq
 8000656:	ea20 70d3 	biceq.w	r0, r0, r3, lsr #31
 800065a:	bd70      	pop	{r4, r5, r6, pc}
 800065c:	f094 0f00 	teq	r4, #0
 8000660:	d10f      	bne.n	8000682 <__aeabi_dmul+0x1c2>
 8000662:	f001 4600 	and.w	r6, r1, #2147483648	; 0x80000000
 8000666:	0040      	lsls	r0, r0, #1
 8000668:	eb41 0101 	adc.w	r1, r1, r1
 800066c:	f411 1f80 	tst.w	r1, #1048576	; 0x100000
 8000670:	bf08      	it	eq
 8000672:	3c01      	subeq	r4, #1
 8000674:	d0f7      	beq.n	8000666 <__aeabi_dmul+0x1a6>
 8000676:	ea41 0106 	orr.w	r1, r1, r6
 800067a:	f095 0f00 	teq	r5, #0
 800067e:	bf18      	it	ne
 8000680:	4770      	bxne	lr
 8000682:	f003 4600 	and.w	r6, r3, #2147483648	; 0x80000000
 8000686:	0052      	lsls	r2, r2, #1
 8000688:	eb43 0303 	adc.w	r3, r3, r3
 800068c:	f413 1f80 	tst.w	r3, #1048576	; 0x100000
 8000690:	bf08      	it	eq
 8000692:	3d01      	subeq	r5, #1
 8000694:	d0f7      	beq.n	8000686 <__aeabi_dmul+0x1c6>
 8000696:	ea43 0306 	orr.w	r3, r3, r6
 800069a:	4770      	bx	lr
 800069c:	ea94 0f0c 	teq	r4, ip
 80006a0:	ea0c 5513 	and.w	r5, ip, r3, lsr #20
 80006a4:	bf18      	it	ne
 80006a6:	ea95 0f0c 	teqne	r5, ip
 80006aa:	d00c      	beq.n	80006c6 <__aeabi_dmul+0x206>
 80006ac:	ea50 0641 	orrs.w	r6, r0, r1, lsl #1
 80006b0:	bf18      	it	ne
 80006b2:	ea52 0643 	orrsne.w	r6, r2, r3, lsl #1
 80006b6:	d1d1      	bne.n	800065c <__aeabi_dmul+0x19c>
 80006b8:	ea81 0103 	eor.w	r1, r1, r3
 80006bc:	f001 4100 	and.w	r1, r1, #2147483648	; 0x80000000
 80006c0:	f04f 0000 	mov.w	r0, #0
 80006c4:	bd70      	pop	{r4, r5, r6, pc}
 80006c6:	ea50 0641 	orrs.w	r6, r0, r1, lsl #1
 80006ca:	bf06      	itte	eq
 80006cc:	4610      	moveq	r0, r2
 80006ce:	4619      	moveq	r1, r3
 80006d0:	ea52 0643 	orrsne.w	r6, r2, r3, lsl #1
 80006d4:	d019      	beq.n	800070a <__aeabi_dmul+0x24a>
 80006d6:	ea94 0f0c 	teq	r4, ip
 80006da:	d102      	bne.n	80006e2 <__aeabi_dmul+0x222>
 80006dc:	ea50 3601 	orrs.w	r6, r0, r1, lsl #12
 80006e0:	d113      	bne.n	800070a <__aeabi_dmul+0x24a>
 80006e2:	ea95 0f0c 	teq	r5, ip
 80006e6:	d105      	bne.n	80006f4 <__aeabi_dmul+0x234>
 80006e8:	ea52 3603 	orrs.w	r6, r2, r3, lsl #12
 80006ec:	bf1c      	itt	ne
 80006ee:	4610      	movne	r0, r2
 80006f0:	4619      	movne	r1, r3
 80006f2:	d10a      	bne.n	800070a <__aeabi_dmul+0x24a>
 80006f4:	ea81 0103 	eor.w	r1, r1, r3
 80006f8:	f001 4100 	and.w	r1, r1, #2147483648	; 0x80000000
 80006fc:	f041 41fe 	orr.w	r1, r1, #2130706432	; 0x7f000000
 8000700:	f441 0170 	orr.w	r1, r1, #15728640	; 0xf00000
 8000704:	f04f 0000 	mov.w	r0, #0
 8000708:	bd70      	pop	{r4, r5, r6, pc}
 800070a:	f041 41fe 	orr.w	r1, r1, #2130706432	; 0x7f000000
 800070e:	f441 0178 	orr.w	r1, r1, #16252928	; 0xf80000
 8000712:	bd70      	pop	{r4, r5, r6, pc}

08000714 <__aeabi_ddiv>:
 8000714:	b570      	push	{r4, r5, r6, lr}
 8000716:	f04f 0cff 	mov.w	ip, #255	; 0xff
 800071a:	f44c 6ce0 	orr.w	ip, ip, #1792	; 0x700
 800071e:	ea1c 5411 	ands.w	r4, ip, r1, lsr #20
 8000722:	bf1d      	ittte	ne
 8000724:	ea1c 5513 	andsne.w	r5, ip, r3, lsr #20
 8000728:	ea94 0f0c 	teqne	r4, ip
 800072c:	ea95 0f0c 	teqne	r5, ip
 8000730:	f000 f8a7 	bleq	8000882 <__aeabi_ddiv+0x16e>
 8000734:	eba4 0405 	sub.w	r4, r4, r5
 8000738:	ea81 0e03 	eor.w	lr, r1, r3
 800073c:	ea52 3503 	orrs.w	r5, r2, r3, lsl #12
 8000740:	ea4f 3101 	mov.w	r1, r1, lsl #12
 8000744:	f000 8088 	beq.w	8000858 <__aeabi_ddiv+0x144>
 8000748:	ea4f 3303 	mov.w	r3, r3, lsl #12
 800074c:	f04f 5580 	mov.w	r5, #268435456	; 0x10000000
 8000750:	ea45 1313 	orr.w	r3, r5, r3, lsr #4
 8000754:	ea43 6312 	orr.w	r3, r3, r2, lsr #24
 8000758:	ea4f 2202 	mov.w	r2, r2, lsl #8
 800075c:	ea45 1511 	orr.w	r5, r5, r1, lsr #4
 8000760:	ea45 6510 	orr.w	r5, r5, r0, lsr #24
 8000764:	ea4f 2600 	mov.w	r6, r0, lsl #8
 8000768:	f00e 4100 	and.w	r1, lr, #2147483648	; 0x80000000
 800076c:	429d      	cmp	r5, r3
 800076e:	bf08      	it	eq
 8000770:	4296      	cmpeq	r6, r2
 8000772:	f144 04fd 	adc.w	r4, r4, #253	; 0xfd
 8000776:	f504 7440 	add.w	r4, r4, #768	; 0x300
 800077a:	d202      	bcs.n	8000782 <__aeabi_ddiv+0x6e>
 800077c:	085b      	lsrs	r3, r3, #1
 800077e:	ea4f 0232 	mov.w	r2, r2, rrx
 8000782:	1ab6      	subs	r6, r6, r2
 8000784:	eb65 0503 	sbc.w	r5, r5, r3
 8000788:	085b      	lsrs	r3, r3, #1
 800078a:	ea4f 0232 	mov.w	r2, r2, rrx
 800078e:	f44f 1080 	mov.w	r0, #1048576	; 0x100000
 8000792:	f44f 2c00 	mov.w	ip, #524288	; 0x80000
 8000796:	ebb6 0e02 	subs.w	lr, r6, r2
 800079a:	eb75 0e03 	sbcs.w	lr, r5, r3
 800079e:	bf22      	ittt	cs
 80007a0:	1ab6      	subcs	r6, r6, r2
 80007a2:	4675      	movcs	r5, lr
 80007a4:	ea40 000c 	orrcs.w	r0, r0, ip
 80007a8:	085b      	lsrs	r3, r3, #1
 80007aa:	ea4f 0232 	mov.w	r2, r2, rrx
 80007ae:	ebb6 0e02 	subs.w	lr, r6, r2
 80007b2:	eb75 0e03 	sbcs.w	lr, r5, r3
 80007b6:	bf22      	ittt	cs
 80007b8:	1ab6      	subcs	r6, r6, r2
 80007ba:	4675      	movcs	r5, lr
 80007bc:	ea40 005c 	orrcs.w	r0, r0, ip, lsr #1
 80007c0:	085b      	lsrs	r3, r3, #1
 80007c2:	ea4f 0232 	mov.w	r2, r2, rrx
 80007c6:	ebb6 0e02 	subs.w	lr, r6, r2
 80007ca:	eb75 0e03 	sbcs.w	lr, r5, r3
 80007ce:	bf22      	ittt	cs
 80007d0:	1ab6      	subcs	r6, r6, r2
 80007d2:	4675      	movcs	r5, lr
 80007d4:	ea40 009c 	orrcs.w	r0, r0, ip, lsr #2
 80007d8:	085b      	lsrs	r3, r3, #1
 80007da:	ea4f 0232 	mov.w	r2, r2, rrx
 80007de:	ebb6 0e02 	subs.w	lr, r6, r2
 80007e2:	eb75 0e03 	sbcs.w	lr, r5, r3
 80007e6:	bf22      	ittt	cs
 80007e8:	1ab6      	subcs	r6, r6, r2
 80007ea:	4675      	movcs	r5, lr
 80007ec:	ea40 00dc 	orrcs.w	r0, r0, ip, lsr #3
 80007f0:	ea55 0e06 	orrs.w	lr, r5, r6
 80007f4:	d018      	beq.n	8000828 <__aeabi_ddiv+0x114>
 80007f6:	ea4f 1505 	mov.w	r5, r5, lsl #4
 80007fa:	ea45 7516 	orr.w	r5, r5, r6, lsr #28
 80007fe:	ea4f 1606 	mov.w	r6, r6, lsl #4
 8000802:	ea4f 03c3 	mov.w	r3, r3, lsl #3
 8000806:	ea43 7352 	orr.w	r3, r3, r2, lsr #29
 800080a:	ea4f 02c2 	mov.w	r2, r2, lsl #3
 800080e:	ea5f 1c1c 	movs.w	ip, ip, lsr #4
 8000812:	d1c0      	bne.n	8000796 <__aeabi_ddiv+0x82>
 8000814:	f411 1f80 	tst.w	r1, #1048576	; 0x100000
 8000818:	d10b      	bne.n	8000832 <__aeabi_ddiv+0x11e>
 800081a:	ea41 0100 	orr.w	r1, r1, r0
 800081e:	f04f 0000 	mov.w	r0, #0
 8000822:	f04f 4c00 	mov.w	ip, #2147483648	; 0x80000000
 8000826:	e7b6      	b.n	8000796 <__aeabi_ddiv+0x82>
 8000828:	f411 1f80 	tst.w	r1, #1048576	; 0x100000
 800082c:	bf04      	itt	eq
 800082e:	4301      	orreq	r1, r0
 8000830:	2000      	moveq	r0, #0
 8000832:	f1b4 0cfd 	subs.w	ip, r4, #253	; 0xfd
 8000836:	bf88      	it	hi
 8000838:	f5bc 6fe0 	cmphi.w	ip, #1792	; 0x700
 800083c:	f63f aeaf 	bhi.w	800059e <__aeabi_dmul+0xde>
 8000840:	ebb5 0c03 	subs.w	ip, r5, r3
 8000844:	bf04      	itt	eq
 8000846:	ebb6 0c02 	subseq.w	ip, r6, r2
 800084a:	ea5f 0c50 	movseq.w	ip, r0, lsr #1
 800084e:	f150 0000 	adcs.w	r0, r0, #0
 8000852:	eb41 5104 	adc.w	r1, r1, r4, lsl #20
 8000856:	bd70      	pop	{r4, r5, r6, pc}
 8000858:	f00e 4e00 	and.w	lr, lr, #2147483648	; 0x80000000
 800085c:	ea4e 3111 	orr.w	r1, lr, r1, lsr #12
 8000860:	eb14 045c 	adds.w	r4, r4, ip, lsr #1
 8000864:	bfc2      	ittt	gt
 8000866:	ebd4 050c 	rsbsgt	r5, r4, ip
 800086a:	ea41 5104 	orrgt.w	r1, r1, r4, lsl #20
 800086e:	bd70      	popgt	{r4, r5, r6, pc}
 8000870:	f441 1180 	orr.w	r1, r1, #1048576	; 0x100000
 8000874:	f04f 0e00 	mov.w	lr, #0
 8000878:	3c01      	subs	r4, #1
 800087a:	e690      	b.n	800059e <__aeabi_dmul+0xde>
 800087c:	ea45 0e06 	orr.w	lr, r5, r6
 8000880:	e68d      	b.n	800059e <__aeabi_dmul+0xde>
 8000882:	ea0c 5513 	and.w	r5, ip, r3, lsr #20
 8000886:	ea94 0f0c 	teq	r4, ip
 800088a:	bf08      	it	eq
 800088c:	ea95 0f0c 	teqeq	r5, ip
 8000890:	f43f af3b 	beq.w	800070a <__aeabi_dmul+0x24a>
 8000894:	ea94 0f0c 	teq	r4, ip
 8000898:	d10a      	bne.n	80008b0 <__aeabi_ddiv+0x19c>
 800089a:	ea50 3401 	orrs.w	r4, r0, r1, lsl #12
 800089e:	f47f af34 	bne.w	800070a <__aeabi_dmul+0x24a>
 80008a2:	ea95 0f0c 	teq	r5, ip
 80008a6:	f47f af25 	bne.w	80006f4 <__aeabi_dmul+0x234>
 80008aa:	4610      	mov	r0, r2
 80008ac:	4619      	mov	r1, r3
 80008ae:	e72c      	b.n	800070a <__aeabi_dmul+0x24a>
 80008b0:	ea95 0f0c 	teq	r5, ip
 80008b4:	d106      	bne.n	80008c4 <__aeabi_ddiv+0x1b0>
 80008b6:	ea52 3503 	orrs.w	r5, r2, r3, lsl #12
 80008ba:	f43f aefd 	beq.w	80006b8 <__aeabi_dmul+0x1f8>
 80008be:	4610      	mov	r0, r2
 80008c0:	4619      	mov	r1, r3
 80008c2:	e722      	b.n	800070a <__aeabi_dmul+0x24a>
 80008c4:	ea50 0641 	orrs.w	r6, r0, r1, lsl #1
 80008c8:	bf18      	it	ne
 80008ca:	ea52 0643 	orrsne.w	r6, r2, r3, lsl #1
 80008ce:	f47f aec5 	bne.w	800065c <__aeabi_dmul+0x19c>
 80008d2:	ea50 0441 	orrs.w	r4, r0, r1, lsl #1
 80008d6:	f47f af0d 	bne.w	80006f4 <__aeabi_dmul+0x234>
 80008da:	ea52 0543 	orrs.w	r5, r2, r3, lsl #1
 80008de:	f47f aeeb 	bne.w	80006b8 <__aeabi_dmul+0x1f8>
 80008e2:	e712      	b.n	800070a <__aeabi_dmul+0x24a>

080008e4 <__gedf2>:
 80008e4:	f04f 3cff 	mov.w	ip, #4294967295
 80008e8:	e006      	b.n	80008f8 <__cmpdf2+0x4>
 80008ea:	bf00      	nop

080008ec <__ledf2>:
 80008ec:	f04f 0c01 	mov.w	ip, #1
 80008f0:	e002      	b.n	80008f8 <__cmpdf2+0x4>
 80008f2:	bf00      	nop

080008f4 <__cmpdf2>:
 80008f4:	f04f 0c01 	mov.w	ip, #1
 80008f8:	f84d cd04 	str.w	ip, [sp, #-4]!
 80008fc:	ea4f 0c41 	mov.w	ip, r1, lsl #1
 8000900:	ea7f 5c6c 	mvns.w	ip, ip, asr #21
 8000904:	ea4f 0c43 	mov.w	ip, r3, lsl #1
 8000908:	bf18      	it	ne
 800090a:	ea7f 5c6c 	mvnsne.w	ip, ip, asr #21
 800090e:	d01b      	beq.n	8000948 <__cmpdf2+0x54>
 8000910:	b001      	add	sp, #4
 8000912:	ea50 0c41 	orrs.w	ip, r0, r1, lsl #1
 8000916:	bf0c      	ite	eq
 8000918:	ea52 0c43 	orrseq.w	ip, r2, r3, lsl #1
 800091c:	ea91 0f03 	teqne	r1, r3
 8000920:	bf02      	ittt	eq
 8000922:	ea90 0f02 	teqeq	r0, r2
 8000926:	2000      	moveq	r0, #0
 8000928:	4770      	bxeq	lr
 800092a:	f110 0f00 	cmn.w	r0, #0
 800092e:	ea91 0f03 	teq	r1, r3
 8000932:	bf58      	it	pl
 8000934:	4299      	cmppl	r1, r3
 8000936:	bf08      	it	eq
 8000938:	4290      	cmpeq	r0, r2
 800093a:	bf2c      	ite	cs
 800093c:	17d8      	asrcs	r0, r3, #31
 800093e:	ea6f 70e3 	mvncc.w	r0, r3, asr #31
 8000942:	f040 0001 	orr.w	r0, r0, #1
 8000946:	4770      	bx	lr
 8000948:	ea4f 0c41 	mov.w	ip, r1, lsl #1
 800094c:	ea7f 5c6c 	mvns.w	ip, ip, asr #21
 8000950:	d102      	bne.n	8000958 <__cmpdf2+0x64>
 8000952:	ea50 3c01 	orrs.w	ip, r0, r1, lsl #12
 8000956:	d107      	bne.n	8000968 <__cmpdf2+0x74>
 8000958:	ea4f 0c43 	mov.w	ip, r3, lsl #1
 800095c:	ea7f 5c6c 	mvns.w	ip, ip, asr #21
 8000960:	d1d6      	bne.n	8000910 <__cmpdf2+0x1c>
 8000962:	ea52 3c03 	orrs.w	ip, r2, r3, lsl #12
 8000966:	d0d3      	beq.n	8000910 <__cmpdf2+0x1c>
 8000968:	f85d 0b04 	ldr.w	r0, [sp], #4
 800096c:	4770      	bx	lr
 800096e:	bf00      	nop

08000970 <__aeabi_cdrcmple>:
 8000970:	4684      	mov	ip, r0
 8000972:	4610      	mov	r0, r2
 8000974:	4662      	mov	r2, ip
 8000976:	468c      	mov	ip, r1
 8000978:	4619      	mov	r1, r3
 800097a:	4663      	mov	r3, ip
 800097c:	e000      	b.n	8000980 <__aeabi_cdcmpeq>
 800097e:	bf00      	nop

08000980 <__aeabi_cdcmpeq>:
 8000980:	b501      	push	{r0, lr}
 8000982:	f7ff ffb7 	bl	80008f4 <__cmpdf2>
 8000986:	2800      	cmp	r0, #0
 8000988:	bf48      	it	mi
 800098a:	f110 0f00 	cmnmi.w	r0, #0
 800098e:	bd01      	pop	{r0, pc}

08000990 <__aeabi_dcmpeq>:
 8000990:	f84d ed08 	str.w	lr, [sp, #-8]!
 8000994:	f7ff fff4 	bl	8000980 <__aeabi_cdcmpeq>
 8000998:	bf0c      	ite	eq
 800099a:	2001      	moveq	r0, #1
 800099c:	2000      	movne	r0, #0
 800099e:	f85d fb08 	ldr.w	pc, [sp], #8
 80009a2:	bf00      	nop

080009a4 <__aeabi_dcmplt>:
 80009a4:	f84d ed08 	str.w	lr, [sp, #-8]!
 80009a8:	f7ff ffea 	bl	8000980 <__aeabi_cdcmpeq>
 80009ac:	bf34      	ite	cc
 80009ae:	2001      	movcc	r0, #1
 80009b0:	2000      	movcs	r0, #0
 80009b2:	f85d fb08 	ldr.w	pc, [sp], #8
 80009b6:	bf00      	nop

080009b8 <__aeabi_dcmple>:
 80009b8:	f84d ed08 	str.w	lr, [sp, #-8]!
 80009bc:	f7ff ffe0 	bl	8000980 <__aeabi_cdcmpeq>
 80009c0:	bf94      	ite	ls
 80009c2:	2001      	movls	r0, #1
 80009c4:	2000      	movhi	r0, #0
 80009c6:	f85d fb08 	ldr.w	pc, [sp], #8
 80009ca:	bf00      	nop

080009cc <__aeabi_dcmpge>:
 80009cc:	f84d ed08 	str.w	lr, [sp, #-8]!
 80009d0:	f7ff ffce 	bl	8000970 <__aeabi_cdrcmple>
 80009d4:	bf94      	ite	ls
 80009d6:	2001      	movls	r0, #1
 80009d8:	2000      	movhi	r0, #0
 80009da:	f85d fb08 	ldr.w	pc, [sp], #8
 80009de:	bf00      	nop

080009e0 <__aeabi_dcmpgt>:
 80009e0:	f84d ed08 	str.w	lr, [sp, #-8]!
 80009e4:	f7ff ffc4 	bl	8000970 <__aeabi_cdrcmple>
 80009e8:	bf34      	ite	cc
 80009ea:	2001      	movcc	r0, #1
 80009ec:	2000      	movcs	r0, #0
 80009ee:	f85d fb08 	ldr.w	pc, [sp], #8
 80009f2:	bf00      	nop

080009f4 <__aeabi_dcmpun>:
 80009f4:	ea4f 0c41 	mov.w	ip, r1, lsl #1
 80009f8:	ea7f 5c6c 	mvns.w	ip, ip, asr #21
 80009fc:	d102      	bne.n	8000a04 <__aeabi_dcmpun+0x10>
 80009fe:	ea50 3c01 	orrs.w	ip, r0, r1, lsl #12
 8000a02:	d10a      	bne.n	8000a1a <__aeabi_dcmpun+0x26>
 8000a04:	ea4f 0c43 	mov.w	ip, r3, lsl #1
 8000a08:	ea7f 5c6c 	mvns.w	ip, ip, asr #21
 8000a0c:	d102      	bne.n	8000a14 <__aeabi_dcmpun+0x20>
 8000a0e:	ea52 3c03 	orrs.w	ip, r2, r3, lsl #12
 8000a12:	d102      	bne.n	8000a1a <__aeabi_dcmpun+0x26>
 8000a14:	f04f 0000 	mov.w	r0, #0
 8000a18:	4770      	bx	lr
 8000a1a:	f04f 0001 	mov.w	r0, #1
 8000a1e:	4770      	bx	lr

08000a20 <__aeabi_d2iz>:
 8000a20:	ea4f 0241 	mov.w	r2, r1, lsl #1
 8000a24:	f512 1200 	adds.w	r2, r2, #2097152	; 0x200000
 8000a28:	d215      	bcs.n	8000a56 <__aeabi_d2iz+0x36>
 8000a2a:	d511      	bpl.n	8000a50 <__aeabi_d2iz+0x30>
 8000a2c:	f46f 7378 	mvn.w	r3, #992	; 0x3e0
 8000a30:	ebb3 5262 	subs.w	r2, r3, r2, asr #21
 8000a34:	d912      	bls.n	8000a5c <__aeabi_d2iz+0x3c>
 8000a36:	ea4f 23c1 	mov.w	r3, r1, lsl #11
 8000a3a:	f043 4300 	orr.w	r3, r3, #2147483648	; 0x80000000
 8000a3e:	ea43 5350 	orr.w	r3, r3, r0, lsr #21
 8000a42:	f011 4f00 	tst.w	r1, #2147483648	; 0x80000000
 8000a46:	fa23 f002 	lsr.w	r0, r3, r2
 8000a4a:	bf18      	it	ne
 8000a4c:	4240      	negne	r0, r0
 8000a4e:	4770      	bx	lr
 8000a50:	f04f 0000 	mov.w	r0, #0
 8000a54:	4770      	bx	lr
 8000a56:	ea50 3001 	orrs.w	r0, r0, r1, lsl #12
 8000a5a:	d105      	bne.n	8000a68 <__aeabi_d2iz+0x48>
 8000a5c:	f011 4000 	ands.w	r0, r1, #2147483648	; 0x80000000
 8000a60:	bf08      	it	eq
 8000a62:	f06f 4000 	mvneq.w	r0, #2147483648	; 0x80000000
 8000a66:	4770      	bx	lr
 8000a68:	f04f 0000 	mov.w	r0, #0
 8000a6c:	4770      	bx	lr
 8000a6e:	bf00      	nop

08000a70 <__aeabi_d2f>:
 8000a70:	ea4f 0241 	mov.w	r2, r1, lsl #1
 8000a74:	f1b2 43e0 	subs.w	r3, r2, #1879048192	; 0x70000000
 8000a78:	bf24      	itt	cs
 8000a7a:	f5b3 1c00 	subscs.w	ip, r3, #2097152	; 0x200000
 8000a7e:	f1dc 5cfe 	rsbscs	ip, ip, #532676608	; 0x1fc00000
 8000a82:	d90d      	bls.n	8000aa0 <__aeabi_d2f+0x30>
 8000a84:	f001 4c00 	and.w	ip, r1, #2147483648	; 0x80000000
 8000a88:	ea4f 02c0 	mov.w	r2, r0, lsl #3
 8000a8c:	ea4c 7050 	orr.w	r0, ip, r0, lsr #29
 8000a90:	f1b2 4f00 	cmp.w	r2, #2147483648	; 0x80000000
 8000a94:	eb40 0083 	adc.w	r0, r0, r3, lsl #2
 8000a98:	bf08      	it	eq
 8000a9a:	f020 0001 	biceq.w	r0, r0, #1
 8000a9e:	4770      	bx	lr
 8000aa0:	f011 4f80 	tst.w	r1, #1073741824	; 0x40000000
 8000aa4:	d121      	bne.n	8000aea <__aeabi_d2f+0x7a>
 8000aa6:	f113 7238 	adds.w	r2, r3, #48234496	; 0x2e00000
 8000aaa:	bfbc      	itt	lt
 8000aac:	f001 4000 	andlt.w	r0, r1, #2147483648	; 0x80000000
 8000ab0:	4770      	bxlt	lr
 8000ab2:	f441 1180 	orr.w	r1, r1, #1048576	; 0x100000
 8000ab6:	ea4f 5252 	mov.w	r2, r2, lsr #21
 8000aba:	f1c2 0218 	rsb	r2, r2, #24
 8000abe:	f1c2 0c20 	rsb	ip, r2, #32
 8000ac2:	fa10 f30c 	lsls.w	r3, r0, ip
 8000ac6:	fa20 f002 	lsr.w	r0, r0, r2
 8000aca:	bf18      	it	ne
 8000acc:	f040 0001 	orrne.w	r0, r0, #1
 8000ad0:	ea4f 23c1 	mov.w	r3, r1, lsl #11
 8000ad4:	ea4f 23d3 	mov.w	r3, r3, lsr #11
 8000ad8:	fa03 fc0c 	lsl.w	ip, r3, ip
 8000adc:	ea40 000c 	orr.w	r0, r0, ip
 8000ae0:	fa23 f302 	lsr.w	r3, r3, r2
 8000ae4:	ea4f 0343 	mov.w	r3, r3, lsl #1
 8000ae8:	e7cc      	b.n	8000a84 <__aeabi_d2f+0x14>
 8000aea:	ea7f 5362 	mvns.w	r3, r2, asr #21
 8000aee:	d107      	bne.n	8000b00 <__aeabi_d2f+0x90>
 8000af0:	ea50 3301 	orrs.w	r3, r0, r1, lsl #12
 8000af4:	bf1e      	ittt	ne
 8000af6:	f04f 40fe 	movne.w	r0, #2130706432	; 0x7f000000
 8000afa:	f440 0040 	orrne.w	r0, r0, #12582912	; 0xc00000
 8000afe:	4770      	bxne	lr
 8000b00:	f001 4000 	and.w	r0, r1, #2147483648	; 0x80000000
 8000b04:	f040 40fe 	orr.w	r0, r0, #2130706432	; 0x7f000000
 8000b08:	f440 0000 	orr.w	r0, r0, #8388608	; 0x800000
 8000b0c:	4770      	bx	lr
 8000b0e:	bf00      	nop

08000b10 <__aeabi_frsub>:
 8000b10:	f080 4000 	eor.w	r0, r0, #2147483648	; 0x80000000
 8000b14:	e002      	b.n	8000b1c <__addsf3>
 8000b16:	bf00      	nop

08000b18 <__aeabi_fsub>:
 8000b18:	f081 4100 	eor.w	r1, r1, #2147483648	; 0x80000000

08000b1c <__addsf3>:
 8000b1c:	0042      	lsls	r2, r0, #1
 8000b1e:	bf1f      	itttt	ne
 8000b20:	ea5f 0341 	movsne.w	r3, r1, lsl #1
 8000b24:	ea92 0f03 	teqne	r2, r3
 8000b28:	ea7f 6c22 	mvnsne.w	ip, r2, asr #24
 8000b2c:	ea7f 6c23 	mvnsne.w	ip, r3, asr #24
 8000b30:	d06a      	beq.n	8000c08 <__addsf3+0xec>
 8000b32:	ea4f 6212 	mov.w	r2, r2, lsr #24
 8000b36:	ebd2 6313 	rsbs	r3, r2, r3, lsr #24
 8000b3a:	bfc1      	itttt	gt
 8000b3c:	18d2      	addgt	r2, r2, r3
 8000b3e:	4041      	eorgt	r1, r0
 8000b40:	4048      	eorgt	r0, r1
 8000b42:	4041      	eorgt	r1, r0
 8000b44:	bfb8      	it	lt
 8000b46:	425b      	neglt	r3, r3
 8000b48:	2b19      	cmp	r3, #25
 8000b4a:	bf88      	it	hi
 8000b4c:	4770      	bxhi	lr
 8000b4e:	f010 4f00 	tst.w	r0, #2147483648	; 0x80000000
 8000b52:	f440 0000 	orr.w	r0, r0, #8388608	; 0x800000
 8000b56:	f020 407f 	bic.w	r0, r0, #4278190080	; 0xff000000
 8000b5a:	bf18      	it	ne
 8000b5c:	4240      	negne	r0, r0
 8000b5e:	f011 4f00 	tst.w	r1, #2147483648	; 0x80000000
 8000b62:	f441 0100 	orr.w	r1, r1, #8388608	; 0x800000
 8000b66:	f021 417f 	bic.w	r1, r1, #4278190080	; 0xff000000
 8000b6a:	bf18      	it	ne
 8000b6c:	4249      	negne	r1, r1
 8000b6e:	ea92 0f03 	teq	r2, r3
 8000b72:	d03f      	beq.n	8000bf4 <__addsf3+0xd8>
 8000b74:	f1a2 0201 	sub.w	r2, r2, #1
 8000b78:	fa41 fc03 	asr.w	ip, r1, r3
 8000b7c:	eb10 000c 	adds.w	r0, r0, ip
 8000b80:	f1c3 0320 	rsb	r3, r3, #32
 8000b84:	fa01 f103 	lsl.w	r1, r1, r3
 8000b88:	f000 4300 	and.w	r3, r0, #2147483648	; 0x80000000
 8000b8c:	d502      	bpl.n	8000b94 <__addsf3+0x78>
 8000b8e:	4249      	negs	r1, r1
 8000b90:	eb60 0040 	sbc.w	r0, r0, r0, lsl #1
 8000b94:	f5b0 0f00 	cmp.w	r0, #8388608	; 0x800000
 8000b98:	d313      	bcc.n	8000bc2 <__addsf3+0xa6>
 8000b9a:	f1b0 7f80 	cmp.w	r0, #16777216	; 0x1000000
 8000b9e:	d306      	bcc.n	8000bae <__addsf3+0x92>
 8000ba0:	0840      	lsrs	r0, r0, #1
 8000ba2:	ea4f 0131 	mov.w	r1, r1, rrx
 8000ba6:	f102 0201 	add.w	r2, r2, #1
 8000baa:	2afe      	cmp	r2, #254	; 0xfe
 8000bac:	d251      	bcs.n	8000c52 <__addsf3+0x136>
 8000bae:	f1b1 4f00 	cmp.w	r1, #2147483648	; 0x80000000
 8000bb2:	eb40 50c2 	adc.w	r0, r0, r2, lsl #23
 8000bb6:	bf08      	it	eq
 8000bb8:	f020 0001 	biceq.w	r0, r0, #1
 8000bbc:	ea40 0003 	orr.w	r0, r0, r3
 8000bc0:	4770      	bx	lr
 8000bc2:	0049      	lsls	r1, r1, #1
 8000bc4:	eb40 0000 	adc.w	r0, r0, r0
 8000bc8:	f410 0f00 	tst.w	r0, #8388608	; 0x800000
 8000bcc:	f1a2 0201 	sub.w	r2, r2, #1
 8000bd0:	d1ed      	bne.n	8000bae <__addsf3+0x92>
 8000bd2:	fab0 fc80 	clz	ip, r0
 8000bd6:	f1ac 0c08 	sub.w	ip, ip, #8
 8000bda:	ebb2 020c 	subs.w	r2, r2, ip
 8000bde:	fa00 f00c 	lsl.w	r0, r0, ip
 8000be2:	bfaa      	itet	ge
 8000be4:	eb00 50c2 	addge.w	r0, r0, r2, lsl #23
 8000be8:	4252      	neglt	r2, r2
 8000bea:	4318      	orrge	r0, r3
 8000bec:	bfbc      	itt	lt
 8000bee:	40d0      	lsrlt	r0, r2
 8000bf0:	4318      	orrlt	r0, r3
 8000bf2:	4770      	bx	lr
 8000bf4:	f092 0f00 	teq	r2, #0
 8000bf8:	f481 0100 	eor.w	r1, r1, #8388608	; 0x800000
 8000bfc:	bf06      	itte	eq
 8000bfe:	f480 0000 	eoreq.w	r0, r0, #8388608	; 0x800000
 8000c02:	3201      	addeq	r2, #1
 8000c04:	3b01      	subne	r3, #1
 8000c06:	e7b5      	b.n	8000b74 <__addsf3+0x58>
 8000c08:	ea4f 0341 	mov.w	r3, r1, lsl #1
 8000c0c:	ea7f 6c22 	mvns.w	ip, r2, asr #24
 8000c10:	bf18      	it	ne
 8000c12:	ea7f 6c23 	mvnsne.w	ip, r3, asr #24
 8000c16:	d021      	beq.n	8000c5c <__addsf3+0x140>
 8000c18:	ea92 0f03 	teq	r2, r3
 8000c1c:	d004      	beq.n	8000c28 <__addsf3+0x10c>
 8000c1e:	f092 0f00 	teq	r2, #0
 8000c22:	bf08      	it	eq
 8000c24:	4608      	moveq	r0, r1
 8000c26:	4770      	bx	lr
 8000c28:	ea90 0f01 	teq	r0, r1
 8000c2c:	bf1c      	itt	ne
 8000c2e:	2000      	movne	r0, #0
 8000c30:	4770      	bxne	lr
 8000c32:	f012 4f7f 	tst.w	r2, #4278190080	; 0xff000000
 8000c36:	d104      	bne.n	8000c42 <__addsf3+0x126>
 8000c38:	0040      	lsls	r0, r0, #1
 8000c3a:	bf28      	it	cs
 8000c3c:	f040 4000 	orrcs.w	r0, r0, #2147483648	; 0x80000000
 8000c40:	4770      	bx	lr
 8000c42:	f112 7200 	adds.w	r2, r2, #33554432	; 0x2000000
 8000c46:	bf3c      	itt	cc
 8000c48:	f500 0000 	addcc.w	r0, r0, #8388608	; 0x800000
 8000c4c:	4770      	bxcc	lr
 8000c4e:	f000 4300 	and.w	r3, r0, #2147483648	; 0x80000000
 8000c52:	f043 40fe 	orr.w	r0, r3, #2130706432	; 0x7f000000
 8000c56:	f440 0000 	orr.w	r0, r0, #8388608	; 0x800000
 8000c5a:	4770      	bx	lr
 8000c5c:	ea7f 6222 	mvns.w	r2, r2, asr #24
 8000c60:	bf16      	itet	ne
 8000c62:	4608      	movne	r0, r1
 8000c64:	ea7f 6323 	mvnseq.w	r3, r3, asr #24
 8000c68:	4601      	movne	r1, r0
 8000c6a:	0242      	lsls	r2, r0, #9
 8000c6c:	bf06      	itte	eq
 8000c6e:	ea5f 2341 	movseq.w	r3, r1, lsl #9
 8000c72:	ea90 0f01 	teqeq	r0, r1
 8000c76:	f440 0080 	orrne.w	r0, r0, #4194304	; 0x400000
 8000c7a:	4770      	bx	lr

08000c7c <__aeabi_ui2f>:
 8000c7c:	f04f 0300 	mov.w	r3, #0
 8000c80:	e004      	b.n	8000c8c <__aeabi_i2f+0x8>
 8000c82:	bf00      	nop

08000c84 <__aeabi_i2f>:
 8000c84:	f010 4300 	ands.w	r3, r0, #2147483648	; 0x80000000
 8000c88:	bf48      	it	mi
 8000c8a:	4240      	negmi	r0, r0
 8000c8c:	ea5f 0c00 	movs.w	ip, r0
 8000c90:	bf08      	it	eq
 8000c92:	4770      	bxeq	lr
 8000c94:	f043 4396 	orr.w	r3, r3, #1258291200	; 0x4b000000
 8000c98:	4601      	mov	r1, r0
 8000c9a:	f04f 0000 	mov.w	r0, #0
 8000c9e:	e01c      	b.n	8000cda <__aeabi_l2f+0x2a>

08000ca0 <__aeabi_ul2f>:
 8000ca0:	ea50 0201 	orrs.w	r2, r0, r1
 8000ca4:	bf08      	it	eq
 8000ca6:	4770      	bxeq	lr
 8000ca8:	f04f 0300 	mov.w	r3, #0
 8000cac:	e00a      	b.n	8000cc4 <__aeabi_l2f+0x14>
 8000cae:	bf00      	nop

08000cb0 <__aeabi_l2f>:
 8000cb0:	ea50 0201 	orrs.w	r2, r0, r1
 8000cb4:	bf08      	it	eq
 8000cb6:	4770      	bxeq	lr
 8000cb8:	f011 4300 	ands.w	r3, r1, #2147483648	; 0x80000000
 8000cbc:	d502      	bpl.n	8000cc4 <__aeabi_l2f+0x14>
 8000cbe:	4240      	negs	r0, r0
 8000cc0:	eb61 0141 	sbc.w	r1, r1, r1, lsl #1
 8000cc4:	ea5f 0c01 	movs.w	ip, r1
 8000cc8:	bf02      	ittt	eq
 8000cca:	4684      	moveq	ip, r0
 8000ccc:	4601      	moveq	r1, r0
 8000cce:	2000      	moveq	r0, #0
 8000cd0:	f043 43b6 	orr.w	r3, r3, #1526726656	; 0x5b000000
 8000cd4:	bf08      	it	eq
 8000cd6:	f1a3 5380 	subeq.w	r3, r3, #268435456	; 0x10000000
 8000cda:	f5a3 0300 	sub.w	r3, r3, #8388608	; 0x800000
 8000cde:	fabc f28c 	clz	r2, ip
 8000ce2:	3a08      	subs	r2, #8
 8000ce4:	eba3 53c2 	sub.w	r3, r3, r2, lsl #23
 8000ce8:	db10      	blt.n	8000d0c <__aeabi_l2f+0x5c>
 8000cea:	fa01 fc02 	lsl.w	ip, r1, r2
 8000cee:	4463      	add	r3, ip
 8000cf0:	fa00 fc02 	lsl.w	ip, r0, r2
 8000cf4:	f1c2 0220 	rsb	r2, r2, #32
 8000cf8:	f1bc 4f00 	cmp.w	ip, #2147483648	; 0x80000000
 8000cfc:	fa20 f202 	lsr.w	r2, r0, r2
 8000d00:	eb43 0002 	adc.w	r0, r3, r2
 8000d04:	bf08      	it	eq
 8000d06:	f020 0001 	biceq.w	r0, r0, #1
 8000d0a:	4770      	bx	lr
 8000d0c:	f102 0220 	add.w	r2, r2, #32
 8000d10:	fa01 fc02 	lsl.w	ip, r1, r2
 8000d14:	f1c2 0220 	rsb	r2, r2, #32
 8000d18:	ea50 004c 	orrs.w	r0, r0, ip, lsl #1
 8000d1c:	fa21 f202 	lsr.w	r2, r1, r2
 8000d20:	eb43 0002 	adc.w	r0, r3, r2
 8000d24:	bf08      	it	eq
 8000d26:	ea20 70dc 	biceq.w	r0, r0, ip, lsr #31
 8000d2a:	4770      	bx	lr

08000d2c <__aeabi_fmul>:
 8000d2c:	f04f 0cff 	mov.w	ip, #255	; 0xff
 8000d30:	ea1c 52d0 	ands.w	r2, ip, r0, lsr #23
 8000d34:	bf1e      	ittt	ne
 8000d36:	ea1c 53d1 	andsne.w	r3, ip, r1, lsr #23
 8000d3a:	ea92 0f0c 	teqne	r2, ip
 8000d3e:	ea93 0f0c 	teqne	r3, ip
 8000d42:	d06f      	beq.n	8000e24 <__aeabi_fmul+0xf8>
 8000d44:	441a      	add	r2, r3
 8000d46:	ea80 0c01 	eor.w	ip, r0, r1
 8000d4a:	0240      	lsls	r0, r0, #9
 8000d4c:	bf18      	it	ne
 8000d4e:	ea5f 2141 	movsne.w	r1, r1, lsl #9
 8000d52:	d01e      	beq.n	8000d92 <__aeabi_fmul+0x66>
 8000d54:	f04f 6300 	mov.w	r3, #134217728	; 0x8000000
 8000d58:	ea43 1050 	orr.w	r0, r3, r0, lsr #5
 8000d5c:	ea43 1151 	orr.w	r1, r3, r1, lsr #5
 8000d60:	fba0 3101 	umull	r3, r1, r0, r1
 8000d64:	f00c 4000 	and.w	r0, ip, #2147483648	; 0x80000000
 8000d68:	f5b1 0f00 	cmp.w	r1, #8388608	; 0x800000
 8000d6c:	bf3e      	ittt	cc
 8000d6e:	0049      	lslcc	r1, r1, #1
 8000d70:	ea41 71d3 	orrcc.w	r1, r1, r3, lsr #31
 8000d74:	005b      	lslcc	r3, r3, #1
 8000d76:	ea40 0001 	orr.w	r0, r0, r1
 8000d7a:	f162 027f 	sbc.w	r2, r2, #127	; 0x7f
 8000d7e:	2afd      	cmp	r2, #253	; 0xfd
 8000d80:	d81d      	bhi.n	8000dbe <__aeabi_fmul+0x92>
 8000d82:	f1b3 4f00 	cmp.w	r3, #2147483648	; 0x80000000
 8000d86:	eb40 50c2 	adc.w	r0, r0, r2, lsl #23
 8000d8a:	bf08      	it	eq
 8000d8c:	f020 0001 	biceq.w	r0, r0, #1
 8000d90:	4770      	bx	lr
 8000d92:	f090 0f00 	teq	r0, #0
 8000d96:	f00c 4c00 	and.w	ip, ip, #2147483648	; 0x80000000
 8000d9a:	bf08      	it	eq
 8000d9c:	0249      	lsleq	r1, r1, #9
 8000d9e:	ea4c 2050 	orr.w	r0, ip, r0, lsr #9
 8000da2:	ea40 2051 	orr.w	r0, r0, r1, lsr #9
 8000da6:	3a7f      	subs	r2, #127	; 0x7f
 8000da8:	bfc2      	ittt	gt
 8000daa:	f1d2 03ff 	rsbsgt	r3, r2, #255	; 0xff
 8000dae:	ea40 50c2 	orrgt.w	r0, r0, r2, lsl #23
 8000db2:	4770      	bxgt	lr
 8000db4:	f440 0000 	orr.w	r0, r0, #8388608	; 0x800000
 8000db8:	f04f 0300 	mov.w	r3, #0
 8000dbc:	3a01      	subs	r2, #1
 8000dbe:	dc5d      	bgt.n	8000e7c <__aeabi_fmul+0x150>
 8000dc0:	f112 0f19 	cmn.w	r2, #25
 8000dc4:	bfdc      	itt	le
 8000dc6:	f000 4000 	andle.w	r0, r0, #2147483648	; 0x80000000
 8000dca:	4770      	bxle	lr
 8000dcc:	f1c2 0200 	rsb	r2, r2, #0
 8000dd0:	0041      	lsls	r1, r0, #1
 8000dd2:	fa21 f102 	lsr.w	r1, r1, r2
 8000dd6:	f1c2 0220 	rsb	r2, r2, #32
 8000dda:	fa00 fc02 	lsl.w	ip, r0, r2
 8000dde:	ea5f 0031 	movs.w	r0, r1, rrx
 8000de2:	f140 0000 	adc.w	r0, r0, #0
 8000de6:	ea53 034c 	orrs.w	r3, r3, ip, lsl #1
 8000dea:	bf08      	it	eq
 8000dec:	ea20 70dc 	biceq.w	r0, r0, ip, lsr #31
 8000df0:	4770      	bx	lr
 8000df2:	f092 0f00 	teq	r2, #0
 8000df6:	f000 4c00 	and.w	ip, r0, #2147483648	; 0x80000000
 8000dfa:	bf02      	ittt	eq
 8000dfc:	0040      	lsleq	r0, r0, #1
 8000dfe:	f410 0f00 	tsteq.w	r0, #8388608	; 0x800000
 8000e02:	3a01      	subeq	r2, #1
 8000e04:	d0f9      	beq.n	8000dfa <__aeabi_fmul+0xce>
 8000e06:	ea40 000c 	orr.w	r0, r0, ip
 8000e0a:	f093 0f00 	teq	r3, #0
 8000e0e:	f001 4c00 	and.w	ip, r1, #2147483648	; 0x80000000
 8000e12:	bf02      	ittt	eq
 8000e14:	0049      	lsleq	r1, r1, #1
 8000e16:	f411 0f00 	tsteq.w	r1, #8388608	; 0x800000
 8000e1a:	3b01      	subeq	r3, #1
 8000e1c:	d0f9      	beq.n	8000e12 <__aeabi_fmul+0xe6>
 8000e1e:	ea41 010c 	orr.w	r1, r1, ip
 8000e22:	e78f      	b.n	8000d44 <__aeabi_fmul+0x18>
 8000e24:	ea0c 53d1 	and.w	r3, ip, r1, lsr #23
 8000e28:	ea92 0f0c 	teq	r2, ip
 8000e2c:	bf18      	it	ne
 8000e2e:	ea93 0f0c 	teqne	r3, ip
 8000e32:	d00a      	beq.n	8000e4a <__aeabi_fmul+0x11e>
 8000e34:	f030 4c00 	bics.w	ip, r0, #2147483648	; 0x80000000
 8000e38:	bf18      	it	ne
 8000e3a:	f031 4c00 	bicsne.w	ip, r1, #2147483648	; 0x80000000
 8000e3e:	d1d8      	bne.n	8000df2 <__aeabi_fmul+0xc6>
 8000e40:	ea80 0001 	eor.w	r0, r0, r1
 8000e44:	f000 4000 	and.w	r0, r0, #2147483648	; 0x80000000
 8000e48:	4770      	bx	lr
 8000e4a:	f090 0f00 	teq	r0, #0
 8000e4e:	bf17      	itett	ne
 8000e50:	f090 4f00 	teqne	r0, #2147483648	; 0x80000000
 8000e54:	4608      	moveq	r0, r1
 8000e56:	f091 0f00 	teqne	r1, #0
 8000e5a:	f091 4f00 	teqne	r1, #2147483648	; 0x80000000
 8000e5e:	d014      	beq.n	8000e8a <__aeabi_fmul+0x15e>
 8000e60:	ea92 0f0c 	teq	r2, ip
 8000e64:	d101      	bne.n	8000e6a <__aeabi_fmul+0x13e>
 8000e66:	0242      	lsls	r2, r0, #9
 8000e68:	d10f      	bne.n	8000e8a <__aeabi_fmul+0x15e>
 8000e6a:	ea93 0f0c 	teq	r3, ip
 8000e6e:	d103      	bne.n	8000e78 <__aeabi_fmul+0x14c>
 8000e70:	024b      	lsls	r3, r1, #9
 8000e72:	bf18      	it	ne
 8000e74:	4608      	movne	r0, r1
 8000e76:	d108      	bne.n	8000e8a <__aeabi_fmul+0x15e>
 8000e78:	ea80 0001 	eor.w	r0, r0, r1
 8000e7c:	f000 4000 	and.w	r0, r0, #2147483648	; 0x80000000
 8000e80:	f040 40fe 	orr.w	r0, r0, #2130706432	; 0x7f000000
 8000e84:	f440 0000 	orr.w	r0, r0, #8388608	; 0x800000
 8000e88:	4770      	bx	lr
 8000e8a:	f040 40fe 	orr.w	r0, r0, #2130706432	; 0x7f000000
 8000e8e:	f440 0040 	orr.w	r0, r0, #12582912	; 0xc00000
 8000e92:	4770      	bx	lr

08000e94 <__aeabi_fdiv>:
 8000e94:	f04f 0cff 	mov.w	ip, #255	; 0xff
 8000e98:	ea1c 52d0 	ands.w	r2, ip, r0, lsr #23
 8000e9c:	bf1e      	ittt	ne
 8000e9e:	ea1c 53d1 	andsne.w	r3, ip, r1, lsr #23
 8000ea2:	ea92 0f0c 	teqne	r2, ip
 8000ea6:	ea93 0f0c 	teqne	r3, ip
 8000eaa:	d069      	beq.n	8000f80 <__aeabi_fdiv+0xec>
 8000eac:	eba2 0203 	sub.w	r2, r2, r3
 8000eb0:	ea80 0c01 	eor.w	ip, r0, r1
 8000eb4:	0249      	lsls	r1, r1, #9
 8000eb6:	ea4f 2040 	mov.w	r0, r0, lsl #9
 8000eba:	d037      	beq.n	8000f2c <__aeabi_fdiv+0x98>
 8000ebc:	f04f 5380 	mov.w	r3, #268435456	; 0x10000000
 8000ec0:	ea43 1111 	orr.w	r1, r3, r1, lsr #4
 8000ec4:	ea43 1310 	orr.w	r3, r3, r0, lsr #4
 8000ec8:	f00c 4000 	and.w	r0, ip, #2147483648	; 0x80000000
 8000ecc:	428b      	cmp	r3, r1
 8000ece:	bf38      	it	cc
 8000ed0:	005b      	lslcc	r3, r3, #1
 8000ed2:	f142 027d 	adc.w	r2, r2, #125	; 0x7d
 8000ed6:	f44f 0c00 	mov.w	ip, #8388608	; 0x800000
 8000eda:	428b      	cmp	r3, r1
 8000edc:	bf24      	itt	cs
 8000ede:	1a5b      	subcs	r3, r3, r1
 8000ee0:	ea40 000c 	orrcs.w	r0, r0, ip
 8000ee4:	ebb3 0f51 	cmp.w	r3, r1, lsr #1
 8000ee8:	bf24      	itt	cs
 8000eea:	eba3 0351 	subcs.w	r3, r3, r1, lsr #1
 8000eee:	ea40 005c 	orrcs.w	r0, r0, ip, lsr #1
 8000ef2:	ebb3 0f91 	cmp.w	r3, r1, lsr #2
 8000ef6:	bf24      	itt	cs
 8000ef8:	eba3 0391 	subcs.w	r3, r3, r1, lsr #2
 8000efc:	ea40 009c 	orrcs.w	r0, r0, ip, lsr #2
 8000f00:	ebb3 0fd1 	cmp.w	r3, r1, lsr #3
 8000f04:	bf24      	itt	cs
 8000f06:	eba3 03d1 	subcs.w	r3, r3, r1, lsr #3
 8000f0a:	ea40 00dc 	orrcs.w	r0, r0, ip, lsr #3
 8000f0e:	011b      	lsls	r3, r3, #4
 8000f10:	bf18      	it	ne
 8000f12:	ea5f 1c1c 	movsne.w	ip, ip, lsr #4
 8000f16:	d1e0      	bne.n	8000eda <__aeabi_fdiv+0x46>
 8000f18:	2afd      	cmp	r2, #253	; 0xfd
 8000f1a:	f63f af50 	bhi.w	8000dbe <__aeabi_fmul+0x92>
 8000f1e:	428b      	cmp	r3, r1
 8000f20:	eb40 50c2 	adc.w	r0, r0, r2, lsl #23
 8000f24:	bf08      	it	eq
 8000f26:	f020 0001 	biceq.w	r0, r0, #1
 8000f2a:	4770      	bx	lr
 8000f2c:	f00c 4c00 	and.w	ip, ip, #2147483648	; 0x80000000
 8000f30:	ea4c 2050 	orr.w	r0, ip, r0, lsr #9
 8000f34:	327f      	adds	r2, #127	; 0x7f
 8000f36:	bfc2      	ittt	gt
 8000f38:	f1d2 03ff 	rsbsgt	r3, r2, #255	; 0xff
 8000f3c:	ea40 50c2 	orrgt.w	r0, r0, r2, lsl #23
 8000f40:	4770      	bxgt	lr
 8000f42:	f440 0000 	orr.w	r0, r0, #8388608	; 0x800000
 8000f46:	f04f 0300 	mov.w	r3, #0
 8000f4a:	3a01      	subs	r2, #1
 8000f4c:	e737      	b.n	8000dbe <__aeabi_fmul+0x92>
 8000f4e:	f092 0f00 	teq	r2, #0
 8000f52:	f000 4c00 	and.w	ip, r0, #2147483648	; 0x80000000
 8000f56:	bf02      	ittt	eq
 8000f58:	0040      	lsleq	r0, r0, #1
 8000f5a:	f410 0f00 	tsteq.w	r0, #8388608	; 0x800000
 8000f5e:	3a01      	subeq	r2, #1
 8000f60:	d0f9      	beq.n	8000f56 <__aeabi_fdiv+0xc2>
 8000f62:	ea40 000c 	orr.w	r0, r0, ip
 8000f66:	f093 0f00 	teq	r3, #0
 8000f6a:	f001 4c00 	and.w	ip, r1, #2147483648	; 0x80000000
 8000f6e:	bf02      	ittt	eq
 8000f70:	0049      	lsleq	r1, r1, #1
 8000f72:	f411 0f00 	tsteq.w	r1, #8388608	; 0x800000
 8000f76:	3b01      	subeq	r3, #1
 8000f78:	d0f9      	beq.n	8000f6e <__aeabi_fdiv+0xda>
 8000f7a:	ea41 010c 	orr.w	r1, r1, ip
 8000f7e:	e795      	b.n	8000eac <__aeabi_fdiv+0x18>
 8000f80:	ea0c 53d1 	and.w	r3, ip, r1, lsr #23
 8000f84:	ea92 0f0c 	teq	r2, ip
 8000f88:	d108      	bne.n	8000f9c <__aeabi_fdiv+0x108>
 8000f8a:	0242      	lsls	r2, r0, #9
 8000f8c:	f47f af7d 	bne.w	8000e8a <__aeabi_fmul+0x15e>
 8000f90:	ea93 0f0c 	teq	r3, ip
 8000f94:	f47f af70 	bne.w	8000e78 <__aeabi_fmul+0x14c>
 8000f98:	4608      	mov	r0, r1
 8000f9a:	e776      	b.n	8000e8a <__aeabi_fmul+0x15e>
 8000f9c:	ea93 0f0c 	teq	r3, ip
 8000fa0:	d104      	bne.n	8000fac <__aeabi_fdiv+0x118>
 8000fa2:	024b      	lsls	r3, r1, #9
 8000fa4:	f43f af4c 	beq.w	8000e40 <__aeabi_fmul+0x114>
 8000fa8:	4608      	mov	r0, r1
 8000faa:	e76e      	b.n	8000e8a <__aeabi_fmul+0x15e>
 8000fac:	f030 4c00 	bics.w	ip, r0, #2147483648	; 0x80000000
 8000fb0:	bf18      	it	ne
 8000fb2:	f031 4c00 	bicsne.w	ip, r1, #2147483648	; 0x80000000
 8000fb6:	d1ca      	bne.n	8000f4e <__aeabi_fdiv+0xba>
 8000fb8:	f030 4200 	bics.w	r2, r0, #2147483648	; 0x80000000
 8000fbc:	f47f af5c 	bne.w	8000e78 <__aeabi_fmul+0x14c>
 8000fc0:	f031 4300 	bics.w	r3, r1, #2147483648	; 0x80000000
 8000fc4:	f47f af3c 	bne.w	8000e40 <__aeabi_fmul+0x114>
 8000fc8:	e75f      	b.n	8000e8a <__aeabi_fmul+0x15e>
 8000fca:	bf00      	nop

08000fcc <__gesf2>:
 8000fcc:	f04f 3cff 	mov.w	ip, #4294967295
 8000fd0:	e006      	b.n	8000fe0 <__cmpsf2+0x4>
 8000fd2:	bf00      	nop

08000fd4 <__lesf2>:
 8000fd4:	f04f 0c01 	mov.w	ip, #1
 8000fd8:	e002      	b.n	8000fe0 <__cmpsf2+0x4>
 8000fda:	bf00      	nop

08000fdc <__cmpsf2>:
 8000fdc:	f04f 0c01 	mov.w	ip, #1
 8000fe0:	f84d cd04 	str.w	ip, [sp, #-4]!
 8000fe4:	ea4f 0240 	mov.w	r2, r0, lsl #1
 8000fe8:	ea4f 0341 	mov.w	r3, r1, lsl #1
 8000fec:	ea7f 6c22 	mvns.w	ip, r2, asr #24
 8000ff0:	bf18      	it	ne
 8000ff2:	ea7f 6c23 	mvnsne.w	ip, r3, asr #24
 8000ff6:	d011      	beq.n	800101c <__cmpsf2+0x40>
 8000ff8:	b001      	add	sp, #4
 8000ffa:	ea52 0c53 	orrs.w	ip, r2, r3, lsr #1
 8000ffe:	bf18      	it	ne
 8001000:	ea90 0f01 	teqne	r0, r1
 8001004:	bf58      	it	pl
 8001006:	ebb2 0003 	subspl.w	r0, r2, r3
 800100a:	bf88      	it	hi
 800100c:	17c8      	asrhi	r0, r1, #31
 800100e:	bf38      	it	cc
 8001010:	ea6f 70e1 	mvncc.w	r0, r1, asr #31
 8001014:	bf18      	it	ne
 8001016:	f040 0001 	orrne.w	r0, r0, #1
 800101a:	4770      	bx	lr
 800101c:	ea7f 6c22 	mvns.w	ip, r2, asr #24
 8001020:	d102      	bne.n	8001028 <__cmpsf2+0x4c>
 8001022:	ea5f 2c40 	movs.w	ip, r0, lsl #9
 8001026:	d105      	bne.n	8001034 <__cmpsf2+0x58>
 8001028:	ea7f 6c23 	mvns.w	ip, r3, asr #24
 800102c:	d1e4      	bne.n	8000ff8 <__cmpsf2+0x1c>
 800102e:	ea5f 2c41 	movs.w	ip, r1, lsl #9
 8001032:	d0e1      	beq.n	8000ff8 <__cmpsf2+0x1c>
 8001034:	f85d 0b04 	ldr.w	r0, [sp], #4
 8001038:	4770      	bx	lr
 800103a:	bf00      	nop

0800103c <__aeabi_cfrcmple>:
 800103c:	4684      	mov	ip, r0
 800103e:	4608      	mov	r0, r1
 8001040:	4661      	mov	r1, ip
 8001042:	e7ff      	b.n	8001044 <__aeabi_cfcmpeq>

08001044 <__aeabi_cfcmpeq>:
 8001044:	b50f      	push	{r0, r1, r2, r3, lr}
 8001046:	f7ff ffc9 	bl	8000fdc <__cmpsf2>
 800104a:	2800      	cmp	r0, #0
 800104c:	bf48      	it	mi
 800104e:	f110 0f00 	cmnmi.w	r0, #0
 8001052:	bd0f      	pop	{r0, r1, r2, r3, pc}

08001054 <__aeabi_fcmpeq>:
 8001054:	f84d ed08 	str.w	lr, [sp, #-8]!
 8001058:	f7ff fff4 	bl	8001044 <__aeabi_cfcmpeq>
 800105c:	bf0c      	ite	eq
 800105e:	2001      	moveq	r0, #1
 8001060:	2000      	movne	r0, #0
 8001062:	f85d fb08 	ldr.w	pc, [sp], #8
 8001066:	bf00      	nop

08001068 <__aeabi_fcmplt>:
 8001068:	f84d ed08 	str.w	lr, [sp, #-8]!
 800106c:	f7ff ffea 	bl	8001044 <__aeabi_cfcmpeq>
 8001070:	bf34      	ite	cc
 8001072:	2001      	movcc	r0, #1
 8001074:	2000      	movcs	r0, #0
 8001076:	f85d fb08 	ldr.w	pc, [sp], #8
 800107a:	bf00      	nop

0800107c <__aeabi_fcmple>:
 800107c:	f84d ed08 	str.w	lr, [sp, #-8]!
 8001080:	f7ff ffe0 	bl	8001044 <__aeabi_cfcmpeq>
 8001084:	bf94      	ite	ls
 8001086:	2001      	movls	r0, #1
 8001088:	2000      	movhi	r0, #0
 800108a:	f85d fb08 	ldr.w	pc, [sp], #8
 800108e:	bf00      	nop

08001090 <__aeabi_fcmpge>:
 8001090:	f84d ed08 	str.w	lr, [sp, #-8]!
 8001094:	f7ff ffd2 	bl	800103c <__aeabi_cfrcmple>
 8001098:	bf94      	ite	ls
 800109a:	2001      	movls	r0, #1
 800109c:	2000      	movhi	r0, #0
 800109e:	f85d fb08 	ldr.w	pc, [sp], #8
 80010a2:	bf00      	nop

080010a4 <__aeabi_fcmpgt>:
 80010a4:	f84d ed08 	str.w	lr, [sp, #-8]!
 80010a8:	f7ff ffc8 	bl	800103c <__aeabi_cfrcmple>
 80010ac:	bf34      	ite	cc
 80010ae:	2001      	movcc	r0, #1
 80010b0:	2000      	movcs	r0, #0
 80010b2:	f85d fb08 	ldr.w	pc, [sp], #8
 80010b6:	bf00      	nop

080010b8 <__aeabi_f2iz>:
 80010b8:	ea4f 0240 	mov.w	r2, r0, lsl #1
 80010bc:	f1b2 4ffe 	cmp.w	r2, #2130706432	; 0x7f000000
 80010c0:	d30f      	bcc.n	80010e2 <__aeabi_f2iz+0x2a>
 80010c2:	f04f 039e 	mov.w	r3, #158	; 0x9e
 80010c6:	ebb3 6212 	subs.w	r2, r3, r2, lsr #24
 80010ca:	d90d      	bls.n	80010e8 <__aeabi_f2iz+0x30>
 80010cc:	ea4f 2300 	mov.w	r3, r0, lsl #8
 80010d0:	f043 4300 	orr.w	r3, r3, #2147483648	; 0x80000000
 80010d4:	f010 4f00 	tst.w	r0, #2147483648	; 0x80000000
 80010d8:	fa23 f002 	lsr.w	r0, r3, r2
 80010dc:	bf18      	it	ne
 80010de:	4240      	negne	r0, r0
 80010e0:	4770      	bx	lr
 80010e2:	f04f 0000 	mov.w	r0, #0
 80010e6:	4770      	bx	lr
 80010e8:	f112 0f61 	cmn.w	r2, #97	; 0x61
 80010ec:	d101      	bne.n	80010f2 <__aeabi_f2iz+0x3a>
 80010ee:	0242      	lsls	r2, r0, #9
 80010f0:	d105      	bne.n	80010fe <__aeabi_f2iz+0x46>
 80010f2:	f010 4000 	ands.w	r0, r0, #2147483648	; 0x80000000
 80010f6:	bf08      	it	eq
 80010f8:	f06f 4000 	mvneq.w	r0, #2147483648	; 0x80000000
 80010fc:	4770      	bx	lr
 80010fe:	f04f 0000 	mov.w	r0, #0
 8001102:	4770      	bx	lr

08001104 <arm_pid_init_f32>:
 8001104:	b5f8      	push	{r3, r4, r5, r6, r7, lr}
 8001106:	6986      	ldr	r6, [r0, #24]
 8001108:	6a05      	ldr	r5, [r0, #32]
 800110a:	4604      	mov	r4, r0
 800110c:	460f      	mov	r7, r1
 800110e:	69c1      	ldr	r1, [r0, #28]
 8001110:	4630      	mov	r0, r6
 8001112:	f7ff fd03 	bl	8000b1c <__addsf3>
 8001116:	4629      	mov	r1, r5
 8001118:	f7ff fd00 	bl	8000b1c <__addsf3>
 800111c:	4629      	mov	r1, r5
 800111e:	6020      	str	r0, [r4, #0]
 8001120:	4628      	mov	r0, r5
 8001122:	f7ff fcfb 	bl	8000b1c <__addsf3>
 8001126:	f106 4600 	add.w	r6, r6, #2147483648	; 0x80000000
 800112a:	4601      	mov	r1, r0
 800112c:	4630      	mov	r0, r6
 800112e:	f7ff fcf3 	bl	8000b18 <__aeabi_fsub>
 8001132:	60a5      	str	r5, [r4, #8]
 8001134:	6060      	str	r0, [r4, #4]
 8001136:	b11f      	cbz	r7, 8001140 <arm_pid_init_f32+0x3c>
 8001138:	2300      	movs	r3, #0
 800113a:	60e3      	str	r3, [r4, #12]
 800113c:	6123      	str	r3, [r4, #16]
 800113e:	6163      	str	r3, [r4, #20]
 8001140:	bdf8      	pop	{r3, r4, r5, r6, r7, pc}

08001142 <arm_pid_reset_f32>:
 8001142:	2300      	movs	r3, #0
 8001144:	60c3      	str	r3, [r0, #12]
 8001146:	6103      	str	r3, [r0, #16]
 8001148:	6143      	str	r3, [r0, #20]
 800114a:	4770      	bx	lr

0800114c <HAL_InitTick>:
 800114c:	b538      	push	{r3, r4, r5, lr}
 800114e:	4b0e      	ldr	r3, [pc, #56]	; (8001188 <HAL_InitTick+0x3c>)
 8001150:	4605      	mov	r5, r0
 8001152:	7818      	ldrb	r0, [r3, #0]
 8001154:	f44f 737a 	mov.w	r3, #1000	; 0x3e8
 8001158:	fbb3 f3f0 	udiv	r3, r3, r0
 800115c:	4a0b      	ldr	r2, [pc, #44]	; (800118c <HAL_InitTick+0x40>)
 800115e:	6810      	ldr	r0, [r2, #0]
 8001160:	fbb0 f0f3 	udiv	r0, r0, r3
 8001164:	f000 fca4 	bl	8001ab0 <HAL_SYSTICK_Config>
 8001168:	4604      	mov	r4, r0
 800116a:	b958      	cbnz	r0, 8001184 <HAL_InitTick+0x38>
 800116c:	2d0f      	cmp	r5, #15
 800116e:	d809      	bhi.n	8001184 <HAL_InitTick+0x38>
 8001170:	4602      	mov	r2, r0
 8001172:	4629      	mov	r1, r5
 8001174:	f04f 30ff 	mov.w	r0, #4294967295
 8001178:	f000 fc42 	bl	8001a00 <HAL_NVIC_SetPriority>
 800117c:	4b04      	ldr	r3, [pc, #16]	; (8001190 <HAL_InitTick+0x44>)
 800117e:	4620      	mov	r0, r4
 8001180:	601d      	str	r5, [r3, #0]
 8001182:	bd38      	pop	{r3, r4, r5, pc}
 8001184:	2001      	movs	r0, #1
 8001186:	bd38      	pop	{r3, r4, r5, pc}
 8001188:	20000000 	.word	0x20000000
 800118c:	2000000c 	.word	0x2000000c
 8001190:	20000004 	.word	0x20000004

08001194 <HAL_Init>:
 8001194:	4a07      	ldr	r2, [pc, #28]	; (80011b4 <HAL_Init+0x20>)
 8001196:	b508      	push	{r3, lr}
 8001198:	6813      	ldr	r3, [r2, #0]
 800119a:	2003      	movs	r0, #3
 800119c:	f043 0310 	orr.w	r3, r3, #16
 80011a0:	6013      	str	r3, [r2, #0]
 80011a2:	f000 fc0f 	bl	80019c4 <HAL_NVIC_SetPriorityGrouping>
 80011a6:	2000      	movs	r0, #0
 80011a8:	f7ff ffd0 	bl	800114c <HAL_InitTick>
 80011ac:	f005 faaa 	bl	8006704 <HAL_MspInit>
 80011b0:	2000      	movs	r0, #0
 80011b2:	bd08      	pop	{r3, pc}
 80011b4:	40022000 	.word	0x40022000

080011b8 <HAL_IncTick>:
 80011b8:	4a03      	ldr	r2, [pc, #12]	; (80011c8 <HAL_IncTick+0x10>)
 80011ba:	4b04      	ldr	r3, [pc, #16]	; (80011cc <HAL_IncTick+0x14>)
 80011bc:	6811      	ldr	r1, [r2, #0]
 80011be:	781b      	ldrb	r3, [r3, #0]
 80011c0:	440b      	add	r3, r1
 80011c2:	6013      	str	r3, [r2, #0]
 80011c4:	4770      	bx	lr
 80011c6:	bf00      	nop
 80011c8:	200001d0 	.word	0x200001d0
 80011cc:	20000000 	.word	0x20000000

080011d0 <HAL_GetTick>:
 80011d0:	4b01      	ldr	r3, [pc, #4]	; (80011d8 <HAL_GetTick+0x8>)
 80011d2:	6818      	ldr	r0, [r3, #0]
 80011d4:	4770      	bx	lr
 80011d6:	bf00      	nop
 80011d8:	200001d0 	.word	0x200001d0

080011dc <HAL_ADC_PollForConversion>:
 80011dc:	2300      	movs	r3, #0
 80011de:	b5f7      	push	{r0, r1, r2, r4, r5, r6, r7, lr}
 80011e0:	4a4e      	ldr	r2, [pc, #312]	; (800131c <HAL_ADC_PollForConversion+0x140>)
 80011e2:	9301      	str	r3, [sp, #4]
 80011e4:	6803      	ldr	r3, [r0, #0]
 80011e6:	4604      	mov	r4, r0
 80011e8:	4293      	cmp	r3, r2
 80011ea:	460d      	mov	r5, r1
 80011ec:	d008      	beq.n	8001200 <HAL_ADC_PollForConversion+0x24>
 80011ee:	f502 6280 	add.w	r2, r2, #1024	; 0x400
 80011f2:	4293      	cmp	r3, r2
 80011f4:	d004      	beq.n	8001200 <HAL_ADC_PollForConversion+0x24>
 80011f6:	f240 31a5 	movw	r1, #933	; 0x3a5
 80011fa:	4849      	ldr	r0, [pc, #292]	; (8001320 <HAL_ADC_PollForConversion+0x144>)
 80011fc:	f005 fa80 	bl	8006700 <assert_failed>
 8001200:	f7ff ffe6 	bl	80011d0 <HAL_GetTick>
 8001204:	6823      	ldr	r3, [r4, #0]
 8001206:	4607      	mov	r7, r0
 8001208:	689a      	ldr	r2, [r3, #8]
 800120a:	05d2      	lsls	r2, r2, #23
 800120c:	d509      	bpl.n	8001222 <HAL_ADC_PollForConversion+0x46>
 800120e:	6aa3      	ldr	r3, [r4, #40]	; 0x28
 8001210:	2001      	movs	r0, #1
 8001212:	f043 0320 	orr.w	r3, r3, #32
 8001216:	62a3      	str	r3, [r4, #40]	; 0x28
 8001218:	2300      	movs	r3, #0
 800121a:	f884 3024 	strb.w	r3, [r4, #36]	; 0x24
 800121e:	b003      	add	sp, #12
 8001220:	bdf0      	pop	{r4, r5, r6, r7, pc}
 8001222:	685a      	ldr	r2, [r3, #4]
 8001224:	05d6      	lsls	r6, r2, #23
 8001226:	d403      	bmi.n	8001230 <HAL_ADC_PollForConversion+0x54>
 8001228:	6adb      	ldr	r3, [r3, #44]	; 0x2c
 800122a:	f413 0f70 	tst.w	r3, #15728640	; 0xf00000
 800122e:	d03b      	beq.n	80012a8 <HAL_ADC_PollForConversion+0xcc>
 8001230:	4b3c      	ldr	r3, [pc, #240]	; (8001324 <HAL_ADC_PollForConversion+0x148>)
 8001232:	2002      	movs	r0, #2
 8001234:	681e      	ldr	r6, [r3, #0]
 8001236:	f001 ff9f 	bl	8003178 <HAL_RCCEx_GetPeriphCLKFreq>
 800123a:	6823      	ldr	r3, [r4, #0]
 800123c:	4a3a      	ldr	r2, [pc, #232]	; (8001328 <HAL_ADC_PollForConversion+0x14c>)
 800123e:	6919      	ldr	r1, [r3, #16]
 8001240:	fbb6 f0f0 	udiv	r0, r6, r0
 8001244:	4211      	tst	r1, r2
 8001246:	4a39      	ldr	r2, [pc, #228]	; (800132c <HAL_ADC_PollForConversion+0x150>)
 8001248:	d14f      	bne.n	80012ea <HAL_ADC_PollForConversion+0x10e>
 800124a:	68de      	ldr	r6, [r3, #12]
 800124c:	4938      	ldr	r1, [pc, #224]	; (8001330 <HAL_ADC_PollForConversion+0x154>)
 800124e:	420e      	tst	r6, r1
 8001250:	d14b      	bne.n	80012ea <HAL_ADC_PollForConversion+0x10e>
 8001252:	6919      	ldr	r1, [r3, #16]
 8001254:	4211      	tst	r1, r2
 8001256:	d159      	bne.n	800130c <HAL_ADC_PollForConversion+0x130>
 8001258:	68da      	ldr	r2, [r3, #12]
 800125a:	4b36      	ldr	r3, [pc, #216]	; (8001334 <HAL_ADC_PollForConversion+0x158>)
 800125c:	421a      	tst	r2, r3
 800125e:	bf14      	ite	ne
 8001260:	2329      	movne	r3, #41	; 0x29
 8001262:	2314      	moveq	r3, #20
 8001264:	fb00 f603 	mul.w	r6, r0, r3
 8001268:	9b01      	ldr	r3, [sp, #4]
 800126a:	429e      	cmp	r6, r3
 800126c:	d920      	bls.n	80012b0 <HAL_ADC_PollForConversion+0xd4>
 800126e:	1c6b      	adds	r3, r5, #1
 8001270:	d005      	beq.n	800127e <HAL_ADC_PollForConversion+0xa2>
 8001272:	b15d      	cbz	r5, 800128c <HAL_ADC_PollForConversion+0xb0>
 8001274:	f7ff ffac 	bl	80011d0 <HAL_GetTick>
 8001278:	1bc0      	subs	r0, r0, r7
 800127a:	4285      	cmp	r5, r0
 800127c:	d306      	bcc.n	800128c <HAL_ADC_PollForConversion+0xb0>
 800127e:	9b01      	ldr	r3, [sp, #4]
 8001280:	3301      	adds	r3, #1
 8001282:	9301      	str	r3, [sp, #4]
 8001284:	e7f0      	b.n	8001268 <HAL_ADC_PollForConversion+0x8c>
 8001286:	1c68      	adds	r0, r5, #1
 8001288:	d00f      	beq.n	80012aa <HAL_ADC_PollForConversion+0xce>
 800128a:	b945      	cbnz	r5, 800129e <HAL_ADC_PollForConversion+0xc2>
 800128c:	6aa3      	ldr	r3, [r4, #40]	; 0x28
 800128e:	2003      	movs	r0, #3
 8001290:	f043 0304 	orr.w	r3, r3, #4
 8001294:	62a3      	str	r3, [r4, #40]	; 0x28
 8001296:	2300      	movs	r3, #0
 8001298:	f884 3024 	strb.w	r3, [r4, #36]	; 0x24
 800129c:	e7bf      	b.n	800121e <HAL_ADC_PollForConversion+0x42>
 800129e:	f7ff ff97 	bl	80011d0 <HAL_GetTick>
 80012a2:	1bc0      	subs	r0, r0, r7
 80012a4:	4285      	cmp	r5, r0
 80012a6:	d3f1      	bcc.n	800128c <HAL_ADC_PollForConversion+0xb0>
 80012a8:	6822      	ldr	r2, [r4, #0]
 80012aa:	6813      	ldr	r3, [r2, #0]
 80012ac:	0799      	lsls	r1, r3, #30
 80012ae:	d5ea      	bpl.n	8001286 <HAL_ADC_PollForConversion+0xaa>
 80012b0:	f06f 0312 	mvn.w	r3, #18
 80012b4:	6822      	ldr	r2, [r4, #0]
 80012b6:	6013      	str	r3, [r2, #0]
 80012b8:	6aa3      	ldr	r3, [r4, #40]	; 0x28
 80012ba:	f443 7300 	orr.w	r3, r3, #512	; 0x200
 80012be:	62a3      	str	r3, [r4, #40]	; 0x28
 80012c0:	6893      	ldr	r3, [r2, #8]
 80012c2:	f403 2360 	and.w	r3, r3, #917504	; 0xe0000
 80012c6:	f5b3 2f60 	cmp.w	r3, #917504	; 0xe0000
 80012ca:	d125      	bne.n	8001318 <HAL_ADC_PollForConversion+0x13c>
 80012cc:	68e3      	ldr	r3, [r4, #12]
 80012ce:	bb1b      	cbnz	r3, 8001318 <HAL_ADC_PollForConversion+0x13c>
 80012d0:	6aa3      	ldr	r3, [r4, #40]	; 0x28
 80012d2:	f423 7380 	bic.w	r3, r3, #256	; 0x100
 80012d6:	62a3      	str	r3, [r4, #40]	; 0x28
 80012d8:	6aa0      	ldr	r0, [r4, #40]	; 0x28
 80012da:	f410 5080 	ands.w	r0, r0, #4096	; 0x1000
 80012de:	d11b      	bne.n	8001318 <HAL_ADC_PollForConversion+0x13c>
 80012e0:	6aa3      	ldr	r3, [r4, #40]	; 0x28
 80012e2:	f043 0301 	orr.w	r3, r3, #1
 80012e6:	62a3      	str	r3, [r4, #40]	; 0x28
 80012e8:	e799      	b.n	800121e <HAL_ADC_PollForConversion+0x42>
 80012ea:	6919      	ldr	r1, [r3, #16]
 80012ec:	4211      	tst	r1, r2
 80012ee:	d103      	bne.n	80012f8 <HAL_ADC_PollForConversion+0x11c>
 80012f0:	68d9      	ldr	r1, [r3, #12]
 80012f2:	4a10      	ldr	r2, [pc, #64]	; (8001334 <HAL_ADC_PollForConversion+0x158>)
 80012f4:	4211      	tst	r1, r2
 80012f6:	d00b      	beq.n	8001310 <HAL_ADC_PollForConversion+0x134>
 80012f8:	6919      	ldr	r1, [r3, #16]
 80012fa:	4a0f      	ldr	r2, [pc, #60]	; (8001338 <HAL_ADC_PollForConversion+0x15c>)
 80012fc:	4211      	tst	r1, r2
 80012fe:	d109      	bne.n	8001314 <HAL_ADC_PollForConversion+0x138>
 8001300:	68db      	ldr	r3, [r3, #12]
 8001302:	4213      	tst	r3, r2
 8001304:	bf14      	ite	ne
 8001306:	23fc      	movne	r3, #252	; 0xfc
 8001308:	2354      	moveq	r3, #84	; 0x54
 800130a:	e7ab      	b.n	8001264 <HAL_ADC_PollForConversion+0x88>
 800130c:	2329      	movs	r3, #41	; 0x29
 800130e:	e7a9      	b.n	8001264 <HAL_ADC_PollForConversion+0x88>
 8001310:	2354      	movs	r3, #84	; 0x54
 8001312:	e7a7      	b.n	8001264 <HAL_ADC_PollForConversion+0x88>
 8001314:	23fc      	movs	r3, #252	; 0xfc
 8001316:	e7a5      	b.n	8001264 <HAL_ADC_PollForConversion+0x88>
 8001318:	2000      	movs	r0, #0
 800131a:	e780      	b.n	800121e <HAL_ADC_PollForConversion+0x42>
 800131c:	40012400 	.word	0x40012400
 8001320:	08007c18 	.word	0x08007c18
 8001324:	2000000c 	.word	0x2000000c
 8001328:	24924924 	.word	0x24924924
 800132c:	12492492 	.word	0x12492492
 8001330:	00924924 	.word	0x00924924
 8001334:	00492492 	.word	0x00492492
 8001338:	00249249 	.word	0x00249249

0800133c <ADC_Enable>:
 800133c:	2300      	movs	r3, #0
 800133e:	b573      	push	{r0, r1, r4, r5, r6, lr}
 8001340:	9301      	str	r3, [sp, #4]
 8001342:	6803      	ldr	r3, [r0, #0]
 8001344:	4604      	mov	r4, r0
 8001346:	689a      	ldr	r2, [r3, #8]
 8001348:	07d2      	lsls	r2, r2, #31
 800134a:	d502      	bpl.n	8001352 <ADC_Enable+0x16>
 800134c:	2000      	movs	r0, #0
 800134e:	b002      	add	sp, #8
 8001350:	bd70      	pop	{r4, r5, r6, pc}
 8001352:	689a      	ldr	r2, [r3, #8]
 8001354:	f042 0201 	orr.w	r2, r2, #1
 8001358:	609a      	str	r2, [r3, #8]
 800135a:	4b12      	ldr	r3, [pc, #72]	; (80013a4 <ADC_Enable+0x68>)
 800135c:	4a12      	ldr	r2, [pc, #72]	; (80013a8 <ADC_Enable+0x6c>)
 800135e:	681b      	ldr	r3, [r3, #0]
 8001360:	fbb3 f3f2 	udiv	r3, r3, r2
 8001364:	9301      	str	r3, [sp, #4]
 8001366:	9b01      	ldr	r3, [sp, #4]
 8001368:	b9c3      	cbnz	r3, 800139c <ADC_Enable+0x60>
 800136a:	f7ff ff31 	bl	80011d0 <HAL_GetTick>
 800136e:	4606      	mov	r6, r0
 8001370:	6823      	ldr	r3, [r4, #0]
 8001372:	689d      	ldr	r5, [r3, #8]
 8001374:	f015 0501 	ands.w	r5, r5, #1
 8001378:	d1e8      	bne.n	800134c <ADC_Enable+0x10>
 800137a:	f7ff ff29 	bl	80011d0 <HAL_GetTick>
 800137e:	1b80      	subs	r0, r0, r6
 8001380:	2802      	cmp	r0, #2
 8001382:	d9f5      	bls.n	8001370 <ADC_Enable+0x34>
 8001384:	6aa3      	ldr	r3, [r4, #40]	; 0x28
 8001386:	f884 5024 	strb.w	r5, [r4, #36]	; 0x24
 800138a:	f043 0310 	orr.w	r3, r3, #16
 800138e:	62a3      	str	r3, [r4, #40]	; 0x28
 8001390:	6ae3      	ldr	r3, [r4, #44]	; 0x2c
 8001392:	2001      	movs	r0, #1
 8001394:	f043 0301 	orr.w	r3, r3, #1
 8001398:	62e3      	str	r3, [r4, #44]	; 0x2c
 800139a:	e7d8      	b.n	800134e <ADC_Enable+0x12>
 800139c:	9b01      	ldr	r3, [sp, #4]
 800139e:	3b01      	subs	r3, #1
 80013a0:	e7e0      	b.n	8001364 <ADC_Enable+0x28>
 80013a2:	bf00      	nop
 80013a4:	2000000c 	.word	0x2000000c
 80013a8:	000f4240 	.word	0x000f4240

080013ac <ADC_ConversionStop_Disable>:
 80013ac:	b538      	push	{r3, r4, r5, lr}
 80013ae:	6803      	ldr	r3, [r0, #0]
 80013b0:	4604      	mov	r4, r0
 80013b2:	689a      	ldr	r2, [r3, #8]
 80013b4:	07d2      	lsls	r2, r2, #31
 80013b6:	d401      	bmi.n	80013bc <ADC_ConversionStop_Disable+0x10>
 80013b8:	2000      	movs	r0, #0
 80013ba:	bd38      	pop	{r3, r4, r5, pc}
 80013bc:	689a      	ldr	r2, [r3, #8]
 80013be:	f022 0201 	bic.w	r2, r2, #1
 80013c2:	609a      	str	r2, [r3, #8]
 80013c4:	f7ff ff04 	bl	80011d0 <HAL_GetTick>
 80013c8:	4605      	mov	r5, r0
 80013ca:	6823      	ldr	r3, [r4, #0]
 80013cc:	689b      	ldr	r3, [r3, #8]
 80013ce:	07db      	lsls	r3, r3, #31
 80013d0:	d5f2      	bpl.n	80013b8 <ADC_ConversionStop_Disable+0xc>
 80013d2:	f7ff fefd 	bl	80011d0 <HAL_GetTick>
 80013d6:	1b40      	subs	r0, r0, r5
 80013d8:	2802      	cmp	r0, #2
 80013da:	d9f6      	bls.n	80013ca <ADC_ConversionStop_Disable+0x1e>
 80013dc:	6aa3      	ldr	r3, [r4, #40]	; 0x28
 80013de:	2001      	movs	r0, #1
 80013e0:	f043 0310 	orr.w	r3, r3, #16
 80013e4:	62a3      	str	r3, [r4, #40]	; 0x28
 80013e6:	6ae3      	ldr	r3, [r4, #44]	; 0x2c
 80013e8:	f043 0301 	orr.w	r3, r3, #1
 80013ec:	62e3      	str	r3, [r4, #44]	; 0x2c
 80013ee:	bd38      	pop	{r3, r4, r5, pc}

080013f0 <HAL_ADC_Init>:
 80013f0:	b570      	push	{r4, r5, r6, lr}
 80013f2:	4604      	mov	r4, r0
 80013f4:	2800      	cmp	r0, #0
 80013f6:	f000 80c9 	beq.w	800158c <HAL_ADC_Init+0x19c>
 80013fa:	6803      	ldr	r3, [r0, #0]
 80013fc:	4a66      	ldr	r2, [pc, #408]	; (8001598 <HAL_ADC_Init+0x1a8>)
 80013fe:	4293      	cmp	r3, r2
 8001400:	d008      	beq.n	8001414 <HAL_ADC_Init+0x24>
 8001402:	f502 6280 	add.w	r2, r2, #1024	; 0x400
 8001406:	4293      	cmp	r3, r2
 8001408:	d004      	beq.n	8001414 <HAL_ADC_Init+0x24>
 800140a:	f44f 71c1 	mov.w	r1, #386	; 0x182
 800140e:	4863      	ldr	r0, [pc, #396]	; (800159c <HAL_ADC_Init+0x1ac>)
 8001410:	f005 f976 	bl	8006700 <assert_failed>
 8001414:	6863      	ldr	r3, [r4, #4]
 8001416:	f433 6300 	bics.w	r3, r3, #2048	; 0x800
 800141a:	d004      	beq.n	8001426 <HAL_ADC_Init+0x36>
 800141c:	f240 1183 	movw	r1, #387	; 0x183
 8001420:	485e      	ldr	r0, [pc, #376]	; (800159c <HAL_ADC_Init+0x1ac>)
 8001422:	f005 f96d 	bl	8006700 <assert_failed>
 8001426:	68a3      	ldr	r3, [r4, #8]
 8001428:	f433 7380 	bics.w	r3, r3, #256	; 0x100
 800142c:	d004      	beq.n	8001438 <HAL_ADC_Init+0x48>
 800142e:	f44f 71c2 	mov.w	r1, #388	; 0x184
 8001432:	485a      	ldr	r0, [pc, #360]	; (800159c <HAL_ADC_Init+0x1ac>)
 8001434:	f005 f964 	bl	8006700 <assert_failed>
 8001438:	68e3      	ldr	r3, [r4, #12]
 800143a:	2b01      	cmp	r3, #1
 800143c:	d904      	bls.n	8001448 <HAL_ADC_Init+0x58>
 800143e:	f240 1185 	movw	r1, #389	; 0x185
 8001442:	4856      	ldr	r0, [pc, #344]	; (800159c <HAL_ADC_Init+0x1ac>)
 8001444:	f005 f95c 	bl	8006700 <assert_failed>
 8001448:	69e3      	ldr	r3, [r4, #28]
 800144a:	f433 2220 	bics.w	r2, r3, #655360	; 0xa0000
 800144e:	d00c      	beq.n	800146a <HAL_ADC_Init+0x7a>
 8001450:	f423 2200 	bic.w	r2, r3, #524288	; 0x80000
 8001454:	f5b2 2fc0 	cmp.w	r2, #393216	; 0x60000
 8001458:	d007      	beq.n	800146a <HAL_ADC_Init+0x7a>
 800145a:	f5b3 2f40 	cmp.w	r3, #786432	; 0xc0000
 800145e:	d004      	beq.n	800146a <HAL_ADC_Init+0x7a>
 8001460:	f44f 71c3 	mov.w	r1, #390	; 0x186
 8001464:	484d      	ldr	r0, [pc, #308]	; (800159c <HAL_ADC_Init+0x1ac>)
 8001466:	f005 f94b 	bl	8006700 <assert_failed>
 800146a:	68a3      	ldr	r3, [r4, #8]
 800146c:	b1db      	cbz	r3, 80014a6 <HAL_ADC_Init+0xb6>
 800146e:	6923      	ldr	r3, [r4, #16]
 8001470:	3b01      	subs	r3, #1
 8001472:	2b0f      	cmp	r3, #15
 8001474:	d904      	bls.n	8001480 <HAL_ADC_Init+0x90>
 8001476:	f44f 71c5 	mov.w	r1, #394	; 0x18a
 800147a:	4848      	ldr	r0, [pc, #288]	; (800159c <HAL_ADC_Init+0x1ac>)
 800147c:	f005 f940 	bl	8006700 <assert_failed>
 8001480:	6963      	ldr	r3, [r4, #20]
 8001482:	2b01      	cmp	r3, #1
 8001484:	d904      	bls.n	8001490 <HAL_ADC_Init+0xa0>
 8001486:	f240 118b 	movw	r1, #395	; 0x18b
 800148a:	4844      	ldr	r0, [pc, #272]	; (800159c <HAL_ADC_Init+0x1ac>)
 800148c:	f005 f938 	bl	8006700 <assert_failed>
 8001490:	6963      	ldr	r3, [r4, #20]
 8001492:	b143      	cbz	r3, 80014a6 <HAL_ADC_Init+0xb6>
 8001494:	69a3      	ldr	r3, [r4, #24]
 8001496:	3b01      	subs	r3, #1
 8001498:	2b07      	cmp	r3, #7
 800149a:	d904      	bls.n	80014a6 <HAL_ADC_Init+0xb6>
 800149c:	f44f 71c7 	mov.w	r1, #398	; 0x18e
 80014a0:	483e      	ldr	r0, [pc, #248]	; (800159c <HAL_ADC_Init+0x1ac>)
 80014a2:	f005 f92d 	bl	8006700 <assert_failed>
 80014a6:	6aa3      	ldr	r3, [r4, #40]	; 0x28
 80014a8:	b92b      	cbnz	r3, 80014b6 <HAL_ADC_Init+0xc6>
 80014aa:	62e3      	str	r3, [r4, #44]	; 0x2c
 80014ac:	f884 3024 	strb.w	r3, [r4, #36]	; 0x24
 80014b0:	4620      	mov	r0, r4
 80014b2:	f005 f949 	bl	8006748 <HAL_ADC_MspInit>
 80014b6:	4620      	mov	r0, r4
 80014b8:	f7ff ff78 	bl	80013ac <ADC_ConversionStop_Disable>
 80014bc:	6aa3      	ldr	r3, [r4, #40]	; 0x28
 80014be:	f013 0f10 	tst.w	r3, #16
 80014c2:	6aa3      	ldr	r3, [r4, #40]	; 0x28
 80014c4:	d164      	bne.n	8001590 <HAL_ADC_Init+0x1a0>
 80014c6:	2800      	cmp	r0, #0
 80014c8:	d162      	bne.n	8001590 <HAL_ADC_Init+0x1a0>
 80014ca:	69e1      	ldr	r1, [r4, #28]
 80014cc:	f423 5388 	bic.w	r3, r3, #4352	; 0x1100
 80014d0:	6862      	ldr	r2, [r4, #4]
 80014d2:	f023 0302 	bic.w	r3, r3, #2
 80014d6:	f043 0302 	orr.w	r3, r3, #2
 80014da:	430a      	orrs	r2, r1
 80014dc:	68a1      	ldr	r1, [r4, #8]
 80014de:	62a3      	str	r3, [r4, #40]	; 0x28
 80014e0:	68e3      	ldr	r3, [r4, #12]
 80014e2:	f5b1 7f80 	cmp.w	r1, #256	; 0x100
 80014e6:	ea42 0243 	orr.w	r2, r2, r3, lsl #1
 80014ea:	d038      	beq.n	800155e <HAL_ADC_Init+0x16e>
 80014ec:	2901      	cmp	r1, #1
 80014ee:	bf14      	ite	ne
 80014f0:	4606      	movne	r6, r0
 80014f2:	f44f 7680 	moveq.w	r6, #256	; 0x100
 80014f6:	6965      	ldr	r5, [r4, #20]
 80014f8:	2d01      	cmp	r5, #1
 80014fa:	d107      	bne.n	800150c <HAL_ADC_Init+0x11c>
 80014fc:	2b00      	cmp	r3, #0
 80014fe:	d130      	bne.n	8001562 <HAL_ADC_Init+0x172>
 8001500:	69a3      	ldr	r3, [r4, #24]
 8001502:	3b01      	subs	r3, #1
 8001504:	ea46 3543 	orr.w	r5, r6, r3, lsl #13
 8001508:	f445 6600 	orr.w	r6, r5, #2048	; 0x800
 800150c:	6823      	ldr	r3, [r4, #0]
 800150e:	f5b1 7f80 	cmp.w	r1, #256	; 0x100
 8001512:	685d      	ldr	r5, [r3, #4]
 8001514:	f425 4569 	bic.w	r5, r5, #59648	; 0xe900
 8001518:	ea45 0506 	orr.w	r5, r5, r6
 800151c:	605d      	str	r5, [r3, #4]
 800151e:	689e      	ldr	r6, [r3, #8]
 8001520:	4d1f      	ldr	r5, [pc, #124]	; (80015a0 <HAL_ADC_Init+0x1b0>)
 8001522:	ea05 0506 	and.w	r5, r5, r6
 8001526:	ea45 0502 	orr.w	r5, r5, r2
 800152a:	609d      	str	r5, [r3, #8]
 800152c:	d001      	beq.n	8001532 <HAL_ADC_Init+0x142>
 800152e:	2901      	cmp	r1, #1
 8001530:	d120      	bne.n	8001574 <HAL_ADC_Init+0x184>
 8001532:	6921      	ldr	r1, [r4, #16]
 8001534:	3901      	subs	r1, #1
 8001536:	0509      	lsls	r1, r1, #20
 8001538:	6add      	ldr	r5, [r3, #44]	; 0x2c
 800153a:	f425 0570 	bic.w	r5, r5, #15728640	; 0xf00000
 800153e:	4329      	orrs	r1, r5
 8001540:	62d9      	str	r1, [r3, #44]	; 0x2c
 8001542:	6899      	ldr	r1, [r3, #8]
 8001544:	4b17      	ldr	r3, [pc, #92]	; (80015a4 <HAL_ADC_Init+0x1b4>)
 8001546:	400b      	ands	r3, r1
 8001548:	429a      	cmp	r2, r3
 800154a:	d115      	bne.n	8001578 <HAL_ADC_Init+0x188>
 800154c:	2300      	movs	r3, #0
 800154e:	62e3      	str	r3, [r4, #44]	; 0x2c
 8001550:	6aa3      	ldr	r3, [r4, #40]	; 0x28
 8001552:	f023 0303 	bic.w	r3, r3, #3
 8001556:	f043 0301 	orr.w	r3, r3, #1
 800155a:	62a3      	str	r3, [r4, #40]	; 0x28
 800155c:	bd70      	pop	{r4, r5, r6, pc}
 800155e:	460e      	mov	r6, r1
 8001560:	e7c9      	b.n	80014f6 <HAL_ADC_Init+0x106>
 8001562:	6aa3      	ldr	r3, [r4, #40]	; 0x28
 8001564:	f043 0320 	orr.w	r3, r3, #32
 8001568:	62a3      	str	r3, [r4, #40]	; 0x28
 800156a:	6ae3      	ldr	r3, [r4, #44]	; 0x2c
 800156c:	f043 0301 	orr.w	r3, r3, #1
 8001570:	62e3      	str	r3, [r4, #44]	; 0x2c
 8001572:	e7cb      	b.n	800150c <HAL_ADC_Init+0x11c>
 8001574:	2100      	movs	r1, #0
 8001576:	e7df      	b.n	8001538 <HAL_ADC_Init+0x148>
 8001578:	6aa3      	ldr	r3, [r4, #40]	; 0x28
 800157a:	f023 0312 	bic.w	r3, r3, #18
 800157e:	f043 0310 	orr.w	r3, r3, #16
 8001582:	62a3      	str	r3, [r4, #40]	; 0x28
 8001584:	6ae3      	ldr	r3, [r4, #44]	; 0x2c
 8001586:	f043 0301 	orr.w	r3, r3, #1
 800158a:	62e3      	str	r3, [r4, #44]	; 0x2c
 800158c:	2001      	movs	r0, #1
 800158e:	bd70      	pop	{r4, r5, r6, pc}
 8001590:	f043 0310 	orr.w	r3, r3, #16
 8001594:	62a3      	str	r3, [r4, #40]	; 0x28
 8001596:	e7f9      	b.n	800158c <HAL_ADC_Init+0x19c>
 8001598:	40012400 	.word	0x40012400
 800159c:	08007c18 	.word	0x08007c18
 80015a0:	ffe1f7fd 	.word	0xffe1f7fd
 80015a4:	ff1f0efe 	.word	0xff1f0efe

080015a8 <HAL_ADCEx_InjectedStart>:
 80015a8:	6803      	ldr	r3, [r0, #0]
 80015aa:	4a2f      	ldr	r2, [pc, #188]	; (8001668 <HAL_ADCEx_InjectedStart+0xc0>)
 80015ac:	b510      	push	{r4, lr}
 80015ae:	4293      	cmp	r3, r2
 80015b0:	4604      	mov	r4, r0
 80015b2:	d007      	beq.n	80015c4 <HAL_ADCEx_InjectedStart+0x1c>
 80015b4:	f502 6280 	add.w	r2, r2, #1024	; 0x400
 80015b8:	4293      	cmp	r3, r2
 80015ba:	d003      	beq.n	80015c4 <HAL_ADCEx_InjectedStart+0x1c>
 80015bc:	21fd      	movs	r1, #253	; 0xfd
 80015be:	482b      	ldr	r0, [pc, #172]	; (800166c <HAL_ADCEx_InjectedStart+0xc4>)
 80015c0:	f005 f89e 	bl	8006700 <assert_failed>
 80015c4:	f894 3024 	ldrb.w	r3, [r4, #36]	; 0x24
 80015c8:	2b01      	cmp	r3, #1
 80015ca:	d04b      	beq.n	8001664 <HAL_ADCEx_InjectedStart+0xbc>
 80015cc:	2301      	movs	r3, #1
 80015ce:	4620      	mov	r0, r4
 80015d0:	f884 3024 	strb.w	r3, [r4, #36]	; 0x24
 80015d4:	f7ff feb2 	bl	800133c <ADC_Enable>
 80015d8:	2800      	cmp	r0, #0
 80015da:	d13f      	bne.n	800165c <HAL_ADCEx_InjectedStart+0xb4>
 80015dc:	6aa3      	ldr	r3, [r4, #40]	; 0x28
 80015de:	4a24      	ldr	r2, [pc, #144]	; (8001670 <HAL_ADCEx_InjectedStart+0xc8>)
 80015e0:	f423 5340 	bic.w	r3, r3, #12288	; 0x3000
 80015e4:	f023 0301 	bic.w	r3, r3, #1
 80015e8:	f443 5380 	orr.w	r3, r3, #4096	; 0x1000
 80015ec:	62a3      	str	r3, [r4, #40]	; 0x28
 80015ee:	6823      	ldr	r3, [r4, #0]
 80015f0:	4293      	cmp	r3, r2
 80015f2:	d105      	bne.n	8001600 <HAL_ADCEx_InjectedStart+0x58>
 80015f4:	f5a2 6280 	sub.w	r2, r2, #1024	; 0x400
 80015f8:	6852      	ldr	r2, [r2, #4]
 80015fa:	f412 2f70 	tst.w	r2, #983040	; 0xf0000
 80015fe:	d125      	bne.n	800164c <HAL_ADCEx_InjectedStart+0xa4>
 8001600:	6aa2      	ldr	r2, [r4, #40]	; 0x28
 8001602:	f422 1280 	bic.w	r2, r2, #1048576	; 0x100000
 8001606:	62a2      	str	r2, [r4, #40]	; 0x28
 8001608:	6aa2      	ldr	r2, [r4, #40]	; 0x28
 800160a:	f412 7280 	ands.w	r2, r2, #256	; 0x100
 800160e:	bf08      	it	eq
 8001610:	62e2      	streq	r2, [r4, #44]	; 0x2c
 8001612:	2200      	movs	r2, #0
 8001614:	f884 2024 	strb.w	r2, [r4, #36]	; 0x24
 8001618:	f06f 0204 	mvn.w	r2, #4
 800161c:	601a      	str	r2, [r3, #0]
 800161e:	685a      	ldr	r2, [r3, #4]
 8001620:	0552      	lsls	r2, r2, #21
 8001622:	d420      	bmi.n	8001666 <HAL_ADCEx_InjectedStart+0xbe>
 8001624:	689a      	ldr	r2, [r3, #8]
 8001626:	f402 42e0 	and.w	r2, r2, #28672	; 0x7000
 800162a:	f5b2 4fe0 	cmp.w	r2, #28672	; 0x7000
 800162e:	d111      	bne.n	8001654 <HAL_ADCEx_InjectedStart+0xac>
 8001630:	4a0f      	ldr	r2, [pc, #60]	; (8001670 <HAL_ADCEx_InjectedStart+0xc8>)
 8001632:	4293      	cmp	r3, r2
 8001634:	d105      	bne.n	8001642 <HAL_ADCEx_InjectedStart+0x9a>
 8001636:	f5a2 6280 	sub.w	r2, r2, #1024	; 0x400
 800163a:	6852      	ldr	r2, [r2, #4]
 800163c:	f412 2f70 	tst.w	r2, #983040	; 0xf0000
 8001640:	d108      	bne.n	8001654 <HAL_ADCEx_InjectedStart+0xac>
 8001642:	689a      	ldr	r2, [r3, #8]
 8001644:	f442 1202 	orr.w	r2, r2, #2129920	; 0x208000
 8001648:	609a      	str	r2, [r3, #8]
 800164a:	bd10      	pop	{r4, pc}
 800164c:	6aa2      	ldr	r2, [r4, #40]	; 0x28
 800164e:	f442 1280 	orr.w	r2, r2, #1048576	; 0x100000
 8001652:	e7d8      	b.n	8001606 <HAL_ADCEx_InjectedStart+0x5e>
 8001654:	689a      	ldr	r2, [r3, #8]
 8001656:	f442 4200 	orr.w	r2, r2, #32768	; 0x8000
 800165a:	e7f5      	b.n	8001648 <HAL_ADCEx_InjectedStart+0xa0>
 800165c:	2300      	movs	r3, #0
 800165e:	f884 3024 	strb.w	r3, [r4, #36]	; 0x24
 8001662:	bd10      	pop	{r4, pc}
 8001664:	2002      	movs	r0, #2
 8001666:	bd10      	pop	{r4, pc}
 8001668:	40012400 	.word	0x40012400
 800166c:	08007c50 	.word	0x08007c50
 8001670:	40012800 	.word	0x40012800

08001674 <HAL_ADCEx_InjectedStop>:
 8001674:	6803      	ldr	r3, [r0, #0]
 8001676:	4a1a      	ldr	r2, [pc, #104]	; (80016e0 <HAL_ADCEx_InjectedStop+0x6c>)
 8001678:	b510      	push	{r4, lr}
 800167a:	4293      	cmp	r3, r2
 800167c:	4604      	mov	r4, r0
 800167e:	d008      	beq.n	8001692 <HAL_ADCEx_InjectedStop+0x1e>
 8001680:	f502 6280 	add.w	r2, r2, #1024	; 0x400
 8001684:	4293      	cmp	r3, r2
 8001686:	d004      	beq.n	8001692 <HAL_ADCEx_InjectedStop+0x1e>
 8001688:	f44f 71b0 	mov.w	r1, #352	; 0x160
 800168c:	4815      	ldr	r0, [pc, #84]	; (80016e4 <HAL_ADCEx_InjectedStop+0x70>)
 800168e:	f005 f837 	bl	8006700 <assert_failed>
 8001692:	f894 3024 	ldrb.w	r3, [r4, #36]	; 0x24
 8001696:	2b01      	cmp	r3, #1
 8001698:	d01f      	beq.n	80016da <HAL_ADCEx_InjectedStop+0x66>
 800169a:	2301      	movs	r3, #1
 800169c:	f884 3024 	strb.w	r3, [r4, #36]	; 0x24
 80016a0:	6aa3      	ldr	r3, [r4, #40]	; 0x28
 80016a2:	05da      	lsls	r2, r3, #23
 80016a4:	d413      	bmi.n	80016ce <HAL_ADCEx_InjectedStop+0x5a>
 80016a6:	6823      	ldr	r3, [r4, #0]
 80016a8:	685b      	ldr	r3, [r3, #4]
 80016aa:	055b      	lsls	r3, r3, #21
 80016ac:	d40f      	bmi.n	80016ce <HAL_ADCEx_InjectedStop+0x5a>
 80016ae:	4620      	mov	r0, r4
 80016b0:	f7ff fe7c 	bl	80013ac <ADC_ConversionStop_Disable>
 80016b4:	b938      	cbnz	r0, 80016c6 <HAL_ADCEx_InjectedStop+0x52>
 80016b6:	6aa3      	ldr	r3, [r4, #40]	; 0x28
 80016b8:	f423 5388 	bic.w	r3, r3, #4352	; 0x1100
 80016bc:	f023 0301 	bic.w	r3, r3, #1
 80016c0:	f043 0301 	orr.w	r3, r3, #1
 80016c4:	62a3      	str	r3, [r4, #40]	; 0x28
 80016c6:	2300      	movs	r3, #0
 80016c8:	f884 3024 	strb.w	r3, [r4, #36]	; 0x24
 80016cc:	bd10      	pop	{r4, pc}
 80016ce:	6aa3      	ldr	r3, [r4, #40]	; 0x28
 80016d0:	2001      	movs	r0, #1
 80016d2:	f043 0320 	orr.w	r3, r3, #32
 80016d6:	62a3      	str	r3, [r4, #40]	; 0x28
 80016d8:	e7f5      	b.n	80016c6 <HAL_ADCEx_InjectedStop+0x52>
 80016da:	2002      	movs	r0, #2
 80016dc:	bd10      	pop	{r4, pc}
 80016de:	bf00      	nop
 80016e0:	40012400 	.word	0x40012400
 80016e4:	08007c50 	.word	0x08007c50

080016e8 <HAL_ADCEx_InjectedGetValue>:
 80016e8:	b538      	push	{r3, r4, r5, lr}
 80016ea:	4a13      	ldr	r2, [pc, #76]	; (8001738 <HAL_ADCEx_InjectedGetValue+0x50>)
 80016ec:	6803      	ldr	r3, [r0, #0]
 80016ee:	4605      	mov	r5, r0
 80016f0:	4293      	cmp	r3, r2
 80016f2:	460c      	mov	r4, r1
 80016f4:	d008      	beq.n	8001708 <HAL_ADCEx_InjectedGetValue+0x20>
 80016f6:	f502 6280 	add.w	r2, r2, #1024	; 0x400
 80016fa:	4293      	cmp	r3, r2
 80016fc:	d004      	beq.n	8001708 <HAL_ADCEx_InjectedGetValue+0x20>
 80016fe:	f240 318a 	movw	r1, #906	; 0x38a
 8001702:	480e      	ldr	r0, [pc, #56]	; (800173c <HAL_ADCEx_InjectedGetValue+0x54>)
 8001704:	f004 fffc 	bl	8006700 <assert_failed>
 8001708:	1e63      	subs	r3, r4, #1
 800170a:	2b03      	cmp	r3, #3
 800170c:	d904      	bls.n	8001718 <HAL_ADCEx_InjectedGetValue+0x30>
 800170e:	f240 318b 	movw	r1, #907	; 0x38b
 8001712:	480a      	ldr	r0, [pc, #40]	; (800173c <HAL_ADCEx_InjectedGetValue+0x54>)
 8001714:	f004 fff4 	bl	8006700 <assert_failed>
 8001718:	2c03      	cmp	r4, #3
 800171a:	682b      	ldr	r3, [r5, #0]
 800171c:	d007      	beq.n	800172e <HAL_ADCEx_InjectedGetValue+0x46>
 800171e:	2c04      	cmp	r4, #4
 8001720:	d003      	beq.n	800172a <HAL_ADCEx_InjectedGetValue+0x42>
 8001722:	2c02      	cmp	r4, #2
 8001724:	d105      	bne.n	8001732 <HAL_ADCEx_InjectedGetValue+0x4a>
 8001726:	6c18      	ldr	r0, [r3, #64]	; 0x40
 8001728:	bd38      	pop	{r3, r4, r5, pc}
 800172a:	6c98      	ldr	r0, [r3, #72]	; 0x48
 800172c:	bd38      	pop	{r3, r4, r5, pc}
 800172e:	6c58      	ldr	r0, [r3, #68]	; 0x44
 8001730:	bd38      	pop	{r3, r4, r5, pc}
 8001732:	6bd8      	ldr	r0, [r3, #60]	; 0x3c
 8001734:	bd38      	pop	{r3, r4, r5, pc}
 8001736:	bf00      	nop
 8001738:	40012400 	.word	0x40012400
 800173c:	08007c50 	.word	0x08007c50

08001740 <HAL_ADCEx_InjectedConfigChannel>:
 8001740:	2300      	movs	r3, #0
 8001742:	b5f7      	push	{r0, r1, r2, r4, r5, r6, r7, lr}
 8001744:	4a9a      	ldr	r2, [pc, #616]	; (80019b0 <HAL_ADCEx_InjectedConfigChannel+0x270>)
 8001746:	9301      	str	r3, [sp, #4]
 8001748:	6803      	ldr	r3, [r0, #0]
 800174a:	4605      	mov	r5, r0
 800174c:	4293      	cmp	r3, r2
 800174e:	460c      	mov	r4, r1
 8001750:	d008      	beq.n	8001764 <HAL_ADCEx_InjectedConfigChannel+0x24>
 8001752:	f502 6280 	add.w	r2, r2, #1024	; 0x400
 8001756:	4293      	cmp	r3, r2
 8001758:	d004      	beq.n	8001764 <HAL_ADCEx_InjectedConfigChannel+0x24>
 800175a:	f240 31fa 	movw	r1, #1018	; 0x3fa
 800175e:	4895      	ldr	r0, [pc, #596]	; (80019b4 <HAL_ADCEx_InjectedConfigChannel+0x274>)
 8001760:	f004 ffce 	bl	8006700 <assert_failed>
 8001764:	6823      	ldr	r3, [r4, #0]
 8001766:	2b11      	cmp	r3, #17
 8001768:	d904      	bls.n	8001774 <HAL_ADCEx_InjectedConfigChannel+0x34>
 800176a:	f240 31fb 	movw	r1, #1019	; 0x3fb
 800176e:	4891      	ldr	r0, [pc, #580]	; (80019b4 <HAL_ADCEx_InjectedConfigChannel+0x274>)
 8001770:	f004 ffc6 	bl	8006700 <assert_failed>
 8001774:	68a3      	ldr	r3, [r4, #8]
 8001776:	2b07      	cmp	r3, #7
 8001778:	d904      	bls.n	8001784 <HAL_ADCEx_InjectedConfigChannel+0x44>
 800177a:	f44f 717f 	mov.w	r1, #1020	; 0x3fc
 800177e:	488d      	ldr	r0, [pc, #564]	; (80019b4 <HAL_ADCEx_InjectedConfigChannel+0x274>)
 8001780:	f004 ffbe 	bl	8006700 <assert_failed>
 8001784:	69a3      	ldr	r3, [r4, #24]
 8001786:	2b01      	cmp	r3, #1
 8001788:	d904      	bls.n	8001794 <HAL_ADCEx_InjectedConfigChannel+0x54>
 800178a:	f240 31fd 	movw	r1, #1021	; 0x3fd
 800178e:	4889      	ldr	r0, [pc, #548]	; (80019b4 <HAL_ADCEx_InjectedConfigChannel+0x274>)
 8001790:	f004 ffb6 	bl	8006700 <assert_failed>
 8001794:	69e3      	ldr	r3, [r4, #28]
 8001796:	f423 5340 	bic.w	r3, r3, #12288	; 0x3000
 800179a:	f5b3 4f80 	cmp.w	r3, #16384	; 0x4000
 800179e:	d005      	beq.n	80017ac <HAL_ADCEx_InjectedConfigChannel+0x6c>
 80017a0:	b123      	cbz	r3, 80017ac <HAL_ADCEx_InjectedConfigChannel+0x6c>
 80017a2:	f240 31fe 	movw	r1, #1022	; 0x3fe
 80017a6:	4883      	ldr	r0, [pc, #524]	; (80019b4 <HAL_ADCEx_InjectedConfigChannel+0x274>)
 80017a8:	f004 ffaa 	bl	8006700 <assert_failed>
 80017ac:	68e3      	ldr	r3, [r4, #12]
 80017ae:	f5b3 5f80 	cmp.w	r3, #4096	; 0x1000
 80017b2:	d304      	bcc.n	80017be <HAL_ADCEx_InjectedConfigChannel+0x7e>
 80017b4:	f240 31ff 	movw	r1, #1023	; 0x3ff
 80017b8:	487e      	ldr	r0, [pc, #504]	; (80019b4 <HAL_ADCEx_InjectedConfigChannel+0x274>)
 80017ba:	f004 ffa1 	bl	8006700 <assert_failed>
 80017be:	68ab      	ldr	r3, [r5, #8]
 80017c0:	b1cb      	cbz	r3, 80017f6 <HAL_ADCEx_InjectedConfigChannel+0xb6>
 80017c2:	6863      	ldr	r3, [r4, #4]
 80017c4:	3b01      	subs	r3, #1
 80017c6:	2b03      	cmp	r3, #3
 80017c8:	d904      	bls.n	80017d4 <HAL_ADCEx_InjectedConfigChannel+0x94>
 80017ca:	f240 4103 	movw	r1, #1027	; 0x403
 80017ce:	4879      	ldr	r0, [pc, #484]	; (80019b4 <HAL_ADCEx_InjectedConfigChannel+0x274>)
 80017d0:	f004 ff96 	bl	8006700 <assert_failed>
 80017d4:	6923      	ldr	r3, [r4, #16]
 80017d6:	3b01      	subs	r3, #1
 80017d8:	2b03      	cmp	r3, #3
 80017da:	d904      	bls.n	80017e6 <HAL_ADCEx_InjectedConfigChannel+0xa6>
 80017dc:	f240 4104 	movw	r1, #1028	; 0x404
 80017e0:	4874      	ldr	r0, [pc, #464]	; (80019b4 <HAL_ADCEx_InjectedConfigChannel+0x274>)
 80017e2:	f004 ff8d 	bl	8006700 <assert_failed>
 80017e6:	6963      	ldr	r3, [r4, #20]
 80017e8:	2b01      	cmp	r3, #1
 80017ea:	d904      	bls.n	80017f6 <HAL_ADCEx_InjectedConfigChannel+0xb6>
 80017ec:	f240 4105 	movw	r1, #1029	; 0x405
 80017f0:	4870      	ldr	r0, [pc, #448]	; (80019b4 <HAL_ADCEx_InjectedConfigChannel+0x274>)
 80017f2:	f004 ff85 	bl	8006700 <assert_failed>
 80017f6:	f895 3024 	ldrb.w	r3, [r5, #36]	; 0x24
 80017fa:	2b01      	cmp	r3, #1
 80017fc:	f000 80d6 	beq.w	80019ac <HAL_ADCEx_InjectedConfigChannel+0x26c>
 8001800:	e894 0042 	ldmia.w	r4, {r1, r6}
 8001804:	2001      	movs	r0, #1
 8001806:	68af      	ldr	r7, [r5, #8]
 8001808:	f885 0024 	strb.w	r0, [r5, #36]	; 0x24
 800180c:	682b      	ldr	r3, [r5, #0]
 800180e:	2f00      	cmp	r7, #0
 8001810:	d17a      	bne.n	8001908 <HAL_ADCEx_InjectedConfigChannel+0x1c8>
 8001812:	4286      	cmp	r6, r0
 8001814:	d107      	bne.n	8001826 <HAL_ADCEx_InjectedConfigChannel+0xe6>
 8001816:	6b9a      	ldr	r2, [r3, #56]	; 0x38
 8001818:	0d92      	lsrs	r2, r2, #22
 800181a:	0592      	lsls	r2, r2, #22
 800181c:	ea42 32c1 	orr.w	r2, r2, r1, lsl #15
 8001820:	639a      	str	r2, [r3, #56]	; 0x38
 8001822:	2000      	movs	r0, #0
 8001824:	e003      	b.n	800182e <HAL_ADCEx_InjectedConfigChannel+0xee>
 8001826:	6aaa      	ldr	r2, [r5, #40]	; 0x28
 8001828:	f042 0220 	orr.w	r2, r2, #32
 800182c:	62aa      	str	r2, [r5, #40]	; 0x28
 800182e:	689a      	ldr	r2, [r3, #8]
 8001830:	07d7      	lsls	r7, r2, #31
 8001832:	d407      	bmi.n	8001844 <HAL_ADCEx_InjectedConfigChannel+0x104>
 8001834:	689a      	ldr	r2, [r3, #8]
 8001836:	69e7      	ldr	r7, [r4, #28]
 8001838:	f422 42e0 	bic.w	r2, r2, #28672	; 0x7000
 800183c:	f022 0201 	bic.w	r2, r2, #1
 8001840:	433a      	orrs	r2, r7
 8001842:	609a      	str	r2, [r3, #8]
 8001844:	69a2      	ldr	r2, [r4, #24]
 8001846:	2a01      	cmp	r2, #1
 8001848:	d10d      	bne.n	8001866 <HAL_ADCEx_InjectedConfigChannel+0x126>
 800184a:	69e7      	ldr	r7, [r4, #28]
 800184c:	f5b7 4fe0 	cmp.w	r7, #28672	; 0x7000
 8001850:	bf17      	itett	ne
 8001852:	6aa8      	ldrne	r0, [r5, #40]	; 0x28
 8001854:	685f      	ldreq	r7, [r3, #4]
 8001856:	f040 0020 	orrne.w	r0, r0, #32
 800185a:	62a8      	strne	r0, [r5, #40]	; 0x28
 800185c:	bf12      	itee	ne
 800185e:	4610      	movne	r0, r2
 8001860:	f447 6780 	orreq.w	r7, r7, #1024	; 0x400
 8001864:	605f      	streq	r7, [r3, #4]
 8001866:	6967      	ldr	r7, [r4, #20]
 8001868:	2f01      	cmp	r7, #1
 800186a:	d105      	bne.n	8001878 <HAL_ADCEx_InjectedConfigChannel+0x138>
 800186c:	2a00      	cmp	r2, #0
 800186e:	d16f      	bne.n	8001950 <HAL_ADCEx_InjectedConfigChannel+0x210>
 8001870:	685a      	ldr	r2, [r3, #4]
 8001872:	f442 5280 	orr.w	r2, r2, #4096	; 0x1000
 8001876:	605a      	str	r2, [r3, #4]
 8001878:	2909      	cmp	r1, #9
 800187a:	f8d4 e008 	ldr.w	lr, [r4, #8]
 800187e:	ea4f 0241 	mov.w	r2, r1, lsl #1
 8001882:	d96b      	bls.n	800195c <HAL_ADCEx_InjectedConfigChannel+0x21c>
 8001884:	f04f 0c07 	mov.w	ip, #7
 8001888:	440a      	add	r2, r1
 800188a:	68df      	ldr	r7, [r3, #12]
 800188c:	3a1e      	subs	r2, #30
 800188e:	fa0c fc02 	lsl.w	ip, ip, r2
 8001892:	ea27 070c 	bic.w	r7, r7, ip
 8001896:	fa0e f202 	lsl.w	r2, lr, r2
 800189a:	433a      	orrs	r2, r7
 800189c:	60da      	str	r2, [r3, #12]
 800189e:	f1a1 0710 	sub.w	r7, r1, #16
 80018a2:	2f01      	cmp	r7, #1
 80018a4:	bf98      	it	ls
 80018a6:	689a      	ldrls	r2, [r3, #8]
 80018a8:	68e4      	ldr	r4, [r4, #12]
 80018aa:	bf9c      	itt	ls
 80018ac:	f442 0200 	orrls.w	r2, r2, #8388608	; 0x800000
 80018b0:	609a      	strls	r2, [r3, #8]
 80018b2:	2e02      	cmp	r6, #2
 80018b4:	f8df e108 	ldr.w	lr, [pc, #264]	; 80019c0 <HAL_ADCEx_InjectedConfigChannel+0x280>
 80018b8:	d05d      	beq.n	8001976 <HAL_ADCEx_InjectedConfigChannel+0x236>
 80018ba:	2e03      	cmp	r6, #3
 80018bc:	d061      	beq.n	8001982 <HAL_ADCEx_InjectedConfigChannel+0x242>
 80018be:	2e01      	cmp	r6, #1
 80018c0:	d165      	bne.n	800198e <HAL_ADCEx_InjectedConfigChannel+0x24e>
 80018c2:	695a      	ldr	r2, [r3, #20]
 80018c4:	ea02 020e 	and.w	r2, r2, lr
 80018c8:	4322      	orrs	r2, r4
 80018ca:	615a      	str	r2, [r3, #20]
 80018cc:	2f01      	cmp	r7, #1
 80018ce:	d816      	bhi.n	80018fe <HAL_ADCEx_InjectedConfigChannel+0x1be>
 80018d0:	4a37      	ldr	r2, [pc, #220]	; (80019b0 <HAL_ADCEx_InjectedConfigChannel+0x270>)
 80018d2:	4293      	cmp	r3, r2
 80018d4:	d164      	bne.n	80019a0 <HAL_ADCEx_InjectedConfigChannel+0x260>
 80018d6:	689a      	ldr	r2, [r3, #8]
 80018d8:	0212      	lsls	r2, r2, #8
 80018da:	d410      	bmi.n	80018fe <HAL_ADCEx_InjectedConfigChannel+0x1be>
 80018dc:	689a      	ldr	r2, [r3, #8]
 80018de:	2910      	cmp	r1, #16
 80018e0:	f442 0200 	orr.w	r2, r2, #8388608	; 0x800000
 80018e4:	609a      	str	r2, [r3, #8]
 80018e6:	d10a      	bne.n	80018fe <HAL_ADCEx_InjectedConfigChannel+0x1be>
 80018e8:	4b33      	ldr	r3, [pc, #204]	; (80019b8 <HAL_ADCEx_InjectedConfigChannel+0x278>)
 80018ea:	4a34      	ldr	r2, [pc, #208]	; (80019bc <HAL_ADCEx_InjectedConfigChannel+0x27c>)
 80018ec:	681b      	ldr	r3, [r3, #0]
 80018ee:	fbb3 f2f2 	udiv	r2, r3, r2
 80018f2:	230a      	movs	r3, #10
 80018f4:	4353      	muls	r3, r2
 80018f6:	9301      	str	r3, [sp, #4]
 80018f8:	9b01      	ldr	r3, [sp, #4]
 80018fa:	2b00      	cmp	r3, #0
 80018fc:	d14d      	bne.n	800199a <HAL_ADCEx_InjectedConfigChannel+0x25a>
 80018fe:	2300      	movs	r3, #0
 8001900:	f885 3024 	strb.w	r3, [r5, #36]	; 0x24
 8001904:	b003      	add	sp, #12
 8001906:	bdf0      	pop	{r4, r5, r6, r7, pc}
 8001908:	6927      	ldr	r7, [r4, #16]
 800190a:	42be      	cmp	r6, r7
 800190c:	eba6 0207 	sub.w	r2, r6, r7
 8001910:	d812      	bhi.n	8001938 <HAL_ADCEx_InjectedConfigChannel+0x1f8>
 8001912:	eb02 0282 	add.w	r2, r2, r2, lsl #2
 8001916:	320f      	adds	r2, #15
 8001918:	3f01      	subs	r7, #1
 800191a:	fa01 f002 	lsl.w	r0, r1, r2
 800191e:	ea40 5007 	orr.w	r0, r0, r7, lsl #20
 8001922:	271f      	movs	r7, #31
 8001924:	f8d3 e038 	ldr.w	lr, [r3, #56]	; 0x38
 8001928:	fa07 f202 	lsl.w	r2, r7, r2
 800192c:	f442 1240 	orr.w	r2, r2, #3145728	; 0x300000
 8001930:	ea2e 0202 	bic.w	r2, lr, r2
 8001934:	4302      	orrs	r2, r0
 8001936:	e773      	b.n	8001820 <HAL_ADCEx_InjectedConfigChannel+0xe0>
 8001938:	201f      	movs	r0, #31
 800193a:	eb02 0282 	add.w	r2, r2, r2, lsl #2
 800193e:	320f      	adds	r2, #15
 8001940:	6b9f      	ldr	r7, [r3, #56]	; 0x38
 8001942:	fa00 f202 	lsl.w	r2, r0, r2
 8001946:	f442 1240 	orr.w	r2, r2, #3145728	; 0x300000
 800194a:	ea27 0202 	bic.w	r2, r7, r2
 800194e:	e767      	b.n	8001820 <HAL_ADCEx_InjectedConfigChannel+0xe0>
 8001950:	6aaa      	ldr	r2, [r5, #40]	; 0x28
 8001952:	4638      	mov	r0, r7
 8001954:	f042 0220 	orr.w	r2, r2, #32
 8001958:	62aa      	str	r2, [r5, #40]	; 0x28
 800195a:	e78d      	b.n	8001878 <HAL_ADCEx_InjectedConfigChannel+0x138>
 800195c:	f04f 0c07 	mov.w	ip, #7
 8001960:	691f      	ldr	r7, [r3, #16]
 8001962:	440a      	add	r2, r1
 8001964:	fa0c fc02 	lsl.w	ip, ip, r2
 8001968:	ea27 070c 	bic.w	r7, r7, ip
 800196c:	fa0e f202 	lsl.w	r2, lr, r2
 8001970:	433a      	orrs	r2, r7
 8001972:	611a      	str	r2, [r3, #16]
 8001974:	e793      	b.n	800189e <HAL_ADCEx_InjectedConfigChannel+0x15e>
 8001976:	699a      	ldr	r2, [r3, #24]
 8001978:	ea02 020e 	and.w	r2, r2, lr
 800197c:	4322      	orrs	r2, r4
 800197e:	619a      	str	r2, [r3, #24]
 8001980:	e7a4      	b.n	80018cc <HAL_ADCEx_InjectedConfigChannel+0x18c>
 8001982:	69da      	ldr	r2, [r3, #28]
 8001984:	ea02 020e 	and.w	r2, r2, lr
 8001988:	4322      	orrs	r2, r4
 800198a:	61da      	str	r2, [r3, #28]
 800198c:	e79e      	b.n	80018cc <HAL_ADCEx_InjectedConfigChannel+0x18c>
 800198e:	6a1a      	ldr	r2, [r3, #32]
 8001990:	ea02 020e 	and.w	r2, r2, lr
 8001994:	4322      	orrs	r2, r4
 8001996:	621a      	str	r2, [r3, #32]
 8001998:	e798      	b.n	80018cc <HAL_ADCEx_InjectedConfigChannel+0x18c>
 800199a:	9b01      	ldr	r3, [sp, #4]
 800199c:	3b01      	subs	r3, #1
 800199e:	e7aa      	b.n	80018f6 <HAL_ADCEx_InjectedConfigChannel+0x1b6>
 80019a0:	6aab      	ldr	r3, [r5, #40]	; 0x28
 80019a2:	2001      	movs	r0, #1
 80019a4:	f043 0320 	orr.w	r3, r3, #32
 80019a8:	62ab      	str	r3, [r5, #40]	; 0x28
 80019aa:	e7a8      	b.n	80018fe <HAL_ADCEx_InjectedConfigChannel+0x1be>
 80019ac:	2002      	movs	r0, #2
 80019ae:	e7a9      	b.n	8001904 <HAL_ADCEx_InjectedConfigChannel+0x1c4>
 80019b0:	40012400 	.word	0x40012400
 80019b4:	08007c50 	.word	0x08007c50
 80019b8:	2000000c 	.word	0x2000000c
 80019bc:	000f4240 	.word	0x000f4240
 80019c0:	fffff000 	.word	0xfffff000

080019c4 <HAL_NVIC_SetPriorityGrouping>:
 80019c4:	1ec3      	subs	r3, r0, #3
 80019c6:	2b04      	cmp	r3, #4
 80019c8:	b510      	push	{r4, lr}
 80019ca:	4604      	mov	r4, r0
 80019cc:	d903      	bls.n	80019d6 <HAL_NVIC_SetPriorityGrouping+0x12>
 80019ce:	21a2      	movs	r1, #162	; 0xa2
 80019d0:	4809      	ldr	r0, [pc, #36]	; (80019f8 <HAL_NVIC_SetPriorityGrouping+0x34>)
 80019d2:	f004 fe95 	bl	8006700 <assert_failed>
 80019d6:	4a09      	ldr	r2, [pc, #36]	; (80019fc <HAL_NVIC_SetPriorityGrouping+0x38>)
 80019d8:	0224      	lsls	r4, r4, #8
 80019da:	68d3      	ldr	r3, [r2, #12]
 80019dc:	f404 64e0 	and.w	r4, r4, #1792	; 0x700
 80019e0:	f423 63e0 	bic.w	r3, r3, #1792	; 0x700
 80019e4:	041b      	lsls	r3, r3, #16
 80019e6:	0c1b      	lsrs	r3, r3, #16
 80019e8:	f043 63bf 	orr.w	r3, r3, #100139008	; 0x5f80000
 80019ec:	f443 3300 	orr.w	r3, r3, #131072	; 0x20000
 80019f0:	431c      	orrs	r4, r3
 80019f2:	60d4      	str	r4, [r2, #12]
 80019f4:	bd10      	pop	{r4, pc}
 80019f6:	bf00      	nop
 80019f8:	08007c8b 	.word	0x08007c8b
 80019fc:	e000ed00 	.word	0xe000ed00

08001a00 <HAL_NVIC_SetPriority>:
 8001a00:	2a0f      	cmp	r2, #15
 8001a02:	b570      	push	{r4, r5, r6, lr}
 8001a04:	4604      	mov	r4, r0
 8001a06:	460e      	mov	r6, r1
 8001a08:	4615      	mov	r5, r2
 8001a0a:	d903      	bls.n	8001a14 <HAL_NVIC_SetPriority+0x14>
 8001a0c:	21ba      	movs	r1, #186	; 0xba
 8001a0e:	481a      	ldr	r0, [pc, #104]	; (8001a78 <HAL_NVIC_SetPriority+0x78>)
 8001a10:	f004 fe76 	bl	8006700 <assert_failed>
 8001a14:	2e0f      	cmp	r6, #15
 8001a16:	d903      	bls.n	8001a20 <HAL_NVIC_SetPriority+0x20>
 8001a18:	21bb      	movs	r1, #187	; 0xbb
 8001a1a:	4817      	ldr	r0, [pc, #92]	; (8001a78 <HAL_NVIC_SetPriority+0x78>)
 8001a1c:	f004 fe70 	bl	8006700 <assert_failed>
 8001a20:	4b16      	ldr	r3, [pc, #88]	; (8001a7c <HAL_NVIC_SetPriority+0x7c>)
 8001a22:	2001      	movs	r0, #1
 8001a24:	68d9      	ldr	r1, [r3, #12]
 8001a26:	f3c1 2102 	ubfx	r1, r1, #8, #3
 8001a2a:	f1c1 0307 	rsb	r3, r1, #7
 8001a2e:	1d0a      	adds	r2, r1, #4
 8001a30:	2b04      	cmp	r3, #4
 8001a32:	bf28      	it	cs
 8001a34:	2304      	movcs	r3, #4
 8001a36:	2a06      	cmp	r2, #6
 8001a38:	bf94      	ite	ls
 8001a3a:	2100      	movls	r1, #0
 8001a3c:	3903      	subhi	r1, #3
 8001a3e:	fa00 f203 	lsl.w	r2, r0, r3
 8001a42:	3a01      	subs	r2, #1
 8001a44:	4088      	lsls	r0, r1
 8001a46:	4032      	ands	r2, r6
 8001a48:	3801      	subs	r0, #1
 8001a4a:	408a      	lsls	r2, r1
 8001a4c:	4005      	ands	r5, r0
 8001a4e:	2c00      	cmp	r4, #0
 8001a50:	ea42 0205 	orr.w	r2, r2, r5
 8001a54:	ea4f 1202 	mov.w	r2, r2, lsl #4
 8001a58:	bfaf      	iteee	ge
 8001a5a:	f104 4460 	addge.w	r4, r4, #3758096384	; 0xe0000000
 8001a5e:	4b08      	ldrlt	r3, [pc, #32]	; (8001a80 <HAL_NVIC_SetPriority+0x80>)
 8001a60:	f004 040f 	andlt.w	r4, r4, #15
 8001a64:	b2d2      	uxtblt	r2, r2
 8001a66:	bfa5      	ittet	ge
 8001a68:	b2d2      	uxtbge	r2, r2
 8001a6a:	f504 4461 	addge.w	r4, r4, #57600	; 0xe100
 8001a6e:	551a      	strblt	r2, [r3, r4]
 8001a70:	f884 2300 	strbge.w	r2, [r4, #768]	; 0x300
 8001a74:	bd70      	pop	{r4, r5, r6, pc}
 8001a76:	bf00      	nop
 8001a78:	08007c8b 	.word	0x08007c8b
 8001a7c:	e000ed00 	.word	0xe000ed00
 8001a80:	e000ed14 	.word	0xe000ed14

08001a84 <HAL_NVIC_EnableIRQ>:
 8001a84:	b510      	push	{r4, lr}
 8001a86:	1e04      	subs	r4, r0, #0
 8001a88:	da03      	bge.n	8001a92 <HAL_NVIC_EnableIRQ+0xe>
 8001a8a:	21ce      	movs	r1, #206	; 0xce
 8001a8c:	4806      	ldr	r0, [pc, #24]	; (8001aa8 <HAL_NVIC_EnableIRQ+0x24>)
 8001a8e:	f004 fe37 	bl	8006700 <assert_failed>
 8001a92:	2301      	movs	r3, #1
 8001a94:	0962      	lsrs	r2, r4, #5
 8001a96:	f004 041f 	and.w	r4, r4, #31
 8001a9a:	fa03 f404 	lsl.w	r4, r3, r4
 8001a9e:	4b03      	ldr	r3, [pc, #12]	; (8001aac <HAL_NVIC_EnableIRQ+0x28>)
 8001aa0:	f843 4022 	str.w	r4, [r3, r2, lsl #2]
 8001aa4:	bd10      	pop	{r4, pc}
 8001aa6:	bf00      	nop
 8001aa8:	08007c8b 	.word	0x08007c8b
 8001aac:	e000e100 	.word	0xe000e100

08001ab0 <HAL_SYSTICK_Config>:
 8001ab0:	3801      	subs	r0, #1
 8001ab2:	f1b0 7f80 	cmp.w	r0, #16777216	; 0x1000000
 8001ab6:	d20a      	bcs.n	8001ace <HAL_SYSTICK_Config+0x1e>
 8001ab8:	21f0      	movs	r1, #240	; 0xf0
 8001aba:	4b06      	ldr	r3, [pc, #24]	; (8001ad4 <HAL_SYSTICK_Config+0x24>)
 8001abc:	4a06      	ldr	r2, [pc, #24]	; (8001ad8 <HAL_SYSTICK_Config+0x28>)
 8001abe:	6058      	str	r0, [r3, #4]
 8001ac0:	f882 1023 	strb.w	r1, [r2, #35]	; 0x23
 8001ac4:	2000      	movs	r0, #0
 8001ac6:	2207      	movs	r2, #7
 8001ac8:	6098      	str	r0, [r3, #8]
 8001aca:	601a      	str	r2, [r3, #0]
 8001acc:	4770      	bx	lr
 8001ace:	2001      	movs	r0, #1
 8001ad0:	4770      	bx	lr
 8001ad2:	bf00      	nop
 8001ad4:	e000e010 	.word	0xe000e010
 8001ad8:	e000ed00 	.word	0xe000ed00

08001adc <HAL_CRC_Init>:
 8001adc:	b510      	push	{r4, lr}
 8001ade:	4604      	mov	r4, r0
 8001ae0:	b198      	cbz	r0, 8001b0a <HAL_CRC_Init+0x2e>
 8001ae2:	6802      	ldr	r2, [r0, #0]
 8001ae4:	4b0a      	ldr	r3, [pc, #40]	; (8001b10 <HAL_CRC_Init+0x34>)
 8001ae6:	429a      	cmp	r2, r3
 8001ae8:	d003      	beq.n	8001af2 <HAL_CRC_Init+0x16>
 8001aea:	2177      	movs	r1, #119	; 0x77
 8001aec:	4809      	ldr	r0, [pc, #36]	; (8001b14 <HAL_CRC_Init+0x38>)
 8001aee:	f004 fe07 	bl	8006700 <assert_failed>
 8001af2:	7963      	ldrb	r3, [r4, #5]
 8001af4:	f003 02ff 	and.w	r2, r3, #255	; 0xff
 8001af8:	b91b      	cbnz	r3, 8001b02 <HAL_CRC_Init+0x26>
 8001afa:	7122      	strb	r2, [r4, #4]
 8001afc:	4620      	mov	r0, r4
 8001afe:	f004 fe63 	bl	80067c8 <HAL_CRC_MspInit>
 8001b02:	2301      	movs	r3, #1
 8001b04:	2000      	movs	r0, #0
 8001b06:	7163      	strb	r3, [r4, #5]
 8001b08:	bd10      	pop	{r4, pc}
 8001b0a:	2001      	movs	r0, #1
 8001b0c:	bd10      	pop	{r4, pc}
 8001b0e:	bf00      	nop
 8001b10:	40023000 	.word	0x40023000
 8001b14:	08007cc6 	.word	0x08007cc6

08001b18 <HAL_GPIO_Init>:
 8001b18:	e92d 4ff0 	stmdb	sp!, {r4, r5, r6, r7, r8, r9, sl, fp, lr}
 8001b1c:	4aaa      	ldr	r2, [pc, #680]	; (8001dc8 <HAL_GPIO_Init+0x2b0>)
 8001b1e:	b085      	sub	sp, #20
 8001b20:	4290      	cmp	r0, r2
 8001b22:	4604      	mov	r4, r0
 8001b24:	468b      	mov	fp, r1
 8001b26:	9201      	str	r2, [sp, #4]
 8001b28:	d013      	beq.n	8001b52 <HAL_GPIO_Init+0x3a>
 8001b2a:	f502 6280 	add.w	r2, r2, #1024	; 0x400
 8001b2e:	4290      	cmp	r0, r2
 8001b30:	d00f      	beq.n	8001b52 <HAL_GPIO_Init+0x3a>
 8001b32:	f502 6280 	add.w	r2, r2, #1024	; 0x400
 8001b36:	4290      	cmp	r0, r2
 8001b38:	d00b      	beq.n	8001b52 <HAL_GPIO_Init+0x3a>
 8001b3a:	f502 6280 	add.w	r2, r2, #1024	; 0x400
 8001b3e:	4290      	cmp	r0, r2
 8001b40:	d007      	beq.n	8001b52 <HAL_GPIO_Init+0x3a>
 8001b42:	f502 6280 	add.w	r2, r2, #1024	; 0x400
 8001b46:	4290      	cmp	r0, r2
 8001b48:	d003      	beq.n	8001b52 <HAL_GPIO_Init+0x3a>
 8001b4a:	21cd      	movs	r1, #205	; 0xcd
 8001b4c:	489f      	ldr	r0, [pc, #636]	; (8001dcc <HAL_GPIO_Init+0x2b4>)
 8001b4e:	f004 fdd7 	bl	8006700 <assert_failed>
 8001b52:	f8db 2000 	ldr.w	r2, [fp]
 8001b56:	b291      	uxth	r1, r2
 8001b58:	b111      	cbz	r1, 8001b60 <HAL_GPIO_Init+0x48>
 8001b5a:	0c12      	lsrs	r2, r2, #16
 8001b5c:	0412      	lsls	r2, r2, #16
 8001b5e:	b11a      	cbz	r2, 8001b68 <HAL_GPIO_Init+0x50>
 8001b60:	21ce      	movs	r1, #206	; 0xce
 8001b62:	489a      	ldr	r0, [pc, #616]	; (8001dcc <HAL_GPIO_Init+0x2b4>)
 8001b64:	f004 fdcc 	bl	8006700 <assert_failed>
 8001b68:	f8db 2004 	ldr.w	r2, [fp, #4]
 8001b6c:	2a03      	cmp	r2, #3
 8001b6e:	d917      	bls.n	8001ba0 <HAL_GPIO_Init+0x88>
 8001b70:	f1a2 0111 	sub.w	r1, r2, #17
 8001b74:	2901      	cmp	r1, #1
 8001b76:	d913      	bls.n	8001ba0 <HAL_GPIO_Init+0x88>
 8001b78:	4895      	ldr	r0, [pc, #596]	; (8001dd0 <HAL_GPIO_Init+0x2b8>)
 8001b7a:	f422 1100 	bic.w	r1, r2, #2097152	; 0x200000
 8001b7e:	4281      	cmp	r1, r0
 8001b80:	d00e      	beq.n	8001ba0 <HAL_GPIO_Init+0x88>
 8001b82:	f500 1080 	add.w	r0, r0, #1048576	; 0x100000
 8001b86:	4282      	cmp	r2, r0
 8001b88:	d00a      	beq.n	8001ba0 <HAL_GPIO_Init+0x88>
 8001b8a:	f5a0 2070 	sub.w	r0, r0, #983040	; 0xf0000
 8001b8e:	4281      	cmp	r1, r0
 8001b90:	d006      	beq.n	8001ba0 <HAL_GPIO_Init+0x88>
 8001b92:	4990      	ldr	r1, [pc, #576]	; (8001dd4 <HAL_GPIO_Init+0x2bc>)
 8001b94:	428a      	cmp	r2, r1
 8001b96:	d003      	beq.n	8001ba0 <HAL_GPIO_Init+0x88>
 8001b98:	21cf      	movs	r1, #207	; 0xcf
 8001b9a:	488c      	ldr	r0, [pc, #560]	; (8001dcc <HAL_GPIO_Init+0x2b4>)
 8001b9c:	f004 fdb0 	bl	8006700 <assert_failed>
 8001ba0:	2500      	movs	r5, #0
 8001ba2:	46a8      	mov	r8, r5
 8001ba4:	f8df a244 	ldr.w	sl, [pc, #580]	; 8001dec <HAL_GPIO_Init+0x2d4>
 8001ba8:	4e8b      	ldr	r6, [pc, #556]	; (8001dd8 <HAL_GPIO_Init+0x2c0>)
 8001baa:	2201      	movs	r2, #1
 8001bac:	f8db 7000 	ldr.w	r7, [fp]
 8001bb0:	fa02 f908 	lsl.w	r9, r2, r8
 8001bb4:	ea09 0707 	and.w	r7, r9, r7
 8001bb8:	45b9      	cmp	r9, r7
 8001bba:	f040 808f 	bne.w	8001cdc <HAL_GPIO_Init+0x1c4>
 8001bbe:	9b01      	ldr	r3, [sp, #4]
 8001bc0:	429c      	cmp	r4, r3
 8001bc2:	d011      	beq.n	8001be8 <HAL_GPIO_Init+0xd0>
 8001bc4:	4985      	ldr	r1, [pc, #532]	; (8001ddc <HAL_GPIO_Init+0x2c4>)
 8001bc6:	428c      	cmp	r4, r1
 8001bc8:	d00e      	beq.n	8001be8 <HAL_GPIO_Init+0xd0>
 8001bca:	4b85      	ldr	r3, [pc, #532]	; (8001de0 <HAL_GPIO_Init+0x2c8>)
 8001bcc:	429c      	cmp	r4, r3
 8001bce:	d00b      	beq.n	8001be8 <HAL_GPIO_Init+0xd0>
 8001bd0:	f501 6100 	add.w	r1, r1, #2048	; 0x800
 8001bd4:	428c      	cmp	r4, r1
 8001bd6:	d007      	beq.n	8001be8 <HAL_GPIO_Init+0xd0>
 8001bd8:	f501 6180 	add.w	r1, r1, #1024	; 0x400
 8001bdc:	428c      	cmp	r4, r1
 8001bde:	d003      	beq.n	8001be8 <HAL_GPIO_Init+0xd0>
 8001be0:	21dd      	movs	r1, #221	; 0xdd
 8001be2:	487a      	ldr	r0, [pc, #488]	; (8001dcc <HAL_GPIO_Init+0x2b4>)
 8001be4:	f004 fd8c 	bl	8006700 <assert_failed>
 8001be8:	f8db 1004 	ldr.w	r1, [fp, #4]
 8001bec:	2912      	cmp	r1, #18
 8001bee:	f000 80d3 	beq.w	8001d98 <HAL_GPIO_Init+0x280>
 8001bf2:	f200 808d 	bhi.w	8001d10 <HAL_GPIO_Init+0x1f8>
 8001bf6:	2902      	cmp	r1, #2
 8001bf8:	f000 80c1 	beq.w	8001d7e <HAL_GPIO_Init+0x266>
 8001bfc:	d877      	bhi.n	8001cee <HAL_GPIO_Init+0x1d6>
 8001bfe:	2900      	cmp	r1, #0
 8001c00:	f000 8093 	beq.w	8001d2a <HAL_GPIO_Init+0x212>
 8001c04:	2901      	cmp	r1, #1
 8001c06:	f000 80ae 	beq.w	8001d66 <HAL_GPIO_Init+0x24e>
 8001c0a:	2fff      	cmp	r7, #255	; 0xff
 8001c0c:	bf82      	ittt	hi
 8001c0e:	f108 4e80 	addhi.w	lr, r8, #1073741824	; 0x40000000
 8001c12:	f1ae 0e08 	subhi.w	lr, lr, #8
 8001c16:	ea4f 018e 	movhi.w	r1, lr, lsl #2
 8001c1a:	f04f 0e0f 	mov.w	lr, #15
 8001c1e:	bf9d      	ittte	ls
 8001c20:	4620      	movls	r0, r4
 8001c22:	6822      	ldrls	r2, [r4, #0]
 8001c24:	ea4f 0188 	movls.w	r1, r8, lsl #2
 8001c28:	6862      	ldrhi	r2, [r4, #4]
 8001c2a:	fa0e fc01 	lsl.w	ip, lr, r1
 8001c2e:	ea22 020c 	bic.w	r2, r2, ip
 8001c32:	fa05 f101 	lsl.w	r1, r5, r1
 8001c36:	bf88      	it	hi
 8001c38:	1d20      	addhi	r0, r4, #4
 8001c3a:	4311      	orrs	r1, r2
 8001c3c:	6001      	str	r1, [r0, #0]
 8001c3e:	f8db 0004 	ldr.w	r0, [fp, #4]
 8001c42:	00c3      	lsls	r3, r0, #3
 8001c44:	d54a      	bpl.n	8001cdc <HAL_GPIO_Init+0x1c4>
 8001c46:	f8da 2018 	ldr.w	r2, [sl, #24]
 8001c4a:	f028 0103 	bic.w	r1, r8, #3
 8001c4e:	f042 0201 	orr.w	r2, r2, #1
 8001c52:	f8ca 2018 	str.w	r2, [sl, #24]
 8001c56:	f8da 2018 	ldr.w	r2, [sl, #24]
 8001c5a:	f101 4180 	add.w	r1, r1, #1073741824	; 0x40000000
 8001c5e:	f002 0201 	and.w	r2, r2, #1
 8001c62:	9203      	str	r2, [sp, #12]
 8001c64:	f501 3180 	add.w	r1, r1, #65536	; 0x10000
 8001c68:	f008 0c03 	and.w	ip, r8, #3
 8001c6c:	9b01      	ldr	r3, [sp, #4]
 8001c6e:	9a03      	ldr	r2, [sp, #12]
 8001c70:	ea4f 0c8c 	mov.w	ip, ip, lsl #2
 8001c74:	688a      	ldr	r2, [r1, #8]
 8001c76:	fa0e fe0c 	lsl.w	lr, lr, ip
 8001c7a:	429c      	cmp	r4, r3
 8001c7c:	ea22 0e0e 	bic.w	lr, r2, lr
 8001c80:	f000 809b 	beq.w	8001dba <HAL_GPIO_Init+0x2a2>
 8001c84:	4a55      	ldr	r2, [pc, #340]	; (8001ddc <HAL_GPIO_Init+0x2c4>)
 8001c86:	4294      	cmp	r4, r2
 8001c88:	f000 8099 	beq.w	8001dbe <HAL_GPIO_Init+0x2a6>
 8001c8c:	4b54      	ldr	r3, [pc, #336]	; (8001de0 <HAL_GPIO_Init+0x2c8>)
 8001c8e:	429c      	cmp	r4, r3
 8001c90:	f000 8097 	beq.w	8001dc2 <HAL_GPIO_Init+0x2aa>
 8001c94:	f502 6200 	add.w	r2, r2, #2048	; 0x800
 8001c98:	4294      	cmp	r4, r2
 8001c9a:	bf14      	ite	ne
 8001c9c:	2204      	movne	r2, #4
 8001c9e:	2203      	moveq	r2, #3
 8001ca0:	fa02 f20c 	lsl.w	r2, r2, ip
 8001ca4:	ea42 020e 	orr.w	r2, r2, lr
 8001ca8:	608a      	str	r2, [r1, #8]
 8001caa:	6832      	ldr	r2, [r6, #0]
 8001cac:	03c1      	lsls	r1, r0, #15
 8001cae:	bf4c      	ite	mi
 8001cb0:	433a      	orrmi	r2, r7
 8001cb2:	43ba      	bicpl	r2, r7
 8001cb4:	6032      	str	r2, [r6, #0]
 8001cb6:	6872      	ldr	r2, [r6, #4]
 8001cb8:	0383      	lsls	r3, r0, #14
 8001cba:	bf4c      	ite	mi
 8001cbc:	433a      	orrmi	r2, r7
 8001cbe:	43ba      	bicpl	r2, r7
 8001cc0:	6072      	str	r2, [r6, #4]
 8001cc2:	68b2      	ldr	r2, [r6, #8]
 8001cc4:	02c1      	lsls	r1, r0, #11
 8001cc6:	bf4c      	ite	mi
 8001cc8:	433a      	orrmi	r2, r7
 8001cca:	43ba      	bicpl	r2, r7
 8001ccc:	60b2      	str	r2, [r6, #8]
 8001cce:	68f2      	ldr	r2, [r6, #12]
 8001cd0:	0283      	lsls	r3, r0, #10
 8001cd2:	bf4c      	ite	mi
 8001cd4:	4317      	orrmi	r7, r2
 8001cd6:	ea22 0707 	bicpl.w	r7, r2, r7
 8001cda:	60f7      	str	r7, [r6, #12]
 8001cdc:	f108 0801 	add.w	r8, r8, #1
 8001ce0:	f1b8 0f10 	cmp.w	r8, #16
 8001ce4:	f47f af61 	bne.w	8001baa <HAL_GPIO_Init+0x92>
 8001ce8:	b005      	add	sp, #20
 8001cea:	e8bd 8ff0 	ldmia.w	sp!, {r4, r5, r6, r7, r8, r9, sl, fp, pc}
 8001cee:	2903      	cmp	r1, #3
 8001cf0:	d05f      	beq.n	8001db2 <HAL_GPIO_Init+0x29a>
 8001cf2:	2911      	cmp	r1, #17
 8001cf4:	d189      	bne.n	8001c0a <HAL_GPIO_Init+0xf2>
 8001cf6:	f8db 200c 	ldr.w	r2, [fp, #12]
 8001cfa:	3a01      	subs	r2, #1
 8001cfc:	2a02      	cmp	r2, #2
 8001cfe:	d903      	bls.n	8001d08 <HAL_GPIO_Init+0x1f0>
 8001d00:	21ec      	movs	r1, #236	; 0xec
 8001d02:	4832      	ldr	r0, [pc, #200]	; (8001dcc <HAL_GPIO_Init+0x2b4>)
 8001d04:	f004 fcfc 	bl	8006700 <assert_failed>
 8001d08:	f8db 500c 	ldr.w	r5, [fp, #12]
 8001d0c:	3504      	adds	r5, #4
 8001d0e:	e77c      	b.n	8001c0a <HAL_GPIO_Init+0xf2>
 8001d10:	4834      	ldr	r0, [pc, #208]	; (8001de4 <HAL_GPIO_Init+0x2cc>)
 8001d12:	4281      	cmp	r1, r0
 8001d14:	d009      	beq.n	8001d2a <HAL_GPIO_Init+0x212>
 8001d16:	d81c      	bhi.n	8001d52 <HAL_GPIO_Init+0x23a>
 8001d18:	f5a0 1080 	sub.w	r0, r0, #1048576	; 0x100000
 8001d1c:	4281      	cmp	r1, r0
 8001d1e:	d004      	beq.n	8001d2a <HAL_GPIO_Init+0x212>
 8001d20:	f500 3080 	add.w	r0, r0, #65536	; 0x10000
 8001d24:	4281      	cmp	r1, r0
 8001d26:	f47f af70 	bne.w	8001c0a <HAL_GPIO_Init+0xf2>
 8001d2a:	f8db 1008 	ldr.w	r1, [fp, #8]
 8001d2e:	2902      	cmp	r1, #2
 8001d30:	d904      	bls.n	8001d3c <HAL_GPIO_Init+0x224>
 8001d32:	f240 1107 	movw	r1, #263	; 0x107
 8001d36:	4825      	ldr	r0, [pc, #148]	; (8001dcc <HAL_GPIO_Init+0x2b4>)
 8001d38:	f004 fce2 	bl	8006700 <assert_failed>
 8001d3c:	f8db 1008 	ldr.w	r1, [fp, #8]
 8001d40:	b3c9      	cbz	r1, 8001db6 <HAL_GPIO_Init+0x29e>
 8001d42:	2901      	cmp	r1, #1
 8001d44:	bf0c      	ite	eq
 8001d46:	f8c4 9010 	streq.w	r9, [r4, #16]
 8001d4a:	f8c4 9014 	strne.w	r9, [r4, #20]
 8001d4e:	2508      	movs	r5, #8
 8001d50:	e75b      	b.n	8001c0a <HAL_GPIO_Init+0xf2>
 8001d52:	4825      	ldr	r0, [pc, #148]	; (8001de8 <HAL_GPIO_Init+0x2d0>)
 8001d54:	4281      	cmp	r1, r0
 8001d56:	d0e8      	beq.n	8001d2a <HAL_GPIO_Init+0x212>
 8001d58:	f500 3080 	add.w	r0, r0, #65536	; 0x10000
 8001d5c:	4281      	cmp	r1, r0
 8001d5e:	d0e4      	beq.n	8001d2a <HAL_GPIO_Init+0x212>
 8001d60:	f5a0 1080 	sub.w	r0, r0, #1048576	; 0x100000
 8001d64:	e7de      	b.n	8001d24 <HAL_GPIO_Init+0x20c>
 8001d66:	f8db 200c 	ldr.w	r2, [fp, #12]
 8001d6a:	3a01      	subs	r2, #1
 8001d6c:	2a02      	cmp	r2, #2
 8001d6e:	d903      	bls.n	8001d78 <HAL_GPIO_Init+0x260>
 8001d70:	21e5      	movs	r1, #229	; 0xe5
 8001d72:	4816      	ldr	r0, [pc, #88]	; (8001dcc <HAL_GPIO_Init+0x2b4>)
 8001d74:	f004 fcc4 	bl	8006700 <assert_failed>
 8001d78:	f8db 500c 	ldr.w	r5, [fp, #12]
 8001d7c:	e745      	b.n	8001c0a <HAL_GPIO_Init+0xf2>
 8001d7e:	f8db 200c 	ldr.w	r2, [fp, #12]
 8001d82:	3a01      	subs	r2, #1
 8001d84:	2a02      	cmp	r2, #2
 8001d86:	d903      	bls.n	8001d90 <HAL_GPIO_Init+0x278>
 8001d88:	21f3      	movs	r1, #243	; 0xf3
 8001d8a:	4810      	ldr	r0, [pc, #64]	; (8001dcc <HAL_GPIO_Init+0x2b4>)
 8001d8c:	f004 fcb8 	bl	8006700 <assert_failed>
 8001d90:	f8db 500c 	ldr.w	r5, [fp, #12]
 8001d94:	3508      	adds	r5, #8
 8001d96:	e738      	b.n	8001c0a <HAL_GPIO_Init+0xf2>
 8001d98:	f8db 200c 	ldr.w	r2, [fp, #12]
 8001d9c:	3a01      	subs	r2, #1
 8001d9e:	2a02      	cmp	r2, #2
 8001da0:	d903      	bls.n	8001daa <HAL_GPIO_Init+0x292>
 8001da2:	21fa      	movs	r1, #250	; 0xfa
 8001da4:	4809      	ldr	r0, [pc, #36]	; (8001dcc <HAL_GPIO_Init+0x2b4>)
 8001da6:	f004 fcab 	bl	8006700 <assert_failed>
 8001daa:	f8db 500c 	ldr.w	r5, [fp, #12]
 8001dae:	350c      	adds	r5, #12
 8001db0:	e72b      	b.n	8001c0a <HAL_GPIO_Init+0xf2>
 8001db2:	2500      	movs	r5, #0
 8001db4:	e729      	b.n	8001c0a <HAL_GPIO_Init+0xf2>
 8001db6:	2504      	movs	r5, #4
 8001db8:	e727      	b.n	8001c0a <HAL_GPIO_Init+0xf2>
 8001dba:	2200      	movs	r2, #0
 8001dbc:	e770      	b.n	8001ca0 <HAL_GPIO_Init+0x188>
 8001dbe:	2201      	movs	r2, #1
 8001dc0:	e76e      	b.n	8001ca0 <HAL_GPIO_Init+0x188>
 8001dc2:	2202      	movs	r2, #2
 8001dc4:	e76c      	b.n	8001ca0 <HAL_GPIO_Init+0x188>
 8001dc6:	bf00      	nop
 8001dc8:	40010800 	.word	0x40010800
 8001dcc:	08007cfe 	.word	0x08007cfe
 8001dd0:	10110000 	.word	0x10110000
 8001dd4:	10220000 	.word	0x10220000
 8001dd8:	40010400 	.word	0x40010400
 8001ddc:	40010c00 	.word	0x40010c00
 8001de0:	40011000 	.word	0x40011000
 8001de4:	10210000 	.word	0x10210000
 8001de8:	10310000 	.word	0x10310000
 8001dec:	40021000 	.word	0x40021000

08001df0 <HAL_GPIO_ReadPin>:
 8001df0:	b538      	push	{r3, r4, r5, lr}
 8001df2:	4605      	mov	r5, r0
 8001df4:	460c      	mov	r4, r1
 8001df6:	b921      	cbnz	r1, 8001e02 <HAL_GPIO_ReadPin+0x12>
 8001df8:	f240 11c3 	movw	r1, #451	; 0x1c3
 8001dfc:	4804      	ldr	r0, [pc, #16]	; (8001e10 <HAL_GPIO_ReadPin+0x20>)
 8001dfe:	f004 fc7f 	bl	8006700 <assert_failed>
 8001e02:	68ab      	ldr	r3, [r5, #8]
 8001e04:	421c      	tst	r4, r3
 8001e06:	bf14      	ite	ne
 8001e08:	2001      	movne	r0, #1
 8001e0a:	2000      	moveq	r0, #0
 8001e0c:	bd38      	pop	{r3, r4, r5, pc}
 8001e0e:	bf00      	nop
 8001e10:	08007cfe 	.word	0x08007cfe

08001e14 <HAL_GPIO_WritePin>:
 8001e14:	b570      	push	{r4, r5, r6, lr}
 8001e16:	4605      	mov	r5, r0
 8001e18:	4616      	mov	r6, r2
 8001e1a:	460c      	mov	r4, r1
 8001e1c:	b921      	cbnz	r1, 8001e28 <HAL_GPIO_WritePin+0x14>
 8001e1e:	f240 11e3 	movw	r1, #483	; 0x1e3
 8001e22:	4808      	ldr	r0, [pc, #32]	; (8001e44 <HAL_GPIO_WritePin+0x30>)
 8001e24:	f004 fc6c 	bl	8006700 <assert_failed>
 8001e28:	2e01      	cmp	r6, #1
 8001e2a:	d906      	bls.n	8001e3a <HAL_GPIO_WritePin+0x26>
 8001e2c:	f44f 71f2 	mov.w	r1, #484	; 0x1e4
 8001e30:	4804      	ldr	r0, [pc, #16]	; (8001e44 <HAL_GPIO_WritePin+0x30>)
 8001e32:	f004 fc65 	bl	8006700 <assert_failed>
 8001e36:	612c      	str	r4, [r5, #16]
 8001e38:	bd70      	pop	{r4, r5, r6, pc}
 8001e3a:	2e00      	cmp	r6, #0
 8001e3c:	d1fb      	bne.n	8001e36 <HAL_GPIO_WritePin+0x22>
 8001e3e:	0424      	lsls	r4, r4, #16
 8001e40:	e7f9      	b.n	8001e36 <HAL_GPIO_WritePin+0x22>
 8001e42:	bf00      	nop
 8001e44:	08007cfe 	.word	0x08007cfe

08001e48 <HAL_GPIO_TogglePin>:
 8001e48:	b538      	push	{r3, r4, r5, lr}
 8001e4a:	4605      	mov	r5, r0
 8001e4c:	460c      	mov	r4, r1
 8001e4e:	b921      	cbnz	r1, 8001e5a <HAL_GPIO_TogglePin+0x12>
 8001e50:	f240 11f9 	movw	r1, #505	; 0x1f9
 8001e54:	4803      	ldr	r0, [pc, #12]	; (8001e64 <HAL_GPIO_TogglePin+0x1c>)
 8001e56:	f004 fc53 	bl	8006700 <assert_failed>
 8001e5a:	68eb      	ldr	r3, [r5, #12]
 8001e5c:	405c      	eors	r4, r3
 8001e5e:	60ec      	str	r4, [r5, #12]
 8001e60:	bd38      	pop	{r3, r4, r5, pc}
 8001e62:	bf00      	nop
 8001e64:	08007cfe 	.word	0x08007cfe

08001e68 <HAL_GPIO_EXTI_IRQHandler>:
 8001e68:	b508      	push	{r3, lr}
 8001e6a:	4b04      	ldr	r3, [pc, #16]	; (8001e7c <HAL_GPIO_EXTI_IRQHandler+0x14>)
 8001e6c:	6959      	ldr	r1, [r3, #20]
 8001e6e:	4201      	tst	r1, r0
 8001e70:	d002      	beq.n	8001e78 <HAL_GPIO_EXTI_IRQHandler+0x10>
 8001e72:	6158      	str	r0, [r3, #20]
 8001e74:	f003 ff30 	bl	8005cd8 <HAL_GPIO_EXTI_Callback>
 8001e78:	bd08      	pop	{r3, pc}
 8001e7a:	bf00      	nop
 8001e7c:	40010400 	.word	0x40010400

08001e80 <I2C_IsAcknowledgeFailed>:
 8001e80:	6802      	ldr	r2, [r0, #0]
 8001e82:	6953      	ldr	r3, [r2, #20]
 8001e84:	f413 6380 	ands.w	r3, r3, #1024	; 0x400
 8001e88:	d00d      	beq.n	8001ea6 <I2C_IsAcknowledgeFailed+0x26>
 8001e8a:	f46f 6380 	mvn.w	r3, #1024	; 0x400
 8001e8e:	6153      	str	r3, [r2, #20]
 8001e90:	2304      	movs	r3, #4
 8001e92:	2220      	movs	r2, #32
 8001e94:	6403      	str	r3, [r0, #64]	; 0x40
 8001e96:	2300      	movs	r3, #0
 8001e98:	6303      	str	r3, [r0, #48]	; 0x30
 8001e9a:	f880 303c 	strb.w	r3, [r0, #60]	; 0x3c
 8001e9e:	f880 203d 	strb.w	r2, [r0, #61]	; 0x3d
 8001ea2:	2001      	movs	r0, #1
 8001ea4:	4770      	bx	lr
 8001ea6:	4618      	mov	r0, r3
 8001ea8:	4770      	bx	lr

08001eaa <I2C_WaitOnMasterAddressFlagUntilTimeout>:
 8001eaa:	e92d 43f8 	stmdb	sp!, {r3, r4, r5, r6, r7, r8, r9, lr}
 8001eae:	4604      	mov	r4, r0
 8001eb0:	4617      	mov	r7, r2
 8001eb2:	4699      	mov	r9, r3
 8001eb4:	f3c1 4807 	ubfx	r8, r1, #16, #8
 8001eb8:	b28e      	uxth	r6, r1
 8001eba:	6825      	ldr	r5, [r4, #0]
 8001ebc:	f1b8 0f01 	cmp.w	r8, #1
 8001ec0:	bf0c      	ite	eq
 8001ec2:	696b      	ldreq	r3, [r5, #20]
 8001ec4:	69ab      	ldrne	r3, [r5, #24]
 8001ec6:	ea36 0303 	bics.w	r3, r6, r3
 8001eca:	bf14      	ite	ne
 8001ecc:	2001      	movne	r0, #1
 8001ece:	2000      	moveq	r0, #0
 8001ed0:	b908      	cbnz	r0, 8001ed6 <I2C_WaitOnMasterAddressFlagUntilTimeout+0x2c>
 8001ed2:	e8bd 83f8 	ldmia.w	sp!, {r3, r4, r5, r6, r7, r8, r9, pc}
 8001ed6:	696b      	ldr	r3, [r5, #20]
 8001ed8:	055a      	lsls	r2, r3, #21
 8001eda:	d512      	bpl.n	8001f02 <I2C_WaitOnMasterAddressFlagUntilTimeout+0x58>
 8001edc:	682b      	ldr	r3, [r5, #0]
 8001ede:	2220      	movs	r2, #32
 8001ee0:	f443 7300 	orr.w	r3, r3, #512	; 0x200
 8001ee4:	602b      	str	r3, [r5, #0]
 8001ee6:	f46f 6380 	mvn.w	r3, #1024	; 0x400
 8001eea:	616b      	str	r3, [r5, #20]
 8001eec:	2304      	movs	r3, #4
 8001eee:	6423      	str	r3, [r4, #64]	; 0x40
 8001ef0:	2300      	movs	r3, #0
 8001ef2:	2001      	movs	r0, #1
 8001ef4:	6323      	str	r3, [r4, #48]	; 0x30
 8001ef6:	f884 303c 	strb.w	r3, [r4, #60]	; 0x3c
 8001efa:	f884 203d 	strb.w	r2, [r4, #61]	; 0x3d
 8001efe:	e8bd 83f8 	ldmia.w	sp!, {r3, r4, r5, r6, r7, r8, r9, pc}
 8001f02:	1c7b      	adds	r3, r7, #1
 8001f04:	d0d9      	beq.n	8001eba <I2C_WaitOnMasterAddressFlagUntilTimeout+0x10>
 8001f06:	b94f      	cbnz	r7, 8001f1c <I2C_WaitOnMasterAddressFlagUntilTimeout+0x72>
 8001f08:	2300      	movs	r3, #0
 8001f0a:	2220      	movs	r2, #32
 8001f0c:	6323      	str	r3, [r4, #48]	; 0x30
 8001f0e:	f884 303c 	strb.w	r3, [r4, #60]	; 0x3c
 8001f12:	f884 203d 	strb.w	r2, [r4, #61]	; 0x3d
 8001f16:	2003      	movs	r0, #3
 8001f18:	e8bd 83f8 	ldmia.w	sp!, {r3, r4, r5, r6, r7, r8, r9, pc}
 8001f1c:	f7ff f958 	bl	80011d0 <HAL_GetTick>
 8001f20:	eba0 0009 	sub.w	r0, r0, r9
 8001f24:	4287      	cmp	r7, r0
 8001f26:	d2c8      	bcs.n	8001eba <I2C_WaitOnMasterAddressFlagUntilTimeout+0x10>
 8001f28:	e7ee      	b.n	8001f08 <I2C_WaitOnMasterAddressFlagUntilTimeout+0x5e>

08001f2a <I2C_WaitOnFlagUntilTimeout>:
 8001f2a:	e92d 43f8 	stmdb	sp!, {r3, r4, r5, r6, r7, r8, r9, lr}
 8001f2e:	4604      	mov	r4, r0
 8001f30:	4690      	mov	r8, r2
 8001f32:	461f      	mov	r7, r3
 8001f34:	9e08      	ldr	r6, [sp, #32]
 8001f36:	f3c1 4907 	ubfx	r9, r1, #16, #8
 8001f3a:	b28d      	uxth	r5, r1
 8001f3c:	6823      	ldr	r3, [r4, #0]
 8001f3e:	f1b9 0f01 	cmp.w	r9, #1
 8001f42:	bf0c      	ite	eq
 8001f44:	695b      	ldreq	r3, [r3, #20]
 8001f46:	699b      	ldrne	r3, [r3, #24]
 8001f48:	ea35 0303 	bics.w	r3, r5, r3
 8001f4c:	bf0c      	ite	eq
 8001f4e:	2301      	moveq	r3, #1
 8001f50:	2300      	movne	r3, #0
 8001f52:	4543      	cmp	r3, r8
 8001f54:	d002      	beq.n	8001f5c <I2C_WaitOnFlagUntilTimeout+0x32>
 8001f56:	2000      	movs	r0, #0
 8001f58:	e8bd 83f8 	ldmia.w	sp!, {r3, r4, r5, r6, r7, r8, r9, pc}
 8001f5c:	1c7b      	adds	r3, r7, #1
 8001f5e:	d0ed      	beq.n	8001f3c <I2C_WaitOnFlagUntilTimeout+0x12>
 8001f60:	b95f      	cbnz	r7, 8001f7a <I2C_WaitOnFlagUntilTimeout+0x50>
 8001f62:	2300      	movs	r3, #0
 8001f64:	2220      	movs	r2, #32
 8001f66:	6323      	str	r3, [r4, #48]	; 0x30
 8001f68:	f884 303c 	strb.w	r3, [r4, #60]	; 0x3c
 8001f6c:	f884 203d 	strb.w	r2, [r4, #61]	; 0x3d
 8001f70:	2003      	movs	r0, #3
 8001f72:	f884 303e 	strb.w	r3, [r4, #62]	; 0x3e
 8001f76:	e8bd 83f8 	ldmia.w	sp!, {r3, r4, r5, r6, r7, r8, r9, pc}
 8001f7a:	f7ff f929 	bl	80011d0 <HAL_GetTick>
 8001f7e:	1b80      	subs	r0, r0, r6
 8001f80:	4287      	cmp	r7, r0
 8001f82:	d2db      	bcs.n	8001f3c <I2C_WaitOnFlagUntilTimeout+0x12>
 8001f84:	e7ed      	b.n	8001f62 <I2C_WaitOnFlagUntilTimeout+0x38>

08001f86 <I2C_WaitOnTXEFlagUntilTimeout>:
 8001f86:	b570      	push	{r4, r5, r6, lr}
 8001f88:	4604      	mov	r4, r0
 8001f8a:	460d      	mov	r5, r1
 8001f8c:	4616      	mov	r6, r2
 8001f8e:	6823      	ldr	r3, [r4, #0]
 8001f90:	695b      	ldr	r3, [r3, #20]
 8001f92:	061b      	lsls	r3, r3, #24
 8001f94:	d501      	bpl.n	8001f9a <I2C_WaitOnTXEFlagUntilTimeout+0x14>
 8001f96:	2000      	movs	r0, #0
 8001f98:	bd70      	pop	{r4, r5, r6, pc}
 8001f9a:	4620      	mov	r0, r4
 8001f9c:	f7ff ff70 	bl	8001e80 <I2C_IsAcknowledgeFailed>
 8001fa0:	b9a8      	cbnz	r0, 8001fce <I2C_WaitOnTXEFlagUntilTimeout+0x48>
 8001fa2:	1c6a      	adds	r2, r5, #1
 8001fa4:	d0f3      	beq.n	8001f8e <I2C_WaitOnTXEFlagUntilTimeout+0x8>
 8001fa6:	b965      	cbnz	r5, 8001fc2 <I2C_WaitOnTXEFlagUntilTimeout+0x3c>
 8001fa8:	6c23      	ldr	r3, [r4, #64]	; 0x40
 8001faa:	2220      	movs	r2, #32
 8001fac:	f043 0320 	orr.w	r3, r3, #32
 8001fb0:	6423      	str	r3, [r4, #64]	; 0x40
 8001fb2:	2300      	movs	r3, #0
 8001fb4:	2003      	movs	r0, #3
 8001fb6:	6323      	str	r3, [r4, #48]	; 0x30
 8001fb8:	f884 303c 	strb.w	r3, [r4, #60]	; 0x3c
 8001fbc:	f884 203d 	strb.w	r2, [r4, #61]	; 0x3d
 8001fc0:	bd70      	pop	{r4, r5, r6, pc}
 8001fc2:	f7ff f905 	bl	80011d0 <HAL_GetTick>
 8001fc6:	1b80      	subs	r0, r0, r6
 8001fc8:	4285      	cmp	r5, r0
 8001fca:	d2e0      	bcs.n	8001f8e <I2C_WaitOnTXEFlagUntilTimeout+0x8>
 8001fcc:	e7ec      	b.n	8001fa8 <I2C_WaitOnTXEFlagUntilTimeout+0x22>
 8001fce:	2001      	movs	r0, #1
 8001fd0:	bd70      	pop	{r4, r5, r6, pc}
	...

08001fd4 <I2C_RequestMemoryWrite>:
 8001fd4:	e92d 41ff 	stmdb	sp!, {r0, r1, r2, r3, r4, r5, r6, r7, r8, lr}
 8001fd8:	4615      	mov	r5, r2
 8001fda:	6802      	ldr	r2, [r0, #0]
 8001fdc:	4698      	mov	r8, r3
 8001fde:	6813      	ldr	r3, [r2, #0]
 8001fe0:	9e0b      	ldr	r6, [sp, #44]	; 0x2c
 8001fe2:	f443 7380 	orr.w	r3, r3, #256	; 0x100
 8001fe6:	6013      	str	r3, [r2, #0]
 8001fe8:	460f      	mov	r7, r1
 8001fea:	9600      	str	r6, [sp, #0]
 8001fec:	9b0a      	ldr	r3, [sp, #40]	; 0x28
 8001fee:	2200      	movs	r2, #0
 8001ff0:	f04f 1101 	mov.w	r1, #65537	; 0x10001
 8001ff4:	4604      	mov	r4, r0
 8001ff6:	f7ff ff98 	bl	8001f2a <I2C_WaitOnFlagUntilTimeout>
 8001ffa:	b968      	cbnz	r0, 8002018 <I2C_RequestMemoryWrite+0x44>
 8001ffc:	6823      	ldr	r3, [r4, #0]
 8001ffe:	f007 07fe 	and.w	r7, r7, #254	; 0xfe
 8002002:	611f      	str	r7, [r3, #16]
 8002004:	9a0a      	ldr	r2, [sp, #40]	; 0x28
 8002006:	4633      	mov	r3, r6
 8002008:	491a      	ldr	r1, [pc, #104]	; (8002074 <I2C_RequestMemoryWrite+0xa0>)
 800200a:	4620      	mov	r0, r4
 800200c:	f7ff ff4d 	bl	8001eaa <I2C_WaitOnMasterAddressFlagUntilTimeout>
 8002010:	b130      	cbz	r0, 8002020 <I2C_RequestMemoryWrite+0x4c>
 8002012:	6c23      	ldr	r3, [r4, #64]	; 0x40
 8002014:	2b04      	cmp	r3, #4
 8002016:	d018      	beq.n	800204a <I2C_RequestMemoryWrite+0x76>
 8002018:	2003      	movs	r0, #3
 800201a:	b004      	add	sp, #16
 800201c:	e8bd 81f0 	ldmia.w	sp!, {r4, r5, r6, r7, r8, pc}
 8002020:	6823      	ldr	r3, [r4, #0]
 8002022:	9003      	str	r0, [sp, #12]
 8002024:	695a      	ldr	r2, [r3, #20]
 8002026:	990a      	ldr	r1, [sp, #40]	; 0x28
 8002028:	9203      	str	r2, [sp, #12]
 800202a:	699b      	ldr	r3, [r3, #24]
 800202c:	4632      	mov	r2, r6
 800202e:	9303      	str	r3, [sp, #12]
 8002030:	4620      	mov	r0, r4
 8002032:	9b03      	ldr	r3, [sp, #12]
 8002034:	f7ff ffa7 	bl	8001f86 <I2C_WaitOnTXEFlagUntilTimeout>
 8002038:	b148      	cbz	r0, 800204e <I2C_RequestMemoryWrite+0x7a>
 800203a:	6c23      	ldr	r3, [r4, #64]	; 0x40
 800203c:	2b04      	cmp	r3, #4
 800203e:	d1eb      	bne.n	8002018 <I2C_RequestMemoryWrite+0x44>
 8002040:	6822      	ldr	r2, [r4, #0]
 8002042:	6813      	ldr	r3, [r2, #0]
 8002044:	f443 7300 	orr.w	r3, r3, #512	; 0x200
 8002048:	6013      	str	r3, [r2, #0]
 800204a:	2001      	movs	r0, #1
 800204c:	e7e5      	b.n	800201a <I2C_RequestMemoryWrite+0x46>
 800204e:	f1b8 0f01 	cmp.w	r8, #1
 8002052:	6823      	ldr	r3, [r4, #0]
 8002054:	d102      	bne.n	800205c <I2C_RequestMemoryWrite+0x88>
 8002056:	b2ed      	uxtb	r5, r5
 8002058:	611d      	str	r5, [r3, #16]
 800205a:	e7de      	b.n	800201a <I2C_RequestMemoryWrite+0x46>
 800205c:	0a2a      	lsrs	r2, r5, #8
 800205e:	611a      	str	r2, [r3, #16]
 8002060:	990a      	ldr	r1, [sp, #40]	; 0x28
 8002062:	4632      	mov	r2, r6
 8002064:	4620      	mov	r0, r4
 8002066:	f7ff ff8e 	bl	8001f86 <I2C_WaitOnTXEFlagUntilTimeout>
 800206a:	2800      	cmp	r0, #0
 800206c:	d1e5      	bne.n	800203a <I2C_RequestMemoryWrite+0x66>
 800206e:	6823      	ldr	r3, [r4, #0]
 8002070:	e7f1      	b.n	8002056 <I2C_RequestMemoryWrite+0x82>
 8002072:	bf00      	nop
 8002074:	00010002 	.word	0x00010002

08002078 <I2C_RequestMemoryRead>:
 8002078:	e92d 41ff 	stmdb	sp!, {r0, r1, r2, r3, r4, r5, r6, r7, r8, lr}
 800207c:	4698      	mov	r8, r3
 800207e:	6803      	ldr	r3, [r0, #0]
 8002080:	4616      	mov	r6, r2
 8002082:	681a      	ldr	r2, [r3, #0]
 8002084:	9d0b      	ldr	r5, [sp, #44]	; 0x2c
 8002086:	f442 6280 	orr.w	r2, r2, #1024	; 0x400
 800208a:	601a      	str	r2, [r3, #0]
 800208c:	681a      	ldr	r2, [r3, #0]
 800208e:	460f      	mov	r7, r1
 8002090:	f442 7280 	orr.w	r2, r2, #256	; 0x100
 8002094:	601a      	str	r2, [r3, #0]
 8002096:	f04f 1101 	mov.w	r1, #65537	; 0x10001
 800209a:	9500      	str	r5, [sp, #0]
 800209c:	9b0a      	ldr	r3, [sp, #40]	; 0x28
 800209e:	2200      	movs	r2, #0
 80020a0:	4604      	mov	r4, r0
 80020a2:	f7ff ff42 	bl	8001f2a <I2C_WaitOnFlagUntilTimeout>
 80020a6:	b980      	cbnz	r0, 80020ca <I2C_RequestMemoryRead+0x52>
 80020a8:	6823      	ldr	r3, [r4, #0]
 80020aa:	b2ff      	uxtb	r7, r7
 80020ac:	f007 02fe 	and.w	r2, r7, #254	; 0xfe
 80020b0:	611a      	str	r2, [r3, #16]
 80020b2:	492d      	ldr	r1, [pc, #180]	; (8002168 <I2C_RequestMemoryRead+0xf0>)
 80020b4:	462b      	mov	r3, r5
 80020b6:	9a0a      	ldr	r2, [sp, #40]	; 0x28
 80020b8:	4620      	mov	r0, r4
 80020ba:	f7ff fef6 	bl	8001eaa <I2C_WaitOnMasterAddressFlagUntilTimeout>
 80020be:	b140      	cbz	r0, 80020d2 <I2C_RequestMemoryRead+0x5a>
 80020c0:	6c23      	ldr	r3, [r4, #64]	; 0x40
 80020c2:	2b04      	cmp	r3, #4
 80020c4:	d101      	bne.n	80020ca <I2C_RequestMemoryRead+0x52>
 80020c6:	2001      	movs	r0, #1
 80020c8:	e000      	b.n	80020cc <I2C_RequestMemoryRead+0x54>
 80020ca:	2003      	movs	r0, #3
 80020cc:	b004      	add	sp, #16
 80020ce:	e8bd 81f0 	ldmia.w	sp!, {r4, r5, r6, r7, r8, pc}
 80020d2:	6823      	ldr	r3, [r4, #0]
 80020d4:	9003      	str	r0, [sp, #12]
 80020d6:	695a      	ldr	r2, [r3, #20]
 80020d8:	990a      	ldr	r1, [sp, #40]	; 0x28
 80020da:	9203      	str	r2, [sp, #12]
 80020dc:	699b      	ldr	r3, [r3, #24]
 80020de:	462a      	mov	r2, r5
 80020e0:	9303      	str	r3, [sp, #12]
 80020e2:	4620      	mov	r0, r4
 80020e4:	9b03      	ldr	r3, [sp, #12]
 80020e6:	f7ff ff4e 	bl	8001f86 <I2C_WaitOnTXEFlagUntilTimeout>
 80020ea:	b140      	cbz	r0, 80020fe <I2C_RequestMemoryRead+0x86>
 80020ec:	6c23      	ldr	r3, [r4, #64]	; 0x40
 80020ee:	2b04      	cmp	r3, #4
 80020f0:	d1eb      	bne.n	80020ca <I2C_RequestMemoryRead+0x52>
 80020f2:	6822      	ldr	r2, [r4, #0]
 80020f4:	6813      	ldr	r3, [r2, #0]
 80020f6:	f443 7300 	orr.w	r3, r3, #512	; 0x200
 80020fa:	6013      	str	r3, [r2, #0]
 80020fc:	e7e3      	b.n	80020c6 <I2C_RequestMemoryRead+0x4e>
 80020fe:	f1b8 0f01 	cmp.w	r8, #1
 8002102:	6823      	ldr	r3, [r4, #0]
 8002104:	d124      	bne.n	8002150 <I2C_RequestMemoryRead+0xd8>
 8002106:	b2f6      	uxtb	r6, r6
 8002108:	611e      	str	r6, [r3, #16]
 800210a:	462a      	mov	r2, r5
 800210c:	990a      	ldr	r1, [sp, #40]	; 0x28
 800210e:	4620      	mov	r0, r4
 8002110:	f7ff ff39 	bl	8001f86 <I2C_WaitOnTXEFlagUntilTimeout>
 8002114:	4602      	mov	r2, r0
 8002116:	2800      	cmp	r0, #0
 8002118:	d1e8      	bne.n	80020ec <I2C_RequestMemoryRead+0x74>
 800211a:	6821      	ldr	r1, [r4, #0]
 800211c:	4620      	mov	r0, r4
 800211e:	680b      	ldr	r3, [r1, #0]
 8002120:	f443 7380 	orr.w	r3, r3, #256	; 0x100
 8002124:	600b      	str	r3, [r1, #0]
 8002126:	9500      	str	r5, [sp, #0]
 8002128:	9b0a      	ldr	r3, [sp, #40]	; 0x28
 800212a:	f04f 1101 	mov.w	r1, #65537	; 0x10001
 800212e:	f7ff fefc 	bl	8001f2a <I2C_WaitOnFlagUntilTimeout>
 8002132:	2800      	cmp	r0, #0
 8002134:	d1c9      	bne.n	80020ca <I2C_RequestMemoryRead+0x52>
 8002136:	6823      	ldr	r3, [r4, #0]
 8002138:	f047 0701 	orr.w	r7, r7, #1
 800213c:	611f      	str	r7, [r3, #16]
 800213e:	9a0a      	ldr	r2, [sp, #40]	; 0x28
 8002140:	462b      	mov	r3, r5
 8002142:	4909      	ldr	r1, [pc, #36]	; (8002168 <I2C_RequestMemoryRead+0xf0>)
 8002144:	4620      	mov	r0, r4
 8002146:	f7ff feb0 	bl	8001eaa <I2C_WaitOnMasterAddressFlagUntilTimeout>
 800214a:	2800      	cmp	r0, #0
 800214c:	d1b8      	bne.n	80020c0 <I2C_RequestMemoryRead+0x48>
 800214e:	e7bd      	b.n	80020cc <I2C_RequestMemoryRead+0x54>
 8002150:	0a32      	lsrs	r2, r6, #8
 8002152:	611a      	str	r2, [r3, #16]
 8002154:	990a      	ldr	r1, [sp, #40]	; 0x28
 8002156:	462a      	mov	r2, r5
 8002158:	4620      	mov	r0, r4
 800215a:	f7ff ff14 	bl	8001f86 <I2C_WaitOnTXEFlagUntilTimeout>
 800215e:	2800      	cmp	r0, #0
 8002160:	d1c4      	bne.n	80020ec <I2C_RequestMemoryRead+0x74>
 8002162:	6823      	ldr	r3, [r4, #0]
 8002164:	e7cf      	b.n	8002106 <I2C_RequestMemoryRead+0x8e>
 8002166:	bf00      	nop
 8002168:	00010002 	.word	0x00010002

0800216c <I2C_WaitOnRXNEFlagUntilTimeout>:
 800216c:	b570      	push	{r4, r5, r6, lr}
 800216e:	4604      	mov	r4, r0
 8002170:	460d      	mov	r5, r1
 8002172:	4616      	mov	r6, r2
 8002174:	6820      	ldr	r0, [r4, #0]
 8002176:	6943      	ldr	r3, [r0, #20]
 8002178:	f013 0340 	ands.w	r3, r3, #64	; 0x40
 800217c:	d001      	beq.n	8002182 <I2C_WaitOnRXNEFlagUntilTimeout+0x16>
 800217e:	2000      	movs	r0, #0
 8002180:	bd70      	pop	{r4, r5, r6, pc}
 8002182:	6942      	ldr	r2, [r0, #20]
 8002184:	06d2      	lsls	r2, r2, #27
 8002186:	d50b      	bpl.n	80021a0 <I2C_WaitOnRXNEFlagUntilTimeout+0x34>
 8002188:	f06f 0210 	mvn.w	r2, #16
 800218c:	6142      	str	r2, [r0, #20]
 800218e:	2220      	movs	r2, #32
 8002190:	6423      	str	r3, [r4, #64]	; 0x40
 8002192:	f884 303c 	strb.w	r3, [r4, #60]	; 0x3c
 8002196:	6323      	str	r3, [r4, #48]	; 0x30
 8002198:	2001      	movs	r0, #1
 800219a:	f884 203d 	strb.w	r2, [r4, #61]	; 0x3d
 800219e:	bd70      	pop	{r4, r5, r6, pc}
 80021a0:	b95d      	cbnz	r5, 80021ba <I2C_WaitOnRXNEFlagUntilTimeout+0x4e>
 80021a2:	6c23      	ldr	r3, [r4, #64]	; 0x40
 80021a4:	2003      	movs	r0, #3
 80021a6:	f043 0320 	orr.w	r3, r3, #32
 80021aa:	6423      	str	r3, [r4, #64]	; 0x40
 80021ac:	2320      	movs	r3, #32
 80021ae:	f884 303d 	strb.w	r3, [r4, #61]	; 0x3d
 80021b2:	2300      	movs	r3, #0
 80021b4:	f884 303c 	strb.w	r3, [r4, #60]	; 0x3c
 80021b8:	bd70      	pop	{r4, r5, r6, pc}
 80021ba:	f7ff f809 	bl	80011d0 <HAL_GetTick>
 80021be:	1b80      	subs	r0, r0, r6
 80021c0:	4285      	cmp	r5, r0
 80021c2:	d2d7      	bcs.n	8002174 <I2C_WaitOnRXNEFlagUntilTimeout+0x8>
 80021c4:	e7ed      	b.n	80021a2 <I2C_WaitOnRXNEFlagUntilTimeout+0x36>

080021c6 <I2C_WaitOnBTFFlagUntilTimeout>:
 80021c6:	b570      	push	{r4, r5, r6, lr}
 80021c8:	4604      	mov	r4, r0
 80021ca:	460d      	mov	r5, r1
 80021cc:	4616      	mov	r6, r2
 80021ce:	6823      	ldr	r3, [r4, #0]
 80021d0:	695b      	ldr	r3, [r3, #20]
 80021d2:	075b      	lsls	r3, r3, #29
 80021d4:	d501      	bpl.n	80021da <I2C_WaitOnBTFFlagUntilTimeout+0x14>
 80021d6:	2000      	movs	r0, #0
 80021d8:	bd70      	pop	{r4, r5, r6, pc}
 80021da:	4620      	mov	r0, r4
 80021dc:	f7ff fe50 	bl	8001e80 <I2C_IsAcknowledgeFailed>
 80021e0:	b9a8      	cbnz	r0, 800220e <I2C_WaitOnBTFFlagUntilTimeout+0x48>
 80021e2:	1c6a      	adds	r2, r5, #1
 80021e4:	d0f3      	beq.n	80021ce <I2C_WaitOnBTFFlagUntilTimeout+0x8>
 80021e6:	b965      	cbnz	r5, 8002202 <I2C_WaitOnBTFFlagUntilTimeout+0x3c>
 80021e8:	6c23      	ldr	r3, [r4, #64]	; 0x40
 80021ea:	2220      	movs	r2, #32
 80021ec:	f043 0320 	orr.w	r3, r3, #32
 80021f0:	6423      	str	r3, [r4, #64]	; 0x40
 80021f2:	2300      	movs	r3, #0
 80021f4:	2003      	movs	r0, #3
 80021f6:	6323      	str	r3, [r4, #48]	; 0x30
 80021f8:	f884 303c 	strb.w	r3, [r4, #60]	; 0x3c
 80021fc:	f884 203d 	strb.w	r2, [r4, #61]	; 0x3d
 8002200:	bd70      	pop	{r4, r5, r6, pc}
 8002202:	f7fe ffe5 	bl	80011d0 <HAL_GetTick>
 8002206:	1b80      	subs	r0, r0, r6
 8002208:	4285      	cmp	r5, r0
 800220a:	d2e0      	bcs.n	80021ce <I2C_WaitOnBTFFlagUntilTimeout+0x8>
 800220c:	e7ec      	b.n	80021e8 <I2C_WaitOnBTFFlagUntilTimeout+0x22>
 800220e:	2001      	movs	r0, #1
 8002210:	bd70      	pop	{r4, r5, r6, pc}
	...

08002214 <HAL_I2C_Init>:
 8002214:	b538      	push	{r3, r4, r5, lr}
 8002216:	4604      	mov	r4, r0
 8002218:	b908      	cbnz	r0, 800221e <HAL_I2C_Init+0xa>
 800221a:	2001      	movs	r0, #1
 800221c:	bd38      	pop	{r3, r4, r5, pc}
 800221e:	6803      	ldr	r3, [r0, #0]
 8002220:	4a65      	ldr	r2, [pc, #404]	; (80023b8 <HAL_I2C_Init+0x1a4>)
 8002222:	4293      	cmp	r3, r2
 8002224:	d008      	beq.n	8002238 <HAL_I2C_Init+0x24>
 8002226:	f502 6280 	add.w	r2, r2, #1024	; 0x400
 800222a:	4293      	cmp	r3, r2
 800222c:	d004      	beq.n	8002238 <HAL_I2C_Init+0x24>
 800222e:	f240 117d 	movw	r1, #381	; 0x17d
 8002232:	4862      	ldr	r0, [pc, #392]	; (80023bc <HAL_I2C_Init+0x1a8>)
 8002234:	f004 fa64 	bl	8006700 <assert_failed>
 8002238:	6863      	ldr	r3, [r4, #4]
 800223a:	4a61      	ldr	r2, [pc, #388]	; (80023c0 <HAL_I2C_Init+0x1ac>)
 800223c:	3b01      	subs	r3, #1
 800223e:	4293      	cmp	r3, r2
 8002240:	d904      	bls.n	800224c <HAL_I2C_Init+0x38>
 8002242:	f44f 71bf 	mov.w	r1, #382	; 0x17e
 8002246:	485d      	ldr	r0, [pc, #372]	; (80023bc <HAL_I2C_Init+0x1a8>)
 8002248:	f004 fa5a 	bl	8006700 <assert_failed>
 800224c:	68a3      	ldr	r3, [r4, #8]
 800224e:	f433 4380 	bics.w	r3, r3, #16384	; 0x4000
 8002252:	d004      	beq.n	800225e <HAL_I2C_Init+0x4a>
 8002254:	f240 117f 	movw	r1, #383	; 0x17f
 8002258:	4858      	ldr	r0, [pc, #352]	; (80023bc <HAL_I2C_Init+0x1a8>)
 800225a:	f004 fa51 	bl	8006700 <assert_failed>
 800225e:	68e3      	ldr	r3, [r4, #12]
 8002260:	f423 737f 	bic.w	r3, r3, #1020	; 0x3fc
 8002264:	f023 0303 	bic.w	r3, r3, #3
 8002268:	b123      	cbz	r3, 8002274 <HAL_I2C_Init+0x60>
 800226a:	f44f 71c0 	mov.w	r1, #384	; 0x180
 800226e:	4853      	ldr	r0, [pc, #332]	; (80023bc <HAL_I2C_Init+0x1a8>)
 8002270:	f004 fa46 	bl	8006700 <assert_failed>
 8002274:	6923      	ldr	r3, [r4, #16]
 8002276:	f423 4300 	bic.w	r3, r3, #32768	; 0x8000
 800227a:	f5b3 4f80 	cmp.w	r3, #16384	; 0x4000
 800227e:	d004      	beq.n	800228a <HAL_I2C_Init+0x76>
 8002280:	f240 1181 	movw	r1, #385	; 0x181
 8002284:	484d      	ldr	r0, [pc, #308]	; (80023bc <HAL_I2C_Init+0x1a8>)
 8002286:	f004 fa3b 	bl	8006700 <assert_failed>
 800228a:	6963      	ldr	r3, [r4, #20]
 800228c:	2b01      	cmp	r3, #1
 800228e:	d904      	bls.n	800229a <HAL_I2C_Init+0x86>
 8002290:	f44f 71c1 	mov.w	r1, #386	; 0x182
 8002294:	4849      	ldr	r0, [pc, #292]	; (80023bc <HAL_I2C_Init+0x1a8>)
 8002296:	f004 fa33 	bl	8006700 <assert_failed>
 800229a:	69a3      	ldr	r3, [r4, #24]
 800229c:	f033 03fe 	bics.w	r3, r3, #254	; 0xfe
 80022a0:	d004      	beq.n	80022ac <HAL_I2C_Init+0x98>
 80022a2:	f240 1183 	movw	r1, #387	; 0x183
 80022a6:	4845      	ldr	r0, [pc, #276]	; (80023bc <HAL_I2C_Init+0x1a8>)
 80022a8:	f004 fa2a 	bl	8006700 <assert_failed>
 80022ac:	69e3      	ldr	r3, [r4, #28]
 80022ae:	f033 0340 	bics.w	r3, r3, #64	; 0x40
 80022b2:	d004      	beq.n	80022be <HAL_I2C_Init+0xaa>
 80022b4:	f44f 71c2 	mov.w	r1, #388	; 0x184
 80022b8:	4840      	ldr	r0, [pc, #256]	; (80023bc <HAL_I2C_Init+0x1a8>)
 80022ba:	f004 fa21 	bl	8006700 <assert_failed>
 80022be:	6a23      	ldr	r3, [r4, #32]
 80022c0:	f033 0380 	bics.w	r3, r3, #128	; 0x80
 80022c4:	d004      	beq.n	80022d0 <HAL_I2C_Init+0xbc>
 80022c6:	f240 1185 	movw	r1, #389	; 0x185
 80022ca:	483c      	ldr	r0, [pc, #240]	; (80023bc <HAL_I2C_Init+0x1a8>)
 80022cc:	f004 fa18 	bl	8006700 <assert_failed>
 80022d0:	f894 303d 	ldrb.w	r3, [r4, #61]	; 0x3d
 80022d4:	f003 02ff 	and.w	r2, r3, #255	; 0xff
 80022d8:	b923      	cbnz	r3, 80022e4 <HAL_I2C_Init+0xd0>
 80022da:	f884 203c 	strb.w	r2, [r4, #60]	; 0x3c
 80022de:	4620      	mov	r0, r4
 80022e0:	f004 fa86 	bl	80067f0 <HAL_I2C_MspInit>
 80022e4:	2324      	movs	r3, #36	; 0x24
 80022e6:	6822      	ldr	r2, [r4, #0]
 80022e8:	f884 303d 	strb.w	r3, [r4, #61]	; 0x3d
 80022ec:	6813      	ldr	r3, [r2, #0]
 80022ee:	f023 0301 	bic.w	r3, r3, #1
 80022f2:	6013      	str	r3, [r2, #0]
 80022f4:	f000 fe72 	bl	8002fdc <HAL_RCC_GetPCLK1Freq>
 80022f8:	6863      	ldr	r3, [r4, #4]
 80022fa:	4a32      	ldr	r2, [pc, #200]	; (80023c4 <HAL_I2C_Init+0x1b0>)
 80022fc:	4293      	cmp	r3, r2
 80022fe:	d830      	bhi.n	8002362 <HAL_I2C_Init+0x14e>
 8002300:	4a31      	ldr	r2, [pc, #196]	; (80023c8 <HAL_I2C_Init+0x1b4>)
 8002302:	4290      	cmp	r0, r2
 8002304:	d989      	bls.n	800221a <HAL_I2C_Init+0x6>
 8002306:	4a31      	ldr	r2, [pc, #196]	; (80023cc <HAL_I2C_Init+0x1b8>)
 8002308:	6821      	ldr	r1, [r4, #0]
 800230a:	fbb0 f2f2 	udiv	r2, r0, r2
 800230e:	604a      	str	r2, [r1, #4]
 8002310:	3201      	adds	r2, #1
 8002312:	620a      	str	r2, [r1, #32]
 8002314:	4a2b      	ldr	r2, [pc, #172]	; (80023c4 <HAL_I2C_Init+0x1b0>)
 8002316:	3801      	subs	r0, #1
 8002318:	4293      	cmp	r3, r2
 800231a:	d833      	bhi.n	8002384 <HAL_I2C_Init+0x170>
 800231c:	005b      	lsls	r3, r3, #1
 800231e:	fbb0 f0f3 	udiv	r0, r0, r3
 8002322:	1c43      	adds	r3, r0, #1
 8002324:	f3c3 030b 	ubfx	r3, r3, #0, #12
 8002328:	2b04      	cmp	r3, #4
 800232a:	bf38      	it	cc
 800232c:	2304      	movcc	r3, #4
 800232e:	61cb      	str	r3, [r1, #28]
 8002330:	6a22      	ldr	r2, [r4, #32]
 8002332:	69e3      	ldr	r3, [r4, #28]
 8002334:	2000      	movs	r0, #0
 8002336:	4313      	orrs	r3, r2
 8002338:	600b      	str	r3, [r1, #0]
 800233a:	68e2      	ldr	r2, [r4, #12]
 800233c:	6923      	ldr	r3, [r4, #16]
 800233e:	4313      	orrs	r3, r2
 8002340:	608b      	str	r3, [r1, #8]
 8002342:	69a2      	ldr	r2, [r4, #24]
 8002344:	6963      	ldr	r3, [r4, #20]
 8002346:	4313      	orrs	r3, r2
 8002348:	60cb      	str	r3, [r1, #12]
 800234a:	680b      	ldr	r3, [r1, #0]
 800234c:	f043 0301 	orr.w	r3, r3, #1
 8002350:	600b      	str	r3, [r1, #0]
 8002352:	2320      	movs	r3, #32
 8002354:	6420      	str	r0, [r4, #64]	; 0x40
 8002356:	f884 303d 	strb.w	r3, [r4, #61]	; 0x3d
 800235a:	6320      	str	r0, [r4, #48]	; 0x30
 800235c:	f884 003e 	strb.w	r0, [r4, #62]	; 0x3e
 8002360:	bd38      	pop	{r3, r4, r5, pc}
 8002362:	4a1b      	ldr	r2, [pc, #108]	; (80023d0 <HAL_I2C_Init+0x1bc>)
 8002364:	4290      	cmp	r0, r2
 8002366:	f67f af58 	bls.w	800221a <HAL_I2C_Init+0x6>
 800236a:	4d18      	ldr	r5, [pc, #96]	; (80023cc <HAL_I2C_Init+0x1b8>)
 800236c:	f44f 7296 	mov.w	r2, #300	; 0x12c
 8002370:	fbb0 f5f5 	udiv	r5, r0, r5
 8002374:	6821      	ldr	r1, [r4, #0]
 8002376:	436a      	muls	r2, r5
 8002378:	604d      	str	r5, [r1, #4]
 800237a:	f44f 757a 	mov.w	r5, #1000	; 0x3e8
 800237e:	fbb2 f2f5 	udiv	r2, r2, r5
 8002382:	e7c5      	b.n	8002310 <HAL_I2C_Init+0xfc>
 8002384:	68a2      	ldr	r2, [r4, #8]
 8002386:	b952      	cbnz	r2, 800239e <HAL_I2C_Init+0x18a>
 8002388:	eb03 0343 	add.w	r3, r3, r3, lsl #1
 800238c:	fbb0 f0f3 	udiv	r0, r0, r3
 8002390:	1c43      	adds	r3, r0, #1
 8002392:	f3c3 030b 	ubfx	r3, r3, #0, #12
 8002396:	b16b      	cbz	r3, 80023b4 <HAL_I2C_Init+0x1a0>
 8002398:	f443 4300 	orr.w	r3, r3, #32768	; 0x8000
 800239c:	e7c7      	b.n	800232e <HAL_I2C_Init+0x11a>
 800239e:	2219      	movs	r2, #25
 80023a0:	4353      	muls	r3, r2
 80023a2:	fbb0 f0f3 	udiv	r0, r0, r3
 80023a6:	1c43      	adds	r3, r0, #1
 80023a8:	f3c3 030b 	ubfx	r3, r3, #0, #12
 80023ac:	b113      	cbz	r3, 80023b4 <HAL_I2C_Init+0x1a0>
 80023ae:	f443 4340 	orr.w	r3, r3, #49152	; 0xc000
 80023b2:	e7bc      	b.n	800232e <HAL_I2C_Init+0x11a>
 80023b4:	2301      	movs	r3, #1
 80023b6:	e7ba      	b.n	800232e <HAL_I2C_Init+0x11a>
 80023b8:	40005400 	.word	0x40005400
 80023bc:	08007d37 	.word	0x08007d37
 80023c0:	00061a7f 	.word	0x00061a7f
 80023c4:	000186a0 	.word	0x000186a0
 80023c8:	001e847f 	.word	0x001e847f
 80023cc:	000f4240 	.word	0x000f4240
 80023d0:	003d08ff 	.word	0x003d08ff

080023d4 <HAL_I2C_Master_Transmit>:
 80023d4:	e92d 41ff 	stmdb	sp!, {r0, r1, r2, r3, r4, r5, r6, r7, r8, lr}
 80023d8:	4604      	mov	r4, r0
 80023da:	461f      	mov	r7, r3
 80023dc:	460d      	mov	r5, r1
 80023de:	4690      	mov	r8, r2
 80023e0:	f7fe fef6 	bl	80011d0 <HAL_GetTick>
 80023e4:	f894 303d 	ldrb.w	r3, [r4, #61]	; 0x3d
 80023e8:	4606      	mov	r6, r0
 80023ea:	2b20      	cmp	r3, #32
 80023ec:	d004      	beq.n	80023f8 <HAL_I2C_Master_Transmit+0x24>
 80023ee:	2502      	movs	r5, #2
 80023f0:	4628      	mov	r0, r5
 80023f2:	b004      	add	sp, #16
 80023f4:	e8bd 81f0 	ldmia.w	sp!, {r4, r5, r6, r7, r8, pc}
 80023f8:	9000      	str	r0, [sp, #0]
 80023fa:	2319      	movs	r3, #25
 80023fc:	2201      	movs	r2, #1
 80023fe:	495d      	ldr	r1, [pc, #372]	; (8002574 <HAL_I2C_Master_Transmit+0x1a0>)
 8002400:	4620      	mov	r0, r4
 8002402:	f7ff fd92 	bl	8001f2a <I2C_WaitOnFlagUntilTimeout>
 8002406:	2800      	cmp	r0, #0
 8002408:	d1f1      	bne.n	80023ee <HAL_I2C_Master_Transmit+0x1a>
 800240a:	f894 303c 	ldrb.w	r3, [r4, #60]	; 0x3c
 800240e:	2b01      	cmp	r3, #1
 8002410:	d0ed      	beq.n	80023ee <HAL_I2C_Master_Transmit+0x1a>
 8002412:	2301      	movs	r3, #1
 8002414:	f884 303c 	strb.w	r3, [r4, #60]	; 0x3c
 8002418:	6823      	ldr	r3, [r4, #0]
 800241a:	681a      	ldr	r2, [r3, #0]
 800241c:	07d2      	lsls	r2, r2, #31
 800241e:	bf5e      	ittt	pl
 8002420:	681a      	ldrpl	r2, [r3, #0]
 8002422:	f042 0201 	orrpl.w	r2, r2, #1
 8002426:	601a      	strpl	r2, [r3, #0]
 8002428:	681a      	ldr	r2, [r3, #0]
 800242a:	f422 6200 	bic.w	r2, r2, #2048	; 0x800
 800242e:	601a      	str	r2, [r3, #0]
 8002430:	2221      	movs	r2, #33	; 0x21
 8002432:	f884 203d 	strb.w	r2, [r4, #61]	; 0x3d
 8002436:	2210      	movs	r2, #16
 8002438:	f884 203e 	strb.w	r2, [r4, #62]	; 0x3e
 800243c:	2200      	movs	r2, #0
 800243e:	6422      	str	r2, [r4, #64]	; 0x40
 8002440:	f5a2 3280 	sub.w	r2, r2, #65536	; 0x10000
 8002444:	8567      	strh	r7, [r4, #42]	; 0x2a
 8002446:	62e2      	str	r2, [r4, #44]	; 0x2c
 8002448:	8d62      	ldrh	r2, [r4, #42]	; 0x2a
 800244a:	f8c4 8024 	str.w	r8, [r4, #36]	; 0x24
 800244e:	8522      	strh	r2, [r4, #40]	; 0x28
 8002450:	6ae2      	ldr	r2, [r4, #44]	; 0x2c
 8002452:	2a04      	cmp	r2, #4
 8002454:	d004      	beq.n	8002460 <HAL_I2C_Master_Transmit+0x8c>
 8002456:	2a01      	cmp	r2, #1
 8002458:	d002      	beq.n	8002460 <HAL_I2C_Master_Transmit+0x8c>
 800245a:	f512 3f80 	cmn.w	r2, #65536	; 0x10000
 800245e:	d104      	bne.n	800246a <HAL_I2C_Master_Transmit+0x96>
 8002460:	681a      	ldr	r2, [r3, #0]
 8002462:	f442 7280 	orr.w	r2, r2, #256	; 0x100
 8002466:	601a      	str	r2, [r3, #0]
 8002468:	e002      	b.n	8002470 <HAL_I2C_Master_Transmit+0x9c>
 800246a:	6b22      	ldr	r2, [r4, #48]	; 0x30
 800246c:	2a12      	cmp	r2, #18
 800246e:	d0f7      	beq.n	8002460 <HAL_I2C_Master_Transmit+0x8c>
 8002470:	9600      	str	r6, [sp, #0]
 8002472:	9b0a      	ldr	r3, [sp, #40]	; 0x28
 8002474:	2200      	movs	r2, #0
 8002476:	f04f 1101 	mov.w	r1, #65537	; 0x10001
 800247a:	4620      	mov	r0, r4
 800247c:	f7ff fd55 	bl	8001f2a <I2C_WaitOnFlagUntilTimeout>
 8002480:	bb28      	cbnz	r0, 80024ce <HAL_I2C_Master_Transmit+0xfa>
 8002482:	6923      	ldr	r3, [r4, #16]
 8002484:	6822      	ldr	r2, [r4, #0]
 8002486:	f5b3 4f80 	cmp.w	r3, #16384	; 0x4000
 800248a:	d112      	bne.n	80024b2 <HAL_I2C_Master_Transmit+0xde>
 800248c:	f005 05fe 	and.w	r5, r5, #254	; 0xfe
 8002490:	6115      	str	r5, [r2, #16]
 8002492:	4633      	mov	r3, r6
 8002494:	9a0a      	ldr	r2, [sp, #40]	; 0x28
 8002496:	4938      	ldr	r1, [pc, #224]	; (8002578 <HAL_I2C_Master_Transmit+0x1a4>)
 8002498:	4620      	mov	r0, r4
 800249a:	f7ff fd06 	bl	8001eaa <I2C_WaitOnMasterAddressFlagUntilTimeout>
 800249e:	4605      	mov	r5, r0
 80024a0:	b9a0      	cbnz	r0, 80024cc <HAL_I2C_Master_Transmit+0xf8>
 80024a2:	6823      	ldr	r3, [r4, #0]
 80024a4:	9003      	str	r0, [sp, #12]
 80024a6:	695a      	ldr	r2, [r3, #20]
 80024a8:	9203      	str	r2, [sp, #12]
 80024aa:	699b      	ldr	r3, [r3, #24]
 80024ac:	9303      	str	r3, [sp, #12]
 80024ae:	9b03      	ldr	r3, [sp, #12]
 80024b0:	e050      	b.n	8002554 <HAL_I2C_Master_Transmit+0x180>
 80024b2:	11eb      	asrs	r3, r5, #7
 80024b4:	f003 0306 	and.w	r3, r3, #6
 80024b8:	f043 03f0 	orr.w	r3, r3, #240	; 0xf0
 80024bc:	6113      	str	r3, [r2, #16]
 80024be:	492f      	ldr	r1, [pc, #188]	; (800257c <HAL_I2C_Master_Transmit+0x1a8>)
 80024c0:	4633      	mov	r3, r6
 80024c2:	9a0a      	ldr	r2, [sp, #40]	; 0x28
 80024c4:	4620      	mov	r0, r4
 80024c6:	f7ff fcf0 	bl	8001eaa <I2C_WaitOnMasterAddressFlagUntilTimeout>
 80024ca:	b148      	cbz	r0, 80024e0 <HAL_I2C_Master_Transmit+0x10c>
 80024cc:	6c23      	ldr	r3, [r4, #64]	; 0x40
 80024ce:	6c23      	ldr	r3, [r4, #64]	; 0x40
 80024d0:	2b04      	cmp	r3, #4
 80024d2:	f04f 0300 	mov.w	r3, #0
 80024d6:	d107      	bne.n	80024e8 <HAL_I2C_Master_Transmit+0x114>
 80024d8:	f884 303c 	strb.w	r3, [r4, #60]	; 0x3c
 80024dc:	2501      	movs	r5, #1
 80024de:	e787      	b.n	80023f0 <HAL_I2C_Master_Transmit+0x1c>
 80024e0:	6823      	ldr	r3, [r4, #0]
 80024e2:	b2ed      	uxtb	r5, r5
 80024e4:	611d      	str	r5, [r3, #16]
 80024e6:	e7d4      	b.n	8002492 <HAL_I2C_Master_Transmit+0xbe>
 80024e8:	f884 303c 	strb.w	r3, [r4, #60]	; 0x3c
 80024ec:	2503      	movs	r5, #3
 80024ee:	e77f      	b.n	80023f0 <HAL_I2C_Master_Transmit+0x1c>
 80024f0:	4632      	mov	r2, r6
 80024f2:	990a      	ldr	r1, [sp, #40]	; 0x28
 80024f4:	4620      	mov	r0, r4
 80024f6:	f7ff fd46 	bl	8001f86 <I2C_WaitOnTXEFlagUntilTimeout>
 80024fa:	b140      	cbz	r0, 800250e <HAL_I2C_Master_Transmit+0x13a>
 80024fc:	6c23      	ldr	r3, [r4, #64]	; 0x40
 80024fe:	2b04      	cmp	r3, #4
 8002500:	d1f4      	bne.n	80024ec <HAL_I2C_Master_Transmit+0x118>
 8002502:	6822      	ldr	r2, [r4, #0]
 8002504:	6813      	ldr	r3, [r2, #0]
 8002506:	f443 7300 	orr.w	r3, r3, #512	; 0x200
 800250a:	6013      	str	r3, [r2, #0]
 800250c:	e7e6      	b.n	80024dc <HAL_I2C_Master_Transmit+0x108>
 800250e:	6a61      	ldr	r1, [r4, #36]	; 0x24
 8002510:	6820      	ldr	r0, [r4, #0]
 8002512:	1c4b      	adds	r3, r1, #1
 8002514:	6263      	str	r3, [r4, #36]	; 0x24
 8002516:	780b      	ldrb	r3, [r1, #0]
 8002518:	8d22      	ldrh	r2, [r4, #40]	; 0x28
 800251a:	6103      	str	r3, [r0, #16]
 800251c:	8d63      	ldrh	r3, [r4, #42]	; 0x2a
 800251e:	3b01      	subs	r3, #1
 8002520:	b29b      	uxth	r3, r3
 8002522:	8563      	strh	r3, [r4, #42]	; 0x2a
 8002524:	6947      	ldr	r7, [r0, #20]
 8002526:	1e53      	subs	r3, r2, #1
 8002528:	b29b      	uxth	r3, r3
 800252a:	077f      	lsls	r7, r7, #29
 800252c:	8523      	strh	r3, [r4, #40]	; 0x28
 800252e:	d50a      	bpl.n	8002546 <HAL_I2C_Master_Transmit+0x172>
 8002530:	b14b      	cbz	r3, 8002546 <HAL_I2C_Master_Transmit+0x172>
 8002532:	1c8b      	adds	r3, r1, #2
 8002534:	6263      	str	r3, [r4, #36]	; 0x24
 8002536:	784b      	ldrb	r3, [r1, #1]
 8002538:	3a02      	subs	r2, #2
 800253a:	6103      	str	r3, [r0, #16]
 800253c:	8d63      	ldrh	r3, [r4, #42]	; 0x2a
 800253e:	8522      	strh	r2, [r4, #40]	; 0x28
 8002540:	3b01      	subs	r3, #1
 8002542:	b29b      	uxth	r3, r3
 8002544:	8563      	strh	r3, [r4, #42]	; 0x2a
 8002546:	4632      	mov	r2, r6
 8002548:	990a      	ldr	r1, [sp, #40]	; 0x28
 800254a:	4620      	mov	r0, r4
 800254c:	f7ff fe3b 	bl	80021c6 <I2C_WaitOnBTFFlagUntilTimeout>
 8002550:	2800      	cmp	r0, #0
 8002552:	d1d3      	bne.n	80024fc <HAL_I2C_Master_Transmit+0x128>
 8002554:	8d23      	ldrh	r3, [r4, #40]	; 0x28
 8002556:	2b00      	cmp	r3, #0
 8002558:	d1ca      	bne.n	80024f0 <HAL_I2C_Master_Transmit+0x11c>
 800255a:	6821      	ldr	r1, [r4, #0]
 800255c:	680a      	ldr	r2, [r1, #0]
 800255e:	f442 7200 	orr.w	r2, r2, #512	; 0x200
 8002562:	600a      	str	r2, [r1, #0]
 8002564:	2220      	movs	r2, #32
 8002566:	f884 303c 	strb.w	r3, [r4, #60]	; 0x3c
 800256a:	f884 203d 	strb.w	r2, [r4, #61]	; 0x3d
 800256e:	f884 303e 	strb.w	r3, [r4, #62]	; 0x3e
 8002572:	e73d      	b.n	80023f0 <HAL_I2C_Master_Transmit+0x1c>
 8002574:	00100002 	.word	0x00100002
 8002578:	00010002 	.word	0x00010002
 800257c:	00010008 	.word	0x00010008

08002580 <HAL_I2C_Mem_Write>:
 8002580:	e92d 47f3 	stmdb	sp!, {r0, r1, r4, r5, r6, r7, r8, r9, sl, lr}
 8002584:	4698      	mov	r8, r3
 8002586:	4604      	mov	r4, r0
 8002588:	4689      	mov	r9, r1
 800258a:	4692      	mov	sl, r2
 800258c:	9e0c      	ldr	r6, [sp, #48]	; 0x30
 800258e:	f7fe fe1f 	bl	80011d0 <HAL_GetTick>
 8002592:	f1b8 0f01 	cmp.w	r8, #1
 8002596:	4605      	mov	r5, r0
 8002598:	d007      	beq.n	80025aa <HAL_I2C_Mem_Write+0x2a>
 800259a:	f1b8 0f10 	cmp.w	r8, #16
 800259e:	d004      	beq.n	80025aa <HAL_I2C_Mem_Write+0x2a>
 80025a0:	f640 1195 	movw	r1, #2453	; 0x995
 80025a4:	4845      	ldr	r0, [pc, #276]	; (80026bc <HAL_I2C_Mem_Write+0x13c>)
 80025a6:	f004 f8ab 	bl	8006700 <assert_failed>
 80025aa:	f894 303d 	ldrb.w	r3, [r4, #61]	; 0x3d
 80025ae:	2b20      	cmp	r3, #32
 80025b0:	d003      	beq.n	80025ba <HAL_I2C_Mem_Write+0x3a>
 80025b2:	2002      	movs	r0, #2
 80025b4:	b002      	add	sp, #8
 80025b6:	e8bd 87f0 	ldmia.w	sp!, {r4, r5, r6, r7, r8, r9, sl, pc}
 80025ba:	9500      	str	r5, [sp, #0]
 80025bc:	2319      	movs	r3, #25
 80025be:	2201      	movs	r2, #1
 80025c0:	493f      	ldr	r1, [pc, #252]	; (80026c0 <HAL_I2C_Mem_Write+0x140>)
 80025c2:	4620      	mov	r0, r4
 80025c4:	f7ff fcb1 	bl	8001f2a <I2C_WaitOnFlagUntilTimeout>
 80025c8:	2800      	cmp	r0, #0
 80025ca:	d1f2      	bne.n	80025b2 <HAL_I2C_Mem_Write+0x32>
 80025cc:	f894 303c 	ldrb.w	r3, [r4, #60]	; 0x3c
 80025d0:	2b01      	cmp	r3, #1
 80025d2:	d0ee      	beq.n	80025b2 <HAL_I2C_Mem_Write+0x32>
 80025d4:	2301      	movs	r3, #1
 80025d6:	f884 303c 	strb.w	r3, [r4, #60]	; 0x3c
 80025da:	6823      	ldr	r3, [r4, #0]
 80025dc:	2700      	movs	r7, #0
 80025de:	681a      	ldr	r2, [r3, #0]
 80025e0:	4649      	mov	r1, r9
 80025e2:	07d2      	lsls	r2, r2, #31
 80025e4:	bf58      	it	pl
 80025e6:	681a      	ldrpl	r2, [r3, #0]
 80025e8:	4620      	mov	r0, r4
 80025ea:	bf5c      	itt	pl
 80025ec:	f042 0201 	orrpl.w	r2, r2, #1
 80025f0:	601a      	strpl	r2, [r3, #0]
 80025f2:	681a      	ldr	r2, [r3, #0]
 80025f4:	f422 6200 	bic.w	r2, r2, #2048	; 0x800
 80025f8:	601a      	str	r2, [r3, #0]
 80025fa:	2321      	movs	r3, #33	; 0x21
 80025fc:	f884 303d 	strb.w	r3, [r4, #61]	; 0x3d
 8002600:	2340      	movs	r3, #64	; 0x40
 8002602:	f884 303e 	strb.w	r3, [r4, #62]	; 0x3e
 8002606:	9b0a      	ldr	r3, [sp, #40]	; 0x28
 8002608:	6427      	str	r7, [r4, #64]	; 0x40
 800260a:	6263      	str	r3, [r4, #36]	; 0x24
 800260c:	f8bd 302c 	ldrh.w	r3, [sp, #44]	; 0x2c
 8002610:	9501      	str	r5, [sp, #4]
 8002612:	8563      	strh	r3, [r4, #42]	; 0x2a
 8002614:	4b2b      	ldr	r3, [pc, #172]	; (80026c4 <HAL_I2C_Mem_Write+0x144>)
 8002616:	9600      	str	r6, [sp, #0]
 8002618:	62e3      	str	r3, [r4, #44]	; 0x2c
 800261a:	8d63      	ldrh	r3, [r4, #42]	; 0x2a
 800261c:	4652      	mov	r2, sl
 800261e:	8523      	strh	r3, [r4, #40]	; 0x28
 8002620:	4643      	mov	r3, r8
 8002622:	f7ff fcd7 	bl	8001fd4 <I2C_RequestMemoryWrite>
 8002626:	2800      	cmp	r0, #0
 8002628:	d02a      	beq.n	8002680 <HAL_I2C_Mem_Write+0x100>
 800262a:	6c23      	ldr	r3, [r4, #64]	; 0x40
 800262c:	f884 703c 	strb.w	r7, [r4, #60]	; 0x3c
 8002630:	2b04      	cmp	r3, #4
 8002632:	d107      	bne.n	8002644 <HAL_I2C_Mem_Write+0xc4>
 8002634:	2001      	movs	r0, #1
 8002636:	e7bd      	b.n	80025b4 <HAL_I2C_Mem_Write+0x34>
 8002638:	f7ff fca5 	bl	8001f86 <I2C_WaitOnTXEFlagUntilTimeout>
 800263c:	b120      	cbz	r0, 8002648 <HAL_I2C_Mem_Write+0xc8>
 800263e:	6c23      	ldr	r3, [r4, #64]	; 0x40
 8002640:	2b04      	cmp	r3, #4
 8002642:	d034      	beq.n	80026ae <HAL_I2C_Mem_Write+0x12e>
 8002644:	2003      	movs	r0, #3
 8002646:	e7b5      	b.n	80025b4 <HAL_I2C_Mem_Write+0x34>
 8002648:	6a61      	ldr	r1, [r4, #36]	; 0x24
 800264a:	6827      	ldr	r7, [r4, #0]
 800264c:	1c4b      	adds	r3, r1, #1
 800264e:	6263      	str	r3, [r4, #36]	; 0x24
 8002650:	780b      	ldrb	r3, [r1, #0]
 8002652:	8d22      	ldrh	r2, [r4, #40]	; 0x28
 8002654:	613b      	str	r3, [r7, #16]
 8002656:	8d63      	ldrh	r3, [r4, #42]	; 0x2a
 8002658:	1e50      	subs	r0, r2, #1
 800265a:	3b01      	subs	r3, #1
 800265c:	b29b      	uxth	r3, r3
 800265e:	8563      	strh	r3, [r4, #42]	; 0x2a
 8002660:	697b      	ldr	r3, [r7, #20]
 8002662:	b280      	uxth	r0, r0
 8002664:	075b      	lsls	r3, r3, #29
 8002666:	8520      	strh	r0, [r4, #40]	; 0x28
 8002668:	d50a      	bpl.n	8002680 <HAL_I2C_Mem_Write+0x100>
 800266a:	b148      	cbz	r0, 8002680 <HAL_I2C_Mem_Write+0x100>
 800266c:	1c8b      	adds	r3, r1, #2
 800266e:	6263      	str	r3, [r4, #36]	; 0x24
 8002670:	784b      	ldrb	r3, [r1, #1]
 8002672:	3a02      	subs	r2, #2
 8002674:	613b      	str	r3, [r7, #16]
 8002676:	8d63      	ldrh	r3, [r4, #42]	; 0x2a
 8002678:	8522      	strh	r2, [r4, #40]	; 0x28
 800267a:	3b01      	subs	r3, #1
 800267c:	b29b      	uxth	r3, r3
 800267e:	8563      	strh	r3, [r4, #42]	; 0x2a
 8002680:	8d23      	ldrh	r3, [r4, #40]	; 0x28
 8002682:	462a      	mov	r2, r5
 8002684:	4631      	mov	r1, r6
 8002686:	4620      	mov	r0, r4
 8002688:	2b00      	cmp	r3, #0
 800268a:	d1d5      	bne.n	8002638 <HAL_I2C_Mem_Write+0xb8>
 800268c:	f7ff fd9b 	bl	80021c6 <I2C_WaitOnBTFFlagUntilTimeout>
 8002690:	2800      	cmp	r0, #0
 8002692:	d1d4      	bne.n	800263e <HAL_I2C_Mem_Write+0xbe>
 8002694:	6822      	ldr	r2, [r4, #0]
 8002696:	6813      	ldr	r3, [r2, #0]
 8002698:	f443 7300 	orr.w	r3, r3, #512	; 0x200
 800269c:	6013      	str	r3, [r2, #0]
 800269e:	2320      	movs	r3, #32
 80026a0:	f884 003c 	strb.w	r0, [r4, #60]	; 0x3c
 80026a4:	f884 303d 	strb.w	r3, [r4, #61]	; 0x3d
 80026a8:	f884 003e 	strb.w	r0, [r4, #62]	; 0x3e
 80026ac:	e782      	b.n	80025b4 <HAL_I2C_Mem_Write+0x34>
 80026ae:	6822      	ldr	r2, [r4, #0]
 80026b0:	6813      	ldr	r3, [r2, #0]
 80026b2:	f443 7300 	orr.w	r3, r3, #512	; 0x200
 80026b6:	6013      	str	r3, [r2, #0]
 80026b8:	e7bc      	b.n	8002634 <HAL_I2C_Mem_Write+0xb4>
 80026ba:	bf00      	nop
 80026bc:	08007d37 	.word	0x08007d37
 80026c0:	00100002 	.word	0x00100002
 80026c4:	ffff0000 	.word	0xffff0000

080026c8 <HAL_I2C_Mem_Read>:
 80026c8:	e92d 47f0 	stmdb	sp!, {r4, r5, r6, r7, r8, r9, sl, lr}
 80026cc:	461d      	mov	r5, r3
 80026ce:	b086      	sub	sp, #24
 80026d0:	4604      	mov	r4, r0
 80026d2:	4689      	mov	r9, r1
 80026d4:	4692      	mov	sl, r2
 80026d6:	9f10      	ldr	r7, [sp, #64]	; 0x40
 80026d8:	f7fe fd7a 	bl	80011d0 <HAL_GetTick>
 80026dc:	2d01      	cmp	r5, #1
 80026de:	4606      	mov	r6, r0
 80026e0:	d006      	beq.n	80026f0 <HAL_I2C_Mem_Read+0x28>
 80026e2:	2d10      	cmp	r5, #16
 80026e4:	d004      	beq.n	80026f0 <HAL_I2C_Mem_Read+0x28>
 80026e6:	f640 211b 	movw	r1, #2587	; 0xa1b
 80026ea:	4889      	ldr	r0, [pc, #548]	; (8002910 <HAL_I2C_Mem_Read+0x248>)
 80026ec:	f004 f808 	bl	8006700 <assert_failed>
 80026f0:	f894 303d 	ldrb.w	r3, [r4, #61]	; 0x3d
 80026f4:	2b20      	cmp	r3, #32
 80026f6:	d004      	beq.n	8002702 <HAL_I2C_Mem_Read+0x3a>
 80026f8:	2502      	movs	r5, #2
 80026fa:	4628      	mov	r0, r5
 80026fc:	b006      	add	sp, #24
 80026fe:	e8bd 87f0 	ldmia.w	sp!, {r4, r5, r6, r7, r8, r9, sl, pc}
 8002702:	9600      	str	r6, [sp, #0]
 8002704:	2319      	movs	r3, #25
 8002706:	2201      	movs	r2, #1
 8002708:	4982      	ldr	r1, [pc, #520]	; (8002914 <HAL_I2C_Mem_Read+0x24c>)
 800270a:	4620      	mov	r0, r4
 800270c:	f7ff fc0d 	bl	8001f2a <I2C_WaitOnFlagUntilTimeout>
 8002710:	2800      	cmp	r0, #0
 8002712:	d1f1      	bne.n	80026f8 <HAL_I2C_Mem_Read+0x30>
 8002714:	f894 303c 	ldrb.w	r3, [r4, #60]	; 0x3c
 8002718:	2b01      	cmp	r3, #1
 800271a:	d0ed      	beq.n	80026f8 <HAL_I2C_Mem_Read+0x30>
 800271c:	2301      	movs	r3, #1
 800271e:	f884 303c 	strb.w	r3, [r4, #60]	; 0x3c
 8002722:	6823      	ldr	r3, [r4, #0]
 8002724:	f04f 0800 	mov.w	r8, #0
 8002728:	681a      	ldr	r2, [r3, #0]
 800272a:	4649      	mov	r1, r9
 800272c:	07d2      	lsls	r2, r2, #31
 800272e:	bf58      	it	pl
 8002730:	681a      	ldrpl	r2, [r3, #0]
 8002732:	4620      	mov	r0, r4
 8002734:	bf5c      	itt	pl
 8002736:	f042 0201 	orrpl.w	r2, r2, #1
 800273a:	601a      	strpl	r2, [r3, #0]
 800273c:	681a      	ldr	r2, [r3, #0]
 800273e:	f422 6200 	bic.w	r2, r2, #2048	; 0x800
 8002742:	601a      	str	r2, [r3, #0]
 8002744:	2322      	movs	r3, #34	; 0x22
 8002746:	f884 303d 	strb.w	r3, [r4, #61]	; 0x3d
 800274a:	2340      	movs	r3, #64	; 0x40
 800274c:	f884 303e 	strb.w	r3, [r4, #62]	; 0x3e
 8002750:	9b0e      	ldr	r3, [sp, #56]	; 0x38
 8002752:	f8c4 8040 	str.w	r8, [r4, #64]	; 0x40
 8002756:	6263      	str	r3, [r4, #36]	; 0x24
 8002758:	f8bd 303c 	ldrh.w	r3, [sp, #60]	; 0x3c
 800275c:	9601      	str	r6, [sp, #4]
 800275e:	8563      	strh	r3, [r4, #42]	; 0x2a
 8002760:	4b6d      	ldr	r3, [pc, #436]	; (8002918 <HAL_I2C_Mem_Read+0x250>)
 8002762:	9700      	str	r7, [sp, #0]
 8002764:	62e3      	str	r3, [r4, #44]	; 0x2c
 8002766:	8d63      	ldrh	r3, [r4, #42]	; 0x2a
 8002768:	4652      	mov	r2, sl
 800276a:	8523      	strh	r3, [r4, #40]	; 0x28
 800276c:	462b      	mov	r3, r5
 800276e:	f7ff fc83 	bl	8002078 <I2C_RequestMemoryRead>
 8002772:	4605      	mov	r5, r0
 8002774:	b130      	cbz	r0, 8002784 <HAL_I2C_Mem_Read+0xbc>
 8002776:	6c23      	ldr	r3, [r4, #64]	; 0x40
 8002778:	f884 803c 	strb.w	r8, [r4, #60]	; 0x3c
 800277c:	2b04      	cmp	r3, #4
 800277e:	d13d      	bne.n	80027fc <HAL_I2C_Mem_Read+0x134>
 8002780:	2501      	movs	r5, #1
 8002782:	e7ba      	b.n	80026fa <HAL_I2C_Mem_Read+0x32>
 8002784:	8d22      	ldrh	r2, [r4, #40]	; 0x28
 8002786:	6823      	ldr	r3, [r4, #0]
 8002788:	b992      	cbnz	r2, 80027b0 <HAL_I2C_Mem_Read+0xe8>
 800278a:	9002      	str	r0, [sp, #8]
 800278c:	695a      	ldr	r2, [r3, #20]
 800278e:	9202      	str	r2, [sp, #8]
 8002790:	699a      	ldr	r2, [r3, #24]
 8002792:	9202      	str	r2, [sp, #8]
 8002794:	9a02      	ldr	r2, [sp, #8]
 8002796:	681a      	ldr	r2, [r3, #0]
 8002798:	f442 7200 	orr.w	r2, r2, #512	; 0x200
 800279c:	601a      	str	r2, [r3, #0]
 800279e:	2320      	movs	r3, #32
 80027a0:	f884 303d 	strb.w	r3, [r4, #61]	; 0x3d
 80027a4:	2300      	movs	r3, #0
 80027a6:	f884 303e 	strb.w	r3, [r4, #62]	; 0x3e
 80027aa:	f884 303c 	strb.w	r3, [r4, #60]	; 0x3c
 80027ae:	e7a4      	b.n	80026fa <HAL_I2C_Mem_Read+0x32>
 80027b0:	2a01      	cmp	r2, #1
 80027b2:	d125      	bne.n	8002800 <HAL_I2C_Mem_Read+0x138>
 80027b4:	681a      	ldr	r2, [r3, #0]
 80027b6:	f422 6280 	bic.w	r2, r2, #1024	; 0x400
 80027ba:	601a      	str	r2, [r3, #0]
 80027bc:	b672      	cpsid	i
 80027be:	6823      	ldr	r3, [r4, #0]
 80027c0:	9003      	str	r0, [sp, #12]
 80027c2:	695a      	ldr	r2, [r3, #20]
 80027c4:	9203      	str	r2, [sp, #12]
 80027c6:	699a      	ldr	r2, [r3, #24]
 80027c8:	9203      	str	r2, [sp, #12]
 80027ca:	9a03      	ldr	r2, [sp, #12]
 80027cc:	681a      	ldr	r2, [r3, #0]
 80027ce:	f442 7200 	orr.w	r2, r2, #512	; 0x200
 80027d2:	601a      	str	r2, [r3, #0]
 80027d4:	b662      	cpsie	i
 80027d6:	f8df 8144 	ldr.w	r8, [pc, #324]	; 800291c <HAL_I2C_Mem_Read+0x254>
 80027da:	8d23      	ldrh	r3, [r4, #40]	; 0x28
 80027dc:	2b00      	cmp	r3, #0
 80027de:	d0de      	beq.n	800279e <HAL_I2C_Mem_Read+0xd6>
 80027e0:	2b03      	cmp	r3, #3
 80027e2:	d877      	bhi.n	80028d4 <HAL_I2C_Mem_Read+0x20c>
 80027e4:	2b01      	cmp	r3, #1
 80027e6:	d127      	bne.n	8002838 <HAL_I2C_Mem_Read+0x170>
 80027e8:	4632      	mov	r2, r6
 80027ea:	4639      	mov	r1, r7
 80027ec:	4620      	mov	r0, r4
 80027ee:	f7ff fcbd 	bl	800216c <I2C_WaitOnRXNEFlagUntilTimeout>
 80027f2:	2800      	cmp	r0, #0
 80027f4:	d03f      	beq.n	8002876 <HAL_I2C_Mem_Read+0x1ae>
 80027f6:	6c23      	ldr	r3, [r4, #64]	; 0x40
 80027f8:	2b20      	cmp	r3, #32
 80027fa:	d1c1      	bne.n	8002780 <HAL_I2C_Mem_Read+0xb8>
 80027fc:	2503      	movs	r5, #3
 80027fe:	e77c      	b.n	80026fa <HAL_I2C_Mem_Read+0x32>
 8002800:	2a02      	cmp	r2, #2
 8002802:	681a      	ldr	r2, [r3, #0]
 8002804:	d10e      	bne.n	8002824 <HAL_I2C_Mem_Read+0x15c>
 8002806:	f442 6200 	orr.w	r2, r2, #2048	; 0x800
 800280a:	601a      	str	r2, [r3, #0]
 800280c:	b672      	cpsid	i
 800280e:	6823      	ldr	r3, [r4, #0]
 8002810:	9004      	str	r0, [sp, #16]
 8002812:	695a      	ldr	r2, [r3, #20]
 8002814:	9204      	str	r2, [sp, #16]
 8002816:	699a      	ldr	r2, [r3, #24]
 8002818:	9204      	str	r2, [sp, #16]
 800281a:	9a04      	ldr	r2, [sp, #16]
 800281c:	681a      	ldr	r2, [r3, #0]
 800281e:	f422 6280 	bic.w	r2, r2, #1024	; 0x400
 8002822:	e7d6      	b.n	80027d2 <HAL_I2C_Mem_Read+0x10a>
 8002824:	f442 6280 	orr.w	r2, r2, #1024	; 0x400
 8002828:	601a      	str	r2, [r3, #0]
 800282a:	9005      	str	r0, [sp, #20]
 800282c:	695a      	ldr	r2, [r3, #20]
 800282e:	9205      	str	r2, [sp, #20]
 8002830:	699b      	ldr	r3, [r3, #24]
 8002832:	9305      	str	r3, [sp, #20]
 8002834:	9b05      	ldr	r3, [sp, #20]
 8002836:	e7ce      	b.n	80027d6 <HAL_I2C_Mem_Read+0x10e>
 8002838:	2b02      	cmp	r3, #2
 800283a:	9600      	str	r6, [sp, #0]
 800283c:	463b      	mov	r3, r7
 800283e:	f04f 0200 	mov.w	r2, #0
 8002842:	4641      	mov	r1, r8
 8002844:	4620      	mov	r0, r4
 8002846:	d124      	bne.n	8002892 <HAL_I2C_Mem_Read+0x1ca>
 8002848:	f7ff fb6f 	bl	8001f2a <I2C_WaitOnFlagUntilTimeout>
 800284c:	2800      	cmp	r0, #0
 800284e:	d1d5      	bne.n	80027fc <HAL_I2C_Mem_Read+0x134>
 8002850:	b672      	cpsid	i
 8002852:	6823      	ldr	r3, [r4, #0]
 8002854:	681a      	ldr	r2, [r3, #0]
 8002856:	f442 7200 	orr.w	r2, r2, #512	; 0x200
 800285a:	601a      	str	r2, [r3, #0]
 800285c:	6a62      	ldr	r2, [r4, #36]	; 0x24
 800285e:	691b      	ldr	r3, [r3, #16]
 8002860:	1c51      	adds	r1, r2, #1
 8002862:	6261      	str	r1, [r4, #36]	; 0x24
 8002864:	7013      	strb	r3, [r2, #0]
 8002866:	8d23      	ldrh	r3, [r4, #40]	; 0x28
 8002868:	3b01      	subs	r3, #1
 800286a:	8523      	strh	r3, [r4, #40]	; 0x28
 800286c:	8d63      	ldrh	r3, [r4, #42]	; 0x2a
 800286e:	3b01      	subs	r3, #1
 8002870:	b29b      	uxth	r3, r3
 8002872:	8563      	strh	r3, [r4, #42]	; 0x2a
 8002874:	b662      	cpsie	i
 8002876:	6a63      	ldr	r3, [r4, #36]	; 0x24
 8002878:	1c5a      	adds	r2, r3, #1
 800287a:	6262      	str	r2, [r4, #36]	; 0x24
 800287c:	6822      	ldr	r2, [r4, #0]
 800287e:	6912      	ldr	r2, [r2, #16]
 8002880:	701a      	strb	r2, [r3, #0]
 8002882:	8d23      	ldrh	r3, [r4, #40]	; 0x28
 8002884:	3b01      	subs	r3, #1
 8002886:	8523      	strh	r3, [r4, #40]	; 0x28
 8002888:	8d63      	ldrh	r3, [r4, #42]	; 0x2a
 800288a:	3b01      	subs	r3, #1
 800288c:	b29b      	uxth	r3, r3
 800288e:	8563      	strh	r3, [r4, #42]	; 0x2a
 8002890:	e7a3      	b.n	80027da <HAL_I2C_Mem_Read+0x112>
 8002892:	f7ff fb4a 	bl	8001f2a <I2C_WaitOnFlagUntilTimeout>
 8002896:	4602      	mov	r2, r0
 8002898:	2800      	cmp	r0, #0
 800289a:	d1af      	bne.n	80027fc <HAL_I2C_Mem_Read+0x134>
 800289c:	6821      	ldr	r1, [r4, #0]
 800289e:	680b      	ldr	r3, [r1, #0]
 80028a0:	f423 6380 	bic.w	r3, r3, #1024	; 0x400
 80028a4:	600b      	str	r3, [r1, #0]
 80028a6:	b672      	cpsid	i
 80028a8:	6a63      	ldr	r3, [r4, #36]	; 0x24
 80028aa:	4620      	mov	r0, r4
 80028ac:	1c59      	adds	r1, r3, #1
 80028ae:	6261      	str	r1, [r4, #36]	; 0x24
 80028b0:	6821      	ldr	r1, [r4, #0]
 80028b2:	6909      	ldr	r1, [r1, #16]
 80028b4:	7019      	strb	r1, [r3, #0]
 80028b6:	8d23      	ldrh	r3, [r4, #40]	; 0x28
 80028b8:	9600      	str	r6, [sp, #0]
 80028ba:	3b01      	subs	r3, #1
 80028bc:	8523      	strh	r3, [r4, #40]	; 0x28
 80028be:	8d63      	ldrh	r3, [r4, #42]	; 0x2a
 80028c0:	4641      	mov	r1, r8
 80028c2:	3b01      	subs	r3, #1
 80028c4:	b29b      	uxth	r3, r3
 80028c6:	8563      	strh	r3, [r4, #42]	; 0x2a
 80028c8:	463b      	mov	r3, r7
 80028ca:	f7ff fb2e 	bl	8001f2a <I2C_WaitOnFlagUntilTimeout>
 80028ce:	2800      	cmp	r0, #0
 80028d0:	d0bf      	beq.n	8002852 <HAL_I2C_Mem_Read+0x18a>
 80028d2:	e793      	b.n	80027fc <HAL_I2C_Mem_Read+0x134>
 80028d4:	4632      	mov	r2, r6
 80028d6:	4639      	mov	r1, r7
 80028d8:	4620      	mov	r0, r4
 80028da:	f7ff fc47 	bl	800216c <I2C_WaitOnRXNEFlagUntilTimeout>
 80028de:	2800      	cmp	r0, #0
 80028e0:	d189      	bne.n	80027f6 <HAL_I2C_Mem_Read+0x12e>
 80028e2:	6a63      	ldr	r3, [r4, #36]	; 0x24
 80028e4:	1c5a      	adds	r2, r3, #1
 80028e6:	6262      	str	r2, [r4, #36]	; 0x24
 80028e8:	6822      	ldr	r2, [r4, #0]
 80028ea:	6912      	ldr	r2, [r2, #16]
 80028ec:	701a      	strb	r2, [r3, #0]
 80028ee:	8d23      	ldrh	r3, [r4, #40]	; 0x28
 80028f0:	6822      	ldr	r2, [r4, #0]
 80028f2:	3b01      	subs	r3, #1
 80028f4:	8523      	strh	r3, [r4, #40]	; 0x28
 80028f6:	8d63      	ldrh	r3, [r4, #42]	; 0x2a
 80028f8:	3b01      	subs	r3, #1
 80028fa:	b29b      	uxth	r3, r3
 80028fc:	8563      	strh	r3, [r4, #42]	; 0x2a
 80028fe:	6953      	ldr	r3, [r2, #20]
 8002900:	075b      	lsls	r3, r3, #29
 8002902:	f57f af6a 	bpl.w	80027da <HAL_I2C_Mem_Read+0x112>
 8002906:	6a63      	ldr	r3, [r4, #36]	; 0x24
 8002908:	1c59      	adds	r1, r3, #1
 800290a:	6261      	str	r1, [r4, #36]	; 0x24
 800290c:	e7b7      	b.n	800287e <HAL_I2C_Mem_Read+0x1b6>
 800290e:	bf00      	nop
 8002910:	08007d37 	.word	0x08007d37
 8002914:	00100002 	.word	0x00100002
 8002918:	ffff0000 	.word	0xffff0000
 800291c:	00010004 	.word	0x00010004

08002920 <HAL_I2C_GetState>:
 8002920:	f890 003d 	ldrb.w	r0, [r0, #61]	; 0x3d
 8002924:	4770      	bx	lr
	...

08002928 <HAL_PWR_EnableBkUpAccess>:
 8002928:	2201      	movs	r2, #1
 800292a:	4b01      	ldr	r3, [pc, #4]	; (8002930 <HAL_PWR_EnableBkUpAccess+0x8>)
 800292c:	601a      	str	r2, [r3, #0]
 800292e:	4770      	bx	lr
 8002930:	420e0020 	.word	0x420e0020

08002934 <HAL_RCC_OscConfig>:
 8002934:	e92d 41f3 	stmdb	sp!, {r0, r1, r4, r5, r6, r7, r8, lr}
 8002938:	4604      	mov	r4, r0
 800293a:	b920      	cbnz	r0, 8002946 <HAL_RCC_OscConfig+0x12>
 800293c:	f44f 71b8 	mov.w	r1, #368	; 0x170
 8002940:	48a5      	ldr	r0, [pc, #660]	; (8002bd8 <HAL_RCC_OscConfig+0x2a4>)
 8002942:	f003 fedd 	bl	8006700 <assert_failed>
 8002946:	6823      	ldr	r3, [r4, #0]
 8002948:	b133      	cbz	r3, 8002958 <HAL_RCC_OscConfig+0x24>
 800294a:	071a      	lsls	r2, r3, #28
 800294c:	d104      	bne.n	8002958 <HAL_RCC_OscConfig+0x24>
 800294e:	f240 1171 	movw	r1, #369	; 0x171
 8002952:	48a1      	ldr	r0, [pc, #644]	; (8002bd8 <HAL_RCC_OscConfig+0x2a4>)
 8002954:	f003 fed4 	bl	8006700 <assert_failed>
 8002958:	6823      	ldr	r3, [r4, #0]
 800295a:	07db      	lsls	r3, r3, #31
 800295c:	d418      	bmi.n	8002990 <HAL_RCC_OscConfig+0x5c>
 800295e:	6823      	ldr	r3, [r4, #0]
 8002960:	079f      	lsls	r7, r3, #30
 8002962:	d472      	bmi.n	8002a4a <HAL_RCC_OscConfig+0x116>
 8002964:	6823      	ldr	r3, [r4, #0]
 8002966:	0719      	lsls	r1, r3, #28
 8002968:	f100 80b9 	bmi.w	8002ade <HAL_RCC_OscConfig+0x1aa>
 800296c:	6823      	ldr	r3, [r4, #0]
 800296e:	075a      	lsls	r2, r3, #29
 8002970:	f100 80eb 	bmi.w	8002b4a <HAL_RCC_OscConfig+0x216>
 8002974:	69e3      	ldr	r3, [r4, #28]
 8002976:	2b02      	cmp	r3, #2
 8002978:	d904      	bls.n	8002984 <HAL_RCC_OscConfig+0x50>
 800297a:	f240 21b9 	movw	r1, #697	; 0x2b9
 800297e:	4896      	ldr	r0, [pc, #600]	; (8002bd8 <HAL_RCC_OscConfig+0x2a4>)
 8002980:	f003 febe 	bl	8006700 <assert_failed>
 8002984:	69e2      	ldr	r2, [r4, #28]
 8002986:	2a00      	cmp	r2, #0
 8002988:	f040 815e 	bne.w	8002c48 <HAL_RCC_OscConfig+0x314>
 800298c:	2000      	movs	r0, #0
 800298e:	e020      	b.n	80029d2 <HAL_RCC_OscConfig+0x9e>
 8002990:	6863      	ldr	r3, [r4, #4]
 8002992:	f433 3280 	bics.w	r2, r3, #65536	; 0x10000
 8002996:	d007      	beq.n	80029a8 <HAL_RCC_OscConfig+0x74>
 8002998:	f5b3 2fa0 	cmp.w	r3, #327680	; 0x50000
 800299c:	d004      	beq.n	80029a8 <HAL_RCC_OscConfig+0x74>
 800299e:	f240 1177 	movw	r1, #375	; 0x177
 80029a2:	488d      	ldr	r0, [pc, #564]	; (8002bd8 <HAL_RCC_OscConfig+0x2a4>)
 80029a4:	f003 feac 	bl	8006700 <assert_failed>
 80029a8:	4d8c      	ldr	r5, [pc, #560]	; (8002bdc <HAL_RCC_OscConfig+0x2a8>)
 80029aa:	686b      	ldr	r3, [r5, #4]
 80029ac:	f003 030c 	and.w	r3, r3, #12
 80029b0:	2b04      	cmp	r3, #4
 80029b2:	d007      	beq.n	80029c4 <HAL_RCC_OscConfig+0x90>
 80029b4:	686b      	ldr	r3, [r5, #4]
 80029b6:	f003 030c 	and.w	r3, r3, #12
 80029ba:	2b08      	cmp	r3, #8
 80029bc:	d10c      	bne.n	80029d8 <HAL_RCC_OscConfig+0xa4>
 80029be:	686b      	ldr	r3, [r5, #4]
 80029c0:	03de      	lsls	r6, r3, #15
 80029c2:	d509      	bpl.n	80029d8 <HAL_RCC_OscConfig+0xa4>
 80029c4:	682b      	ldr	r3, [r5, #0]
 80029c6:	039d      	lsls	r5, r3, #14
 80029c8:	d5c9      	bpl.n	800295e <HAL_RCC_OscConfig+0x2a>
 80029ca:	6863      	ldr	r3, [r4, #4]
 80029cc:	2b00      	cmp	r3, #0
 80029ce:	d1c6      	bne.n	800295e <HAL_RCC_OscConfig+0x2a>
 80029d0:	2001      	movs	r0, #1
 80029d2:	b002      	add	sp, #8
 80029d4:	e8bd 81f0 	ldmia.w	sp!, {r4, r5, r6, r7, r8, pc}
 80029d8:	6863      	ldr	r3, [r4, #4]
 80029da:	f5b3 3f80 	cmp.w	r3, #65536	; 0x10000
 80029de:	d110      	bne.n	8002a02 <HAL_RCC_OscConfig+0xce>
 80029e0:	682b      	ldr	r3, [r5, #0]
 80029e2:	f443 3380 	orr.w	r3, r3, #65536	; 0x10000
 80029e6:	602b      	str	r3, [r5, #0]
 80029e8:	f7fe fbf2 	bl	80011d0 <HAL_GetTick>
 80029ec:	4606      	mov	r6, r0
 80029ee:	682b      	ldr	r3, [r5, #0]
 80029f0:	0398      	lsls	r0, r3, #14
 80029f2:	d4b4      	bmi.n	800295e <HAL_RCC_OscConfig+0x2a>
 80029f4:	f7fe fbec 	bl	80011d0 <HAL_GetTick>
 80029f8:	1b80      	subs	r0, r0, r6
 80029fa:	2864      	cmp	r0, #100	; 0x64
 80029fc:	d9f7      	bls.n	80029ee <HAL_RCC_OscConfig+0xba>
 80029fe:	2003      	movs	r0, #3
 8002a00:	e7e7      	b.n	80029d2 <HAL_RCC_OscConfig+0x9e>
 8002a02:	b99b      	cbnz	r3, 8002a2c <HAL_RCC_OscConfig+0xf8>
 8002a04:	682b      	ldr	r3, [r5, #0]
 8002a06:	f423 3380 	bic.w	r3, r3, #65536	; 0x10000
 8002a0a:	602b      	str	r3, [r5, #0]
 8002a0c:	682b      	ldr	r3, [r5, #0]
 8002a0e:	f423 2380 	bic.w	r3, r3, #262144	; 0x40000
 8002a12:	602b      	str	r3, [r5, #0]
 8002a14:	f7fe fbdc 	bl	80011d0 <HAL_GetTick>
 8002a18:	4606      	mov	r6, r0
 8002a1a:	682b      	ldr	r3, [r5, #0]
 8002a1c:	0399      	lsls	r1, r3, #14
 8002a1e:	d59e      	bpl.n	800295e <HAL_RCC_OscConfig+0x2a>
 8002a20:	f7fe fbd6 	bl	80011d0 <HAL_GetTick>
 8002a24:	1b80      	subs	r0, r0, r6
 8002a26:	2864      	cmp	r0, #100	; 0x64
 8002a28:	d9f7      	bls.n	8002a1a <HAL_RCC_OscConfig+0xe6>
 8002a2a:	e7e8      	b.n	80029fe <HAL_RCC_OscConfig+0xca>
 8002a2c:	f5b3 2fa0 	cmp.w	r3, #327680	; 0x50000
 8002a30:	682b      	ldr	r3, [r5, #0]
 8002a32:	d103      	bne.n	8002a3c <HAL_RCC_OscConfig+0x108>
 8002a34:	f443 2380 	orr.w	r3, r3, #262144	; 0x40000
 8002a38:	602b      	str	r3, [r5, #0]
 8002a3a:	e7d1      	b.n	80029e0 <HAL_RCC_OscConfig+0xac>
 8002a3c:	f423 3380 	bic.w	r3, r3, #65536	; 0x10000
 8002a40:	602b      	str	r3, [r5, #0]
 8002a42:	682b      	ldr	r3, [r5, #0]
 8002a44:	f423 2380 	bic.w	r3, r3, #262144	; 0x40000
 8002a48:	e7cd      	b.n	80029e6 <HAL_RCC_OscConfig+0xb2>
 8002a4a:	6923      	ldr	r3, [r4, #16]
 8002a4c:	2b01      	cmp	r3, #1
 8002a4e:	d904      	bls.n	8002a5a <HAL_RCC_OscConfig+0x126>
 8002a50:	f240 11ab 	movw	r1, #427	; 0x1ab
 8002a54:	4860      	ldr	r0, [pc, #384]	; (8002bd8 <HAL_RCC_OscConfig+0x2a4>)
 8002a56:	f003 fe53 	bl	8006700 <assert_failed>
 8002a5a:	6963      	ldr	r3, [r4, #20]
 8002a5c:	2b1f      	cmp	r3, #31
 8002a5e:	d904      	bls.n	8002a6a <HAL_RCC_OscConfig+0x136>
 8002a60:	f44f 71d6 	mov.w	r1, #428	; 0x1ac
 8002a64:	485c      	ldr	r0, [pc, #368]	; (8002bd8 <HAL_RCC_OscConfig+0x2a4>)
 8002a66:	f003 fe4b 	bl	8006700 <assert_failed>
 8002a6a:	4d5c      	ldr	r5, [pc, #368]	; (8002bdc <HAL_RCC_OscConfig+0x2a8>)
 8002a6c:	686b      	ldr	r3, [r5, #4]
 8002a6e:	f013 0f0c 	tst.w	r3, #12
 8002a72:	d007      	beq.n	8002a84 <HAL_RCC_OscConfig+0x150>
 8002a74:	686b      	ldr	r3, [r5, #4]
 8002a76:	f003 030c 	and.w	r3, r3, #12
 8002a7a:	2b08      	cmp	r3, #8
 8002a7c:	d110      	bne.n	8002aa0 <HAL_RCC_OscConfig+0x16c>
 8002a7e:	686b      	ldr	r3, [r5, #4]
 8002a80:	03da      	lsls	r2, r3, #15
 8002a82:	d40d      	bmi.n	8002aa0 <HAL_RCC_OscConfig+0x16c>
 8002a84:	682b      	ldr	r3, [r5, #0]
 8002a86:	079b      	lsls	r3, r3, #30
 8002a88:	d502      	bpl.n	8002a90 <HAL_RCC_OscConfig+0x15c>
 8002a8a:	6923      	ldr	r3, [r4, #16]
 8002a8c:	2b01      	cmp	r3, #1
 8002a8e:	d19f      	bne.n	80029d0 <HAL_RCC_OscConfig+0x9c>
 8002a90:	682b      	ldr	r3, [r5, #0]
 8002a92:	6962      	ldr	r2, [r4, #20]
 8002a94:	f023 03f8 	bic.w	r3, r3, #248	; 0xf8
 8002a98:	ea43 03c2 	orr.w	r3, r3, r2, lsl #3
 8002a9c:	602b      	str	r3, [r5, #0]
 8002a9e:	e761      	b.n	8002964 <HAL_RCC_OscConfig+0x30>
 8002aa0:	6922      	ldr	r2, [r4, #16]
 8002aa2:	4b4f      	ldr	r3, [pc, #316]	; (8002be0 <HAL_RCC_OscConfig+0x2ac>)
 8002aa4:	b16a      	cbz	r2, 8002ac2 <HAL_RCC_OscConfig+0x18e>
 8002aa6:	2201      	movs	r2, #1
 8002aa8:	601a      	str	r2, [r3, #0]
 8002aaa:	f7fe fb91 	bl	80011d0 <HAL_GetTick>
 8002aae:	4606      	mov	r6, r0
 8002ab0:	682b      	ldr	r3, [r5, #0]
 8002ab2:	079f      	lsls	r7, r3, #30
 8002ab4:	d4ec      	bmi.n	8002a90 <HAL_RCC_OscConfig+0x15c>
 8002ab6:	f7fe fb8b 	bl	80011d0 <HAL_GetTick>
 8002aba:	1b80      	subs	r0, r0, r6
 8002abc:	2802      	cmp	r0, #2
 8002abe:	d9f7      	bls.n	8002ab0 <HAL_RCC_OscConfig+0x17c>
 8002ac0:	e79d      	b.n	80029fe <HAL_RCC_OscConfig+0xca>
 8002ac2:	601a      	str	r2, [r3, #0]
 8002ac4:	f7fe fb84 	bl	80011d0 <HAL_GetTick>
 8002ac8:	4606      	mov	r6, r0
 8002aca:	682b      	ldr	r3, [r5, #0]
 8002acc:	0798      	lsls	r0, r3, #30
 8002ace:	f57f af49 	bpl.w	8002964 <HAL_RCC_OscConfig+0x30>
 8002ad2:	f7fe fb7d 	bl	80011d0 <HAL_GetTick>
 8002ad6:	1b80      	subs	r0, r0, r6
 8002ad8:	2802      	cmp	r0, #2
 8002ada:	d9f6      	bls.n	8002aca <HAL_RCC_OscConfig+0x196>
 8002adc:	e78f      	b.n	80029fe <HAL_RCC_OscConfig+0xca>
 8002ade:	69a3      	ldr	r3, [r4, #24]
 8002ae0:	2b01      	cmp	r3, #1
 8002ae2:	d904      	bls.n	8002aee <HAL_RCC_OscConfig+0x1ba>
 8002ae4:	f44f 71f6 	mov.w	r1, #492	; 0x1ec
 8002ae8:	483b      	ldr	r0, [pc, #236]	; (8002bd8 <HAL_RCC_OscConfig+0x2a4>)
 8002aea:	f003 fe09 	bl	8006700 <assert_failed>
 8002aee:	69a2      	ldr	r2, [r4, #24]
 8002af0:	4d3a      	ldr	r5, [pc, #232]	; (8002bdc <HAL_RCC_OscConfig+0x2a8>)
 8002af2:	4b3c      	ldr	r3, [pc, #240]	; (8002be4 <HAL_RCC_OscConfig+0x2b0>)
 8002af4:	b1da      	cbz	r2, 8002b2e <HAL_RCC_OscConfig+0x1fa>
 8002af6:	2201      	movs	r2, #1
 8002af8:	601a      	str	r2, [r3, #0]
 8002afa:	f7fe fb69 	bl	80011d0 <HAL_GetTick>
 8002afe:	4606      	mov	r6, r0
 8002b00:	6a6b      	ldr	r3, [r5, #36]	; 0x24
 8002b02:	079b      	lsls	r3, r3, #30
 8002b04:	d50d      	bpl.n	8002b22 <HAL_RCC_OscConfig+0x1ee>
 8002b06:	f44f 52fa 	mov.w	r2, #8000	; 0x1f40
 8002b0a:	4b37      	ldr	r3, [pc, #220]	; (8002be8 <HAL_RCC_OscConfig+0x2b4>)
 8002b0c:	681b      	ldr	r3, [r3, #0]
 8002b0e:	fbb3 f3f2 	udiv	r3, r3, r2
 8002b12:	9301      	str	r3, [sp, #4]
 8002b14:	bf00      	nop
 8002b16:	9b01      	ldr	r3, [sp, #4]
 8002b18:	1e5a      	subs	r2, r3, #1
 8002b1a:	9201      	str	r2, [sp, #4]
 8002b1c:	2b00      	cmp	r3, #0
 8002b1e:	d1f9      	bne.n	8002b14 <HAL_RCC_OscConfig+0x1e0>
 8002b20:	e724      	b.n	800296c <HAL_RCC_OscConfig+0x38>
 8002b22:	f7fe fb55 	bl	80011d0 <HAL_GetTick>
 8002b26:	1b80      	subs	r0, r0, r6
 8002b28:	2802      	cmp	r0, #2
 8002b2a:	d9e9      	bls.n	8002b00 <HAL_RCC_OscConfig+0x1cc>
 8002b2c:	e767      	b.n	80029fe <HAL_RCC_OscConfig+0xca>
 8002b2e:	601a      	str	r2, [r3, #0]
 8002b30:	f7fe fb4e 	bl	80011d0 <HAL_GetTick>
 8002b34:	4606      	mov	r6, r0
 8002b36:	6a6b      	ldr	r3, [r5, #36]	; 0x24
 8002b38:	079f      	lsls	r7, r3, #30
 8002b3a:	f57f af17 	bpl.w	800296c <HAL_RCC_OscConfig+0x38>
 8002b3e:	f7fe fb47 	bl	80011d0 <HAL_GetTick>
 8002b42:	1b80      	subs	r0, r0, r6
 8002b44:	2802      	cmp	r0, #2
 8002b46:	d9f6      	bls.n	8002b36 <HAL_RCC_OscConfig+0x202>
 8002b48:	e759      	b.n	80029fe <HAL_RCC_OscConfig+0xca>
 8002b4a:	68e3      	ldr	r3, [r4, #12]
 8002b4c:	2b01      	cmp	r3, #1
 8002b4e:	d906      	bls.n	8002b5e <HAL_RCC_OscConfig+0x22a>
 8002b50:	2b05      	cmp	r3, #5
 8002b52:	d004      	beq.n	8002b5e <HAL_RCC_OscConfig+0x22a>
 8002b54:	f240 211b 	movw	r1, #539	; 0x21b
 8002b58:	481f      	ldr	r0, [pc, #124]	; (8002bd8 <HAL_RCC_OscConfig+0x2a4>)
 8002b5a:	f003 fdd1 	bl	8006700 <assert_failed>
 8002b5e:	4d1f      	ldr	r5, [pc, #124]	; (8002bdc <HAL_RCC_OscConfig+0x2a8>)
 8002b60:	69eb      	ldr	r3, [r5, #28]
 8002b62:	00d8      	lsls	r0, r3, #3
 8002b64:	d424      	bmi.n	8002bb0 <HAL_RCC_OscConfig+0x27c>
 8002b66:	2701      	movs	r7, #1
 8002b68:	69eb      	ldr	r3, [r5, #28]
 8002b6a:	f043 5380 	orr.w	r3, r3, #268435456	; 0x10000000
 8002b6e:	61eb      	str	r3, [r5, #28]
 8002b70:	69eb      	ldr	r3, [r5, #28]
 8002b72:	f003 5380 	and.w	r3, r3, #268435456	; 0x10000000
 8002b76:	9300      	str	r3, [sp, #0]
 8002b78:	9b00      	ldr	r3, [sp, #0]
 8002b7a:	4e1c      	ldr	r6, [pc, #112]	; (8002bec <HAL_RCC_OscConfig+0x2b8>)
 8002b7c:	6833      	ldr	r3, [r6, #0]
 8002b7e:	05d9      	lsls	r1, r3, #23
 8002b80:	d518      	bpl.n	8002bb4 <HAL_RCC_OscConfig+0x280>
 8002b82:	68e3      	ldr	r3, [r4, #12]
 8002b84:	2b01      	cmp	r3, #1
 8002b86:	d133      	bne.n	8002bf0 <HAL_RCC_OscConfig+0x2bc>
 8002b88:	6a2b      	ldr	r3, [r5, #32]
 8002b8a:	f043 0301 	orr.w	r3, r3, #1
 8002b8e:	622b      	str	r3, [r5, #32]
 8002b90:	f7fe fb1e 	bl	80011d0 <HAL_GetTick>
 8002b94:	f241 3688 	movw	r6, #5000	; 0x1388
 8002b98:	4680      	mov	r8, r0
 8002b9a:	6a2b      	ldr	r3, [r5, #32]
 8002b9c:	079b      	lsls	r3, r3, #30
 8002b9e:	d54c      	bpl.n	8002c3a <HAL_RCC_OscConfig+0x306>
 8002ba0:	2f00      	cmp	r7, #0
 8002ba2:	f43f aee7 	beq.w	8002974 <HAL_RCC_OscConfig+0x40>
 8002ba6:	69eb      	ldr	r3, [r5, #28]
 8002ba8:	f023 5380 	bic.w	r3, r3, #268435456	; 0x10000000
 8002bac:	61eb      	str	r3, [r5, #28]
 8002bae:	e6e1      	b.n	8002974 <HAL_RCC_OscConfig+0x40>
 8002bb0:	2700      	movs	r7, #0
 8002bb2:	e7e2      	b.n	8002b7a <HAL_RCC_OscConfig+0x246>
 8002bb4:	6833      	ldr	r3, [r6, #0]
 8002bb6:	f443 7380 	orr.w	r3, r3, #256	; 0x100
 8002bba:	6033      	str	r3, [r6, #0]
 8002bbc:	f7fe fb08 	bl	80011d0 <HAL_GetTick>
 8002bc0:	4680      	mov	r8, r0
 8002bc2:	6833      	ldr	r3, [r6, #0]
 8002bc4:	05da      	lsls	r2, r3, #23
 8002bc6:	d4dc      	bmi.n	8002b82 <HAL_RCC_OscConfig+0x24e>
 8002bc8:	f7fe fb02 	bl	80011d0 <HAL_GetTick>
 8002bcc:	eba0 0008 	sub.w	r0, r0, r8
 8002bd0:	2864      	cmp	r0, #100	; 0x64
 8002bd2:	d9f6      	bls.n	8002bc2 <HAL_RCC_OscConfig+0x28e>
 8002bd4:	e713      	b.n	80029fe <HAL_RCC_OscConfig+0xca>
 8002bd6:	bf00      	nop
 8002bd8:	08007d6f 	.word	0x08007d6f
 8002bdc:	40021000 	.word	0x40021000
 8002be0:	42420000 	.word	0x42420000
 8002be4:	42420480 	.word	0x42420480
 8002be8:	2000000c 	.word	0x2000000c
 8002bec:	40007000 	.word	0x40007000
 8002bf0:	b9ab      	cbnz	r3, 8002c1e <HAL_RCC_OscConfig+0x2ea>
 8002bf2:	6a2b      	ldr	r3, [r5, #32]
 8002bf4:	f241 3888 	movw	r8, #5000	; 0x1388
 8002bf8:	f023 0301 	bic.w	r3, r3, #1
 8002bfc:	622b      	str	r3, [r5, #32]
 8002bfe:	6a2b      	ldr	r3, [r5, #32]
 8002c00:	f023 0304 	bic.w	r3, r3, #4
 8002c04:	622b      	str	r3, [r5, #32]
 8002c06:	f7fe fae3 	bl	80011d0 <HAL_GetTick>
 8002c0a:	4606      	mov	r6, r0
 8002c0c:	6a2b      	ldr	r3, [r5, #32]
 8002c0e:	0798      	lsls	r0, r3, #30
 8002c10:	d5c6      	bpl.n	8002ba0 <HAL_RCC_OscConfig+0x26c>
 8002c12:	f7fe fadd 	bl	80011d0 <HAL_GetTick>
 8002c16:	1b80      	subs	r0, r0, r6
 8002c18:	4540      	cmp	r0, r8
 8002c1a:	d9f7      	bls.n	8002c0c <HAL_RCC_OscConfig+0x2d8>
 8002c1c:	e6ef      	b.n	80029fe <HAL_RCC_OscConfig+0xca>
 8002c1e:	2b05      	cmp	r3, #5
 8002c20:	6a2b      	ldr	r3, [r5, #32]
 8002c22:	d103      	bne.n	8002c2c <HAL_RCC_OscConfig+0x2f8>
 8002c24:	f043 0304 	orr.w	r3, r3, #4
 8002c28:	622b      	str	r3, [r5, #32]
 8002c2a:	e7ad      	b.n	8002b88 <HAL_RCC_OscConfig+0x254>
 8002c2c:	f023 0301 	bic.w	r3, r3, #1
 8002c30:	622b      	str	r3, [r5, #32]
 8002c32:	6a2b      	ldr	r3, [r5, #32]
 8002c34:	f023 0304 	bic.w	r3, r3, #4
 8002c38:	e7a9      	b.n	8002b8e <HAL_RCC_OscConfig+0x25a>
 8002c3a:	f7fe fac9 	bl	80011d0 <HAL_GetTick>
 8002c3e:	eba0 0008 	sub.w	r0, r0, r8
 8002c42:	42b0      	cmp	r0, r6
 8002c44:	d9a9      	bls.n	8002b9a <HAL_RCC_OscConfig+0x266>
 8002c46:	e6da      	b.n	80029fe <HAL_RCC_OscConfig+0xca>
 8002c48:	4d38      	ldr	r5, [pc, #224]	; (8002d2c <HAL_RCC_OscConfig+0x3f8>)
 8002c4a:	686b      	ldr	r3, [r5, #4]
 8002c4c:	f003 030c 	and.w	r3, r3, #12
 8002c50:	2b08      	cmp	r3, #8
 8002c52:	f43f aebd 	beq.w	80029d0 <HAL_RCC_OscConfig+0x9c>
 8002c56:	2a02      	cmp	r2, #2
 8002c58:	4e35      	ldr	r6, [pc, #212]	; (8002d30 <HAL_RCC_OscConfig+0x3fc>)
 8002c5a:	d157      	bne.n	8002d0c <HAL_RCC_OscConfig+0x3d8>
 8002c5c:	6a23      	ldr	r3, [r4, #32]
 8002c5e:	f433 3380 	bics.w	r3, r3, #65536	; 0x10000
 8002c62:	d004      	beq.n	8002c6e <HAL_RCC_OscConfig+0x33a>
 8002c64:	f240 21c2 	movw	r1, #706	; 0x2c2
 8002c68:	4832      	ldr	r0, [pc, #200]	; (8002d34 <HAL_RCC_OscConfig+0x400>)
 8002c6a:	f003 fd49 	bl	8006700 <assert_failed>
 8002c6e:	6a63      	ldr	r3, [r4, #36]	; 0x24
 8002c70:	f433 2240 	bics.w	r2, r3, #786432	; 0xc0000
 8002c74:	f423 2180 	bic.w	r1, r3, #262144	; 0x40000
 8002c78:	d010      	beq.n	8002c9c <HAL_RCC_OscConfig+0x368>
 8002c7a:	f5b2 1f80 	cmp.w	r2, #1048576	; 0x100000
 8002c7e:	d00d      	beq.n	8002c9c <HAL_RCC_OscConfig+0x368>
 8002c80:	f5b2 1f00 	cmp.w	r2, #2097152	; 0x200000
 8002c84:	d00a      	beq.n	8002c9c <HAL_RCC_OscConfig+0x368>
 8002c86:	f5b1 1f40 	cmp.w	r1, #3145728	; 0x300000
 8002c8a:	d007      	beq.n	8002c9c <HAL_RCC_OscConfig+0x368>
 8002c8c:	f5b3 1f60 	cmp.w	r3, #3670016	; 0x380000
 8002c90:	d004      	beq.n	8002c9c <HAL_RCC_OscConfig+0x368>
 8002c92:	f240 21c3 	movw	r1, #707	; 0x2c3
 8002c96:	4827      	ldr	r0, [pc, #156]	; (8002d34 <HAL_RCC_OscConfig+0x400>)
 8002c98:	f003 fd32 	bl	8006700 <assert_failed>
 8002c9c:	2300      	movs	r3, #0
 8002c9e:	6033      	str	r3, [r6, #0]
 8002ca0:	f7fe fa96 	bl	80011d0 <HAL_GetTick>
 8002ca4:	4607      	mov	r7, r0
 8002ca6:	682b      	ldr	r3, [r5, #0]
 8002ca8:	0199      	lsls	r1, r3, #6
 8002caa:	d429      	bmi.n	8002d00 <HAL_RCC_OscConfig+0x3cc>
 8002cac:	6a23      	ldr	r3, [r4, #32]
 8002cae:	f5b3 3f80 	cmp.w	r3, #65536	; 0x10000
 8002cb2:	d10e      	bne.n	8002cd2 <HAL_RCC_OscConfig+0x39e>
 8002cb4:	68a3      	ldr	r3, [r4, #8]
 8002cb6:	f433 3300 	bics.w	r3, r3, #131072	; 0x20000
 8002cba:	d004      	beq.n	8002cc6 <HAL_RCC_OscConfig+0x392>
 8002cbc:	f240 21d9 	movw	r1, #729	; 0x2d9
 8002cc0:	481c      	ldr	r0, [pc, #112]	; (8002d34 <HAL_RCC_OscConfig+0x400>)
 8002cc2:	f003 fd1d 	bl	8006700 <assert_failed>
 8002cc6:	686b      	ldr	r3, [r5, #4]
 8002cc8:	68a2      	ldr	r2, [r4, #8]
 8002cca:	f423 3300 	bic.w	r3, r3, #131072	; 0x20000
 8002cce:	4313      	orrs	r3, r2
 8002cd0:	606b      	str	r3, [r5, #4]
 8002cd2:	6a23      	ldr	r3, [r4, #32]
 8002cd4:	6a61      	ldr	r1, [r4, #36]	; 0x24
 8002cd6:	686a      	ldr	r2, [r5, #4]
 8002cd8:	430b      	orrs	r3, r1
 8002cda:	f422 1274 	bic.w	r2, r2, #3997696	; 0x3d0000
 8002cde:	4313      	orrs	r3, r2
 8002ce0:	606b      	str	r3, [r5, #4]
 8002ce2:	2301      	movs	r3, #1
 8002ce4:	6033      	str	r3, [r6, #0]
 8002ce6:	f7fe fa73 	bl	80011d0 <HAL_GetTick>
 8002cea:	4604      	mov	r4, r0
 8002cec:	682b      	ldr	r3, [r5, #0]
 8002cee:	019a      	lsls	r2, r3, #6
 8002cf0:	f53f ae4c 	bmi.w	800298c <HAL_RCC_OscConfig+0x58>
 8002cf4:	f7fe fa6c 	bl	80011d0 <HAL_GetTick>
 8002cf8:	1b00      	subs	r0, r0, r4
 8002cfa:	2802      	cmp	r0, #2
 8002cfc:	d9f6      	bls.n	8002cec <HAL_RCC_OscConfig+0x3b8>
 8002cfe:	e67e      	b.n	80029fe <HAL_RCC_OscConfig+0xca>
 8002d00:	f7fe fa66 	bl	80011d0 <HAL_GetTick>
 8002d04:	1bc0      	subs	r0, r0, r7
 8002d06:	2802      	cmp	r0, #2
 8002d08:	d9cd      	bls.n	8002ca6 <HAL_RCC_OscConfig+0x372>
 8002d0a:	e678      	b.n	80029fe <HAL_RCC_OscConfig+0xca>
 8002d0c:	2300      	movs	r3, #0
 8002d0e:	6033      	str	r3, [r6, #0]
 8002d10:	f7fe fa5e 	bl	80011d0 <HAL_GetTick>
 8002d14:	4604      	mov	r4, r0
 8002d16:	682b      	ldr	r3, [r5, #0]
 8002d18:	019b      	lsls	r3, r3, #6
 8002d1a:	f57f ae37 	bpl.w	800298c <HAL_RCC_OscConfig+0x58>
 8002d1e:	f7fe fa57 	bl	80011d0 <HAL_GetTick>
 8002d22:	1b00      	subs	r0, r0, r4
 8002d24:	2802      	cmp	r0, #2
 8002d26:	d9f6      	bls.n	8002d16 <HAL_RCC_OscConfig+0x3e2>
 8002d28:	e669      	b.n	80029fe <HAL_RCC_OscConfig+0xca>
 8002d2a:	bf00      	nop
 8002d2c:	40021000 	.word	0x40021000
 8002d30:	42420060 	.word	0x42420060
 8002d34:	08007d6f 	.word	0x08007d6f

08002d38 <HAL_RCC_EnableCSS>:
 8002d38:	2201      	movs	r2, #1
 8002d3a:	4b01      	ldr	r3, [pc, #4]	; (8002d40 <HAL_RCC_EnableCSS+0x8>)
 8002d3c:	601a      	str	r2, [r3, #0]
 8002d3e:	4770      	bx	lr
 8002d40:	4242004c 	.word	0x4242004c

08002d44 <HAL_RCC_GetSysClockFreq>:
 8002d44:	b530      	push	{r4, r5, lr}
 8002d46:	4b19      	ldr	r3, [pc, #100]	; (8002dac <HAL_RCC_GetSysClockFreq+0x68>)
 8002d48:	b087      	sub	sp, #28
 8002d4a:	ac02      	add	r4, sp, #8
 8002d4c:	f103 0510 	add.w	r5, r3, #16
 8002d50:	4622      	mov	r2, r4
 8002d52:	6818      	ldr	r0, [r3, #0]
 8002d54:	6859      	ldr	r1, [r3, #4]
 8002d56:	3308      	adds	r3, #8
 8002d58:	c203      	stmia	r2!, {r0, r1}
 8002d5a:	42ab      	cmp	r3, r5
 8002d5c:	4614      	mov	r4, r2
 8002d5e:	d1f7      	bne.n	8002d50 <HAL_RCC_GetSysClockFreq+0xc>
 8002d60:	2301      	movs	r3, #1
 8002d62:	f88d 3004 	strb.w	r3, [sp, #4]
 8002d66:	2302      	movs	r3, #2
 8002d68:	4911      	ldr	r1, [pc, #68]	; (8002db0 <HAL_RCC_GetSysClockFreq+0x6c>)
 8002d6a:	f88d 3005 	strb.w	r3, [sp, #5]
 8002d6e:	684b      	ldr	r3, [r1, #4]
 8002d70:	f003 020c 	and.w	r2, r3, #12
 8002d74:	2a08      	cmp	r2, #8
 8002d76:	d117      	bne.n	8002da8 <HAL_RCC_GetSysClockFreq+0x64>
 8002d78:	f3c3 4283 	ubfx	r2, r3, #18, #4
 8002d7c:	a806      	add	r0, sp, #24
 8002d7e:	4402      	add	r2, r0
 8002d80:	03db      	lsls	r3, r3, #15
 8002d82:	f812 2c10 	ldrb.w	r2, [r2, #-16]
 8002d86:	d50c      	bpl.n	8002da2 <HAL_RCC_GetSysClockFreq+0x5e>
 8002d88:	684b      	ldr	r3, [r1, #4]
 8002d8a:	480a      	ldr	r0, [pc, #40]	; (8002db4 <HAL_RCC_GetSysClockFreq+0x70>)
 8002d8c:	f3c3 4340 	ubfx	r3, r3, #17, #1
 8002d90:	4350      	muls	r0, r2
 8002d92:	aa06      	add	r2, sp, #24
 8002d94:	4413      	add	r3, r2
 8002d96:	f813 3c14 	ldrb.w	r3, [r3, #-20]
 8002d9a:	fbb0 f0f3 	udiv	r0, r0, r3
 8002d9e:	b007      	add	sp, #28
 8002da0:	bd30      	pop	{r4, r5, pc}
 8002da2:	4805      	ldr	r0, [pc, #20]	; (8002db8 <HAL_RCC_GetSysClockFreq+0x74>)
 8002da4:	4350      	muls	r0, r2
 8002da6:	e7fa      	b.n	8002d9e <HAL_RCC_GetSysClockFreq+0x5a>
 8002da8:	4802      	ldr	r0, [pc, #8]	; (8002db4 <HAL_RCC_GetSysClockFreq+0x70>)
 8002daa:	e7f8      	b.n	8002d9e <HAL_RCC_GetSysClockFreq+0x5a>
 8002dac:	08007bf8 	.word	0x08007bf8
 8002db0:	40021000 	.word	0x40021000
 8002db4:	007a1200 	.word	0x007a1200
 8002db8:	003d0900 	.word	0x003d0900

08002dbc <HAL_RCC_ClockConfig>:
 8002dbc:	e92d 41f0 	stmdb	sp!, {r4, r5, r6, r7, r8, lr}
 8002dc0:	460e      	mov	r6, r1
 8002dc2:	4604      	mov	r4, r0
 8002dc4:	b920      	cbnz	r0, 8002dd0 <HAL_RCC_ClockConfig+0x14>
 8002dc6:	f240 312e 	movw	r1, #814	; 0x32e
 8002dca:	487f      	ldr	r0, [pc, #508]	; (8002fc8 <HAL_RCC_ClockConfig+0x20c>)
 8002dcc:	f003 fc98 	bl	8006700 <assert_failed>
 8002dd0:	6823      	ldr	r3, [r4, #0]
 8002dd2:	071d      	lsls	r5, r3, #28
 8002dd4:	d104      	bne.n	8002de0 <HAL_RCC_ClockConfig+0x24>
 8002dd6:	f240 312f 	movw	r1, #815	; 0x32f
 8002dda:	487b      	ldr	r0, [pc, #492]	; (8002fc8 <HAL_RCC_ClockConfig+0x20c>)
 8002ddc:	f003 fc90 	bl	8006700 <assert_failed>
 8002de0:	2e02      	cmp	r6, #2
 8002de2:	d904      	bls.n	8002dee <HAL_RCC_ClockConfig+0x32>
 8002de4:	f44f 714c 	mov.w	r1, #816	; 0x330
 8002de8:	4877      	ldr	r0, [pc, #476]	; (8002fc8 <HAL_RCC_ClockConfig+0x20c>)
 8002dea:	f003 fc89 	bl	8006700 <assert_failed>
 8002dee:	4a77      	ldr	r2, [pc, #476]	; (8002fcc <HAL_RCC_ClockConfig+0x210>)
 8002df0:	6813      	ldr	r3, [r2, #0]
 8002df2:	f003 0307 	and.w	r3, r3, #7
 8002df6:	429e      	cmp	r6, r3
 8002df8:	d83d      	bhi.n	8002e76 <HAL_RCC_ClockConfig+0xba>
 8002dfa:	6823      	ldr	r3, [r4, #0]
 8002dfc:	0798      	lsls	r0, r3, #30
 8002dfe:	d447      	bmi.n	8002e90 <HAL_RCC_ClockConfig+0xd4>
 8002e00:	6823      	ldr	r3, [r4, #0]
 8002e02:	07da      	lsls	r2, r3, #31
 8002e04:	d470      	bmi.n	8002ee8 <HAL_RCC_ClockConfig+0x12c>
 8002e06:	4a71      	ldr	r2, [pc, #452]	; (8002fcc <HAL_RCC_ClockConfig+0x210>)
 8002e08:	6813      	ldr	r3, [r2, #0]
 8002e0a:	f003 0307 	and.w	r3, r3, #7
 8002e0e:	429e      	cmp	r6, r3
 8002e10:	f0c0 80b5 	bcc.w	8002f7e <HAL_RCC_ClockConfig+0x1c2>
 8002e14:	6823      	ldr	r3, [r4, #0]
 8002e16:	4d6e      	ldr	r5, [pc, #440]	; (8002fd0 <HAL_RCC_ClockConfig+0x214>)
 8002e18:	f013 0f04 	tst.w	r3, #4
 8002e1c:	f040 80bb 	bne.w	8002f96 <HAL_RCC_ClockConfig+0x1da>
 8002e20:	6823      	ldr	r3, [r4, #0]
 8002e22:	071b      	lsls	r3, r3, #28
 8002e24:	d517      	bpl.n	8002e56 <HAL_RCC_ClockConfig+0x9a>
 8002e26:	6923      	ldr	r3, [r4, #16]
 8002e28:	f433 6280 	bics.w	r2, r3, #1024	; 0x400
 8002e2c:	d00c      	beq.n	8002e48 <HAL_RCC_ClockConfig+0x8c>
 8002e2e:	f423 7200 	bic.w	r2, r3, #512	; 0x200
 8002e32:	f5b2 6fa0 	cmp.w	r2, #1280	; 0x500
 8002e36:	d007      	beq.n	8002e48 <HAL_RCC_ClockConfig+0x8c>
 8002e38:	f5b3 6fc0 	cmp.w	r3, #1536	; 0x600
 8002e3c:	d004      	beq.n	8002e48 <HAL_RCC_ClockConfig+0x8c>
 8002e3e:	f44f 716e 	mov.w	r1, #952	; 0x3b8
 8002e42:	4861      	ldr	r0, [pc, #388]	; (8002fc8 <HAL_RCC_ClockConfig+0x20c>)
 8002e44:	f003 fc5c 	bl	8006700 <assert_failed>
 8002e48:	686b      	ldr	r3, [r5, #4]
 8002e4a:	6922      	ldr	r2, [r4, #16]
 8002e4c:	f423 5360 	bic.w	r3, r3, #14336	; 0x3800
 8002e50:	ea43 03c2 	orr.w	r3, r3, r2, lsl #3
 8002e54:	606b      	str	r3, [r5, #4]
 8002e56:	f7ff ff75 	bl	8002d44 <HAL_RCC_GetSysClockFreq>
 8002e5a:	686b      	ldr	r3, [r5, #4]
 8002e5c:	4a5d      	ldr	r2, [pc, #372]	; (8002fd4 <HAL_RCC_ClockConfig+0x218>)
 8002e5e:	f3c3 1303 	ubfx	r3, r3, #4, #4
 8002e62:	5cd3      	ldrb	r3, [r2, r3]
 8002e64:	40d8      	lsrs	r0, r3
 8002e66:	4b5c      	ldr	r3, [pc, #368]	; (8002fd8 <HAL_RCC_ClockConfig+0x21c>)
 8002e68:	6018      	str	r0, [r3, #0]
 8002e6a:	2000      	movs	r0, #0
 8002e6c:	f7fe f96e 	bl	800114c <HAL_InitTick>
 8002e70:	2000      	movs	r0, #0
 8002e72:	e8bd 81f0 	ldmia.w	sp!, {r4, r5, r6, r7, r8, pc}
 8002e76:	6813      	ldr	r3, [r2, #0]
 8002e78:	f023 0307 	bic.w	r3, r3, #7
 8002e7c:	4333      	orrs	r3, r6
 8002e7e:	6013      	str	r3, [r2, #0]
 8002e80:	6813      	ldr	r3, [r2, #0]
 8002e82:	f003 0307 	and.w	r3, r3, #7
 8002e86:	429e      	cmp	r6, r3
 8002e88:	d0b7      	beq.n	8002dfa <HAL_RCC_ClockConfig+0x3e>
 8002e8a:	2001      	movs	r0, #1
 8002e8c:	e8bd 81f0 	ldmia.w	sp!, {r4, r5, r6, r7, r8, pc}
 8002e90:	4d4f      	ldr	r5, [pc, #316]	; (8002fd0 <HAL_RCC_ClockConfig+0x214>)
 8002e92:	f013 0f04 	tst.w	r3, #4
 8002e96:	bf1e      	ittt	ne
 8002e98:	686a      	ldrne	r2, [r5, #4]
 8002e9a:	f442 62e0 	orrne.w	r2, r2, #1792	; 0x700
 8002e9e:	606a      	strne	r2, [r5, #4]
 8002ea0:	0719      	lsls	r1, r3, #28
 8002ea2:	bf42      	ittt	mi
 8002ea4:	686b      	ldrmi	r3, [r5, #4]
 8002ea6:	f443 5360 	orrmi.w	r3, r3, #14336	; 0x3800
 8002eaa:	606b      	strmi	r3, [r5, #4]
 8002eac:	68a3      	ldr	r3, [r4, #8]
 8002eae:	f033 0280 	bics.w	r2, r3, #128	; 0x80
 8002eb2:	d012      	beq.n	8002eda <HAL_RCC_ClockConfig+0x11e>
 8002eb4:	f023 0220 	bic.w	r2, r3, #32
 8002eb8:	2a90      	cmp	r2, #144	; 0x90
 8002eba:	d00e      	beq.n	8002eda <HAL_RCC_ClockConfig+0x11e>
 8002ebc:	f023 0240 	bic.w	r2, r3, #64	; 0x40
 8002ec0:	2aa0      	cmp	r2, #160	; 0xa0
 8002ec2:	d00a      	beq.n	8002eda <HAL_RCC_ClockConfig+0x11e>
 8002ec4:	f023 0210 	bic.w	r2, r3, #16
 8002ec8:	2ac0      	cmp	r2, #192	; 0xc0
 8002eca:	d006      	beq.n	8002eda <HAL_RCC_ClockConfig+0x11e>
 8002ecc:	2bf0      	cmp	r3, #240	; 0xf0
 8002ece:	d004      	beq.n	8002eda <HAL_RCC_ClockConfig+0x11e>
 8002ed0:	f240 3156 	movw	r1, #854	; 0x356
 8002ed4:	483c      	ldr	r0, [pc, #240]	; (8002fc8 <HAL_RCC_ClockConfig+0x20c>)
 8002ed6:	f003 fc13 	bl	8006700 <assert_failed>
 8002eda:	686b      	ldr	r3, [r5, #4]
 8002edc:	68a2      	ldr	r2, [r4, #8]
 8002ede:	f023 03f0 	bic.w	r3, r3, #240	; 0xf0
 8002ee2:	4313      	orrs	r3, r2
 8002ee4:	606b      	str	r3, [r5, #4]
 8002ee6:	e78b      	b.n	8002e00 <HAL_RCC_ClockConfig+0x44>
 8002ee8:	6863      	ldr	r3, [r4, #4]
 8002eea:	2b02      	cmp	r3, #2
 8002eec:	d904      	bls.n	8002ef8 <HAL_RCC_ClockConfig+0x13c>
 8002eee:	f240 315d 	movw	r1, #861	; 0x35d
 8002ef2:	4835      	ldr	r0, [pc, #212]	; (8002fc8 <HAL_RCC_ClockConfig+0x20c>)
 8002ef4:	f003 fc04 	bl	8006700 <assert_failed>
 8002ef8:	6862      	ldr	r2, [r4, #4]
 8002efa:	4d35      	ldr	r5, [pc, #212]	; (8002fd0 <HAL_RCC_ClockConfig+0x214>)
 8002efc:	2a01      	cmp	r2, #1
 8002efe:	682b      	ldr	r3, [r5, #0]
 8002f00:	d11d      	bne.n	8002f3e <HAL_RCC_ClockConfig+0x182>
 8002f02:	f413 3f00 	tst.w	r3, #131072	; 0x20000
 8002f06:	d0c0      	beq.n	8002e8a <HAL_RCC_ClockConfig+0xce>
 8002f08:	686b      	ldr	r3, [r5, #4]
 8002f0a:	f241 3888 	movw	r8, #5000	; 0x1388
 8002f0e:	f023 0303 	bic.w	r3, r3, #3
 8002f12:	4313      	orrs	r3, r2
 8002f14:	606b      	str	r3, [r5, #4]
 8002f16:	f7fe f95b 	bl	80011d0 <HAL_GetTick>
 8002f1a:	6863      	ldr	r3, [r4, #4]
 8002f1c:	4607      	mov	r7, r0
 8002f1e:	2b01      	cmp	r3, #1
 8002f20:	d115      	bne.n	8002f4e <HAL_RCC_ClockConfig+0x192>
 8002f22:	686b      	ldr	r3, [r5, #4]
 8002f24:	f003 030c 	and.w	r3, r3, #12
 8002f28:	2b04      	cmp	r3, #4
 8002f2a:	f43f af6c 	beq.w	8002e06 <HAL_RCC_ClockConfig+0x4a>
 8002f2e:	f7fe f94f 	bl	80011d0 <HAL_GetTick>
 8002f32:	1bc0      	subs	r0, r0, r7
 8002f34:	4540      	cmp	r0, r8
 8002f36:	d9f4      	bls.n	8002f22 <HAL_RCC_ClockConfig+0x166>
 8002f38:	2003      	movs	r0, #3
 8002f3a:	e8bd 81f0 	ldmia.w	sp!, {r4, r5, r6, r7, r8, pc}
 8002f3e:	2a02      	cmp	r2, #2
 8002f40:	d102      	bne.n	8002f48 <HAL_RCC_ClockConfig+0x18c>
 8002f42:	f013 7f00 	tst.w	r3, #33554432	; 0x2000000
 8002f46:	e7de      	b.n	8002f06 <HAL_RCC_ClockConfig+0x14a>
 8002f48:	f013 0f02 	tst.w	r3, #2
 8002f4c:	e7db      	b.n	8002f06 <HAL_RCC_ClockConfig+0x14a>
 8002f4e:	2b02      	cmp	r3, #2
 8002f50:	d110      	bne.n	8002f74 <HAL_RCC_ClockConfig+0x1b8>
 8002f52:	686b      	ldr	r3, [r5, #4]
 8002f54:	f003 030c 	and.w	r3, r3, #12
 8002f58:	2b08      	cmp	r3, #8
 8002f5a:	f43f af54 	beq.w	8002e06 <HAL_RCC_ClockConfig+0x4a>
 8002f5e:	f7fe f937 	bl	80011d0 <HAL_GetTick>
 8002f62:	1bc0      	subs	r0, r0, r7
 8002f64:	4540      	cmp	r0, r8
 8002f66:	d9f4      	bls.n	8002f52 <HAL_RCC_ClockConfig+0x196>
 8002f68:	e7e6      	b.n	8002f38 <HAL_RCC_ClockConfig+0x17c>
 8002f6a:	f7fe f931 	bl	80011d0 <HAL_GetTick>
 8002f6e:	1bc0      	subs	r0, r0, r7
 8002f70:	4540      	cmp	r0, r8
 8002f72:	d8e1      	bhi.n	8002f38 <HAL_RCC_ClockConfig+0x17c>
 8002f74:	686b      	ldr	r3, [r5, #4]
 8002f76:	f013 0f0c 	tst.w	r3, #12
 8002f7a:	d1f6      	bne.n	8002f6a <HAL_RCC_ClockConfig+0x1ae>
 8002f7c:	e743      	b.n	8002e06 <HAL_RCC_ClockConfig+0x4a>
 8002f7e:	6813      	ldr	r3, [r2, #0]
 8002f80:	f023 0307 	bic.w	r3, r3, #7
 8002f84:	4333      	orrs	r3, r6
 8002f86:	6013      	str	r3, [r2, #0]
 8002f88:	6813      	ldr	r3, [r2, #0]
 8002f8a:	f003 0307 	and.w	r3, r3, #7
 8002f8e:	429e      	cmp	r6, r3
 8002f90:	f47f af7b 	bne.w	8002e8a <HAL_RCC_ClockConfig+0xce>
 8002f94:	e73e      	b.n	8002e14 <HAL_RCC_ClockConfig+0x58>
 8002f96:	68e3      	ldr	r3, [r4, #12]
 8002f98:	f433 6280 	bics.w	r2, r3, #1024	; 0x400
 8002f9c:	d00c      	beq.n	8002fb8 <HAL_RCC_ClockConfig+0x1fc>
 8002f9e:	f423 7200 	bic.w	r2, r3, #512	; 0x200
 8002fa2:	f5b2 6fa0 	cmp.w	r2, #1280	; 0x500
 8002fa6:	d007      	beq.n	8002fb8 <HAL_RCC_ClockConfig+0x1fc>
 8002fa8:	f5b3 6fc0 	cmp.w	r3, #1536	; 0x600
 8002fac:	d004      	beq.n	8002fb8 <HAL_RCC_ClockConfig+0x1fc>
 8002fae:	f240 31b1 	movw	r1, #945	; 0x3b1
 8002fb2:	4805      	ldr	r0, [pc, #20]	; (8002fc8 <HAL_RCC_ClockConfig+0x20c>)
 8002fb4:	f003 fba4 	bl	8006700 <assert_failed>
 8002fb8:	686b      	ldr	r3, [r5, #4]
 8002fba:	68e2      	ldr	r2, [r4, #12]
 8002fbc:	f423 63e0 	bic.w	r3, r3, #1792	; 0x700
 8002fc0:	4313      	orrs	r3, r2
 8002fc2:	606b      	str	r3, [r5, #4]
 8002fc4:	e72c      	b.n	8002e20 <HAL_RCC_ClockConfig+0x64>
 8002fc6:	bf00      	nop
 8002fc8:	08007d6f 	.word	0x08007d6f
 8002fcc:	40022000 	.word	0x40022000
 8002fd0:	40021000 	.word	0x40021000
 8002fd4:	08008278 	.word	0x08008278
 8002fd8:	2000000c 	.word	0x2000000c

08002fdc <HAL_RCC_GetPCLK1Freq>:
 8002fdc:	4b04      	ldr	r3, [pc, #16]	; (8002ff0 <HAL_RCC_GetPCLK1Freq+0x14>)
 8002fde:	4a05      	ldr	r2, [pc, #20]	; (8002ff4 <HAL_RCC_GetPCLK1Freq+0x18>)
 8002fe0:	685b      	ldr	r3, [r3, #4]
 8002fe2:	f3c3 2302 	ubfx	r3, r3, #8, #3
 8002fe6:	5cd3      	ldrb	r3, [r2, r3]
 8002fe8:	4a03      	ldr	r2, [pc, #12]	; (8002ff8 <HAL_RCC_GetPCLK1Freq+0x1c>)
 8002fea:	6810      	ldr	r0, [r2, #0]
 8002fec:	40d8      	lsrs	r0, r3
 8002fee:	4770      	bx	lr
 8002ff0:	40021000 	.word	0x40021000
 8002ff4:	08008288 	.word	0x08008288
 8002ff8:	2000000c 	.word	0x2000000c

08002ffc <HAL_RCC_GetPCLK2Freq>:
 8002ffc:	4b04      	ldr	r3, [pc, #16]	; (8003010 <HAL_RCC_GetPCLK2Freq+0x14>)
 8002ffe:	4a05      	ldr	r2, [pc, #20]	; (8003014 <HAL_RCC_GetPCLK2Freq+0x18>)
 8003000:	685b      	ldr	r3, [r3, #4]
 8003002:	f3c3 23c2 	ubfx	r3, r3, #11, #3
 8003006:	5cd3      	ldrb	r3, [r2, r3]
 8003008:	4a03      	ldr	r2, [pc, #12]	; (8003018 <HAL_RCC_GetPCLK2Freq+0x1c>)
 800300a:	6810      	ldr	r0, [r2, #0]
 800300c:	40d8      	lsrs	r0, r3
 800300e:	4770      	bx	lr
 8003010:	40021000 	.word	0x40021000
 8003014:	08008288 	.word	0x08008288
 8003018:	2000000c 	.word	0x2000000c

0800301c <HAL_RCC_CSSCallback>:
 800301c:	4770      	bx	lr
	...

08003020 <HAL_RCC_NMI_IRQHandler>:
 8003020:	b508      	push	{r3, lr}
 8003022:	4b05      	ldr	r3, [pc, #20]	; (8003038 <HAL_RCC_NMI_IRQHandler+0x18>)
 8003024:	689b      	ldr	r3, [r3, #8]
 8003026:	061b      	lsls	r3, r3, #24
 8003028:	d504      	bpl.n	8003034 <HAL_RCC_NMI_IRQHandler+0x14>
 800302a:	f7ff fff7 	bl	800301c <HAL_RCC_CSSCallback>
 800302e:	2280      	movs	r2, #128	; 0x80
 8003030:	4b02      	ldr	r3, [pc, #8]	; (800303c <HAL_RCC_NMI_IRQHandler+0x1c>)
 8003032:	701a      	strb	r2, [r3, #0]
 8003034:	bd08      	pop	{r3, pc}
 8003036:	bf00      	nop
 8003038:	40021000 	.word	0x40021000
 800303c:	4002100a 	.word	0x4002100a

08003040 <HAL_RCCEx_PeriphCLKConfig>:
 8003040:	6803      	ldr	r3, [r0, #0]
 8003042:	e92d 41f3 	stmdb	sp!, {r0, r1, r4, r5, r6, r7, r8, lr}
 8003046:	f013 0f13 	tst.w	r3, #19
 800304a:	4605      	mov	r5, r0
 800304c:	d103      	bne.n	8003056 <HAL_RCCEx_PeriphCLKConfig+0x16>
 800304e:	217c      	movs	r1, #124	; 0x7c
 8003050:	4845      	ldr	r0, [pc, #276]	; (8003168 <HAL_RCCEx_PeriphCLKConfig+0x128>)
 8003052:	f003 fb55 	bl	8006700 <assert_failed>
 8003056:	682b      	ldr	r3, [r5, #0]
 8003058:	07d9      	lsls	r1, r3, #31
 800305a:	d528      	bpl.n	80030ae <HAL_RCCEx_PeriphCLKConfig+0x6e>
 800305c:	686b      	ldr	r3, [r5, #4]
 800305e:	f433 7340 	bics.w	r3, r3, #768	; 0x300
 8003062:	d003      	beq.n	800306c <HAL_RCCEx_PeriphCLKConfig+0x2c>
 8003064:	2182      	movs	r1, #130	; 0x82
 8003066:	4840      	ldr	r0, [pc, #256]	; (8003168 <HAL_RCCEx_PeriphCLKConfig+0x128>)
 8003068:	f003 fb4a 	bl	8006700 <assert_failed>
 800306c:	4c3f      	ldr	r4, [pc, #252]	; (800316c <HAL_RCCEx_PeriphCLKConfig+0x12c>)
 800306e:	69e3      	ldr	r3, [r4, #28]
 8003070:	00da      	lsls	r2, r3, #3
 8003072:	d444      	bmi.n	80030fe <HAL_RCCEx_PeriphCLKConfig+0xbe>
 8003074:	2701      	movs	r7, #1
 8003076:	69e3      	ldr	r3, [r4, #28]
 8003078:	f043 5380 	orr.w	r3, r3, #268435456	; 0x10000000
 800307c:	61e3      	str	r3, [r4, #28]
 800307e:	69e3      	ldr	r3, [r4, #28]
 8003080:	f003 5380 	and.w	r3, r3, #268435456	; 0x10000000
 8003084:	9301      	str	r3, [sp, #4]
 8003086:	9b01      	ldr	r3, [sp, #4]
 8003088:	4e39      	ldr	r6, [pc, #228]	; (8003170 <HAL_RCCEx_PeriphCLKConfig+0x130>)
 800308a:	6833      	ldr	r3, [r6, #0]
 800308c:	05db      	lsls	r3, r3, #23
 800308e:	d538      	bpl.n	8003102 <HAL_RCCEx_PeriphCLKConfig+0xc2>
 8003090:	6a23      	ldr	r3, [r4, #32]
 8003092:	f413 7340 	ands.w	r3, r3, #768	; 0x300
 8003096:	d148      	bne.n	800312a <HAL_RCCEx_PeriphCLKConfig+0xea>
 8003098:	6a23      	ldr	r3, [r4, #32]
 800309a:	686a      	ldr	r2, [r5, #4]
 800309c:	f423 7340 	bic.w	r3, r3, #768	; 0x300
 80030a0:	4313      	orrs	r3, r2
 80030a2:	6223      	str	r3, [r4, #32]
 80030a4:	b11f      	cbz	r7, 80030ae <HAL_RCCEx_PeriphCLKConfig+0x6e>
 80030a6:	69e3      	ldr	r3, [r4, #28]
 80030a8:	f023 5380 	bic.w	r3, r3, #268435456	; 0x10000000
 80030ac:	61e3      	str	r3, [r4, #28]
 80030ae:	682b      	ldr	r3, [r5, #0]
 80030b0:	079b      	lsls	r3, r3, #30
 80030b2:	d50e      	bpl.n	80030d2 <HAL_RCCEx_PeriphCLKConfig+0x92>
 80030b4:	68ab      	ldr	r3, [r5, #8]
 80030b6:	f433 4340 	bics.w	r3, r3, #49152	; 0xc000
 80030ba:	d003      	beq.n	80030c4 <HAL_RCCEx_PeriphCLKConfig+0x84>
 80030bc:	21c9      	movs	r1, #201	; 0xc9
 80030be:	482a      	ldr	r0, [pc, #168]	; (8003168 <HAL_RCCEx_PeriphCLKConfig+0x128>)
 80030c0:	f003 fb1e 	bl	8006700 <assert_failed>
 80030c4:	4a29      	ldr	r2, [pc, #164]	; (800316c <HAL_RCCEx_PeriphCLKConfig+0x12c>)
 80030c6:	68a9      	ldr	r1, [r5, #8]
 80030c8:	6853      	ldr	r3, [r2, #4]
 80030ca:	f423 4340 	bic.w	r3, r3, #49152	; 0xc000
 80030ce:	430b      	orrs	r3, r1
 80030d0:	6053      	str	r3, [r2, #4]
 80030d2:	6828      	ldr	r0, [r5, #0]
 80030d4:	f010 0010 	ands.w	r0, r0, #16
 80030d8:	d024      	beq.n	8003124 <HAL_RCCEx_PeriphCLKConfig+0xe4>
 80030da:	68eb      	ldr	r3, [r5, #12]
 80030dc:	f433 0380 	bics.w	r3, r3, #4194304	; 0x400000
 80030e0:	d004      	beq.n	80030ec <HAL_RCCEx_PeriphCLKConfig+0xac>
 80030e2:	f240 1125 	movw	r1, #293	; 0x125
 80030e6:	4820      	ldr	r0, [pc, #128]	; (8003168 <HAL_RCCEx_PeriphCLKConfig+0x128>)
 80030e8:	f003 fb0a 	bl	8006700 <assert_failed>
 80030ec:	4a1f      	ldr	r2, [pc, #124]	; (800316c <HAL_RCCEx_PeriphCLKConfig+0x12c>)
 80030ee:	68e9      	ldr	r1, [r5, #12]
 80030f0:	6853      	ldr	r3, [r2, #4]
 80030f2:	2000      	movs	r0, #0
 80030f4:	f423 0380 	bic.w	r3, r3, #4194304	; 0x400000
 80030f8:	430b      	orrs	r3, r1
 80030fa:	6053      	str	r3, [r2, #4]
 80030fc:	e012      	b.n	8003124 <HAL_RCCEx_PeriphCLKConfig+0xe4>
 80030fe:	2700      	movs	r7, #0
 8003100:	e7c2      	b.n	8003088 <HAL_RCCEx_PeriphCLKConfig+0x48>
 8003102:	6833      	ldr	r3, [r6, #0]
 8003104:	f443 7380 	orr.w	r3, r3, #256	; 0x100
 8003108:	6033      	str	r3, [r6, #0]
 800310a:	f7fe f861 	bl	80011d0 <HAL_GetTick>
 800310e:	4680      	mov	r8, r0
 8003110:	6833      	ldr	r3, [r6, #0]
 8003112:	05d8      	lsls	r0, r3, #23
 8003114:	d4bc      	bmi.n	8003090 <HAL_RCCEx_PeriphCLKConfig+0x50>
 8003116:	f7fe f85b 	bl	80011d0 <HAL_GetTick>
 800311a:	eba0 0008 	sub.w	r0, r0, r8
 800311e:	2864      	cmp	r0, #100	; 0x64
 8003120:	d9f6      	bls.n	8003110 <HAL_RCCEx_PeriphCLKConfig+0xd0>
 8003122:	2003      	movs	r0, #3
 8003124:	b002      	add	sp, #8
 8003126:	e8bd 81f0 	ldmia.w	sp!, {r4, r5, r6, r7, r8, pc}
 800312a:	686a      	ldr	r2, [r5, #4]
 800312c:	f402 7240 	and.w	r2, r2, #768	; 0x300
 8003130:	4293      	cmp	r3, r2
 8003132:	d0b1      	beq.n	8003098 <HAL_RCCEx_PeriphCLKConfig+0x58>
 8003134:	2001      	movs	r0, #1
 8003136:	4a0f      	ldr	r2, [pc, #60]	; (8003174 <HAL_RCCEx_PeriphCLKConfig+0x134>)
 8003138:	6a23      	ldr	r3, [r4, #32]
 800313a:	6010      	str	r0, [r2, #0]
 800313c:	2000      	movs	r0, #0
 800313e:	f423 7140 	bic.w	r1, r3, #768	; 0x300
 8003142:	6010      	str	r0, [r2, #0]
 8003144:	6221      	str	r1, [r4, #32]
 8003146:	07d9      	lsls	r1, r3, #31
 8003148:	d5a6      	bpl.n	8003098 <HAL_RCCEx_PeriphCLKConfig+0x58>
 800314a:	f7fe f841 	bl	80011d0 <HAL_GetTick>
 800314e:	f241 3888 	movw	r8, #5000	; 0x1388
 8003152:	4606      	mov	r6, r0
 8003154:	6a23      	ldr	r3, [r4, #32]
 8003156:	079a      	lsls	r2, r3, #30
 8003158:	d49e      	bmi.n	8003098 <HAL_RCCEx_PeriphCLKConfig+0x58>
 800315a:	f7fe f839 	bl	80011d0 <HAL_GetTick>
 800315e:	1b80      	subs	r0, r0, r6
 8003160:	4540      	cmp	r0, r8
 8003162:	d9f7      	bls.n	8003154 <HAL_RCCEx_PeriphCLKConfig+0x114>
 8003164:	e7dd      	b.n	8003122 <HAL_RCCEx_PeriphCLKConfig+0xe2>
 8003166:	bf00      	nop
 8003168:	08007da7 	.word	0x08007da7
 800316c:	40021000 	.word	0x40021000
 8003170:	40007000 	.word	0x40007000
 8003174:	42420440 	.word	0x42420440

08003178 <HAL_RCCEx_GetPeriphCLKFreq>:
 8003178:	b570      	push	{r4, r5, r6, lr}
 800317a:	4604      	mov	r4, r0
 800317c:	4b39      	ldr	r3, [pc, #228]	; (8003264 <HAL_RCCEx_GetPeriphCLKFreq+0xec>)
 800317e:	b086      	sub	sp, #24
 8003180:	ad02      	add	r5, sp, #8
 8003182:	f103 0610 	add.w	r6, r3, #16
 8003186:	462a      	mov	r2, r5
 8003188:	6818      	ldr	r0, [r3, #0]
 800318a:	6859      	ldr	r1, [r3, #4]
 800318c:	3308      	adds	r3, #8
 800318e:	c203      	stmia	r2!, {r0, r1}
 8003190:	42b3      	cmp	r3, r6
 8003192:	4615      	mov	r5, r2
 8003194:	d1f7      	bne.n	8003186 <HAL_RCCEx_GetPeriphCLKFreq+0xe>
 8003196:	2301      	movs	r3, #1
 8003198:	f88d 3004 	strb.w	r3, [sp, #4]
 800319c:	2302      	movs	r3, #2
 800319e:	f014 0f13 	tst.w	r4, #19
 80031a2:	f88d 3005 	strb.w	r3, [sp, #5]
 80031a6:	d104      	bne.n	80031b2 <HAL_RCCEx_GetPeriphCLKFreq+0x3a>
 80031a8:	f44f 71d3 	mov.w	r1, #422	; 0x1a6
 80031ac:	482e      	ldr	r0, [pc, #184]	; (8003268 <HAL_RCCEx_GetPeriphCLKFreq+0xf0>)
 80031ae:	f003 faa7 	bl	8006700 <assert_failed>
 80031b2:	2c02      	cmp	r4, #2
 80031b4:	d047      	beq.n	8003246 <HAL_RCCEx_GetPeriphCLKFreq+0xce>
 80031b6:	2c10      	cmp	r4, #16
 80031b8:	d017      	beq.n	80031ea <HAL_RCCEx_GetPeriphCLKFreq+0x72>
 80031ba:	2c01      	cmp	r4, #1
 80031bc:	d14f      	bne.n	800325e <HAL_RCCEx_GetPeriphCLKFreq+0xe6>
 80031be:	f240 3102 	movw	r1, #770	; 0x302
 80031c2:	4a2a      	ldr	r2, [pc, #168]	; (800326c <HAL_RCCEx_GetPeriphCLKFreq+0xf4>)
 80031c4:	6a13      	ldr	r3, [r2, #32]
 80031c6:	4019      	ands	r1, r3
 80031c8:	f5b1 7f81 	cmp.w	r1, #258	; 0x102
 80031cc:	d044      	beq.n	8003258 <HAL_RCCEx_GetPeriphCLKFreq+0xe0>
 80031ce:	f403 7340 	and.w	r3, r3, #768	; 0x300
 80031d2:	f5b3 7f00 	cmp.w	r3, #512	; 0x200
 80031d6:	d12d      	bne.n	8003234 <HAL_RCCEx_GetPeriphCLKFreq+0xbc>
 80031d8:	f649 4040 	movw	r0, #40000	; 0x9c40
 80031dc:	6a53      	ldr	r3, [r2, #36]	; 0x24
 80031de:	f013 0f02 	tst.w	r3, #2
 80031e2:	bf08      	it	eq
 80031e4:	2000      	moveq	r0, #0
 80031e6:	b006      	add	sp, #24
 80031e8:	bd70      	pop	{r4, r5, r6, pc}
 80031ea:	4b20      	ldr	r3, [pc, #128]	; (800326c <HAL_RCCEx_GetPeriphCLKFreq+0xf4>)
 80031ec:	6859      	ldr	r1, [r3, #4]
 80031ee:	6818      	ldr	r0, [r3, #0]
 80031f0:	f010 7080 	ands.w	r0, r0, #16777216	; 0x1000000
 80031f4:	d0f7      	beq.n	80031e6 <HAL_RCCEx_GetPeriphCLKFreq+0x6e>
 80031f6:	f3c1 4283 	ubfx	r2, r1, #18, #4
 80031fa:	a806      	add	r0, sp, #24
 80031fc:	4402      	add	r2, r0
 80031fe:	f812 0c10 	ldrb.w	r0, [r2, #-16]
 8003202:	03ca      	lsls	r2, r1, #15
 8003204:	bf41      	itttt	mi
 8003206:	685a      	ldrmi	r2, [r3, #4]
 8003208:	a906      	addmi	r1, sp, #24
 800320a:	f3c2 4240 	ubfxmi	r2, r2, #17, #1
 800320e:	1852      	addmi	r2, r2, r1
 8003210:	bf44      	itt	mi
 8003212:	f812 1c14 	ldrbmi.w	r1, [r2, #-20]
 8003216:	4a16      	ldrmi	r2, [pc, #88]	; (8003270 <HAL_RCCEx_GetPeriphCLKFreq+0xf8>)
 8003218:	685b      	ldr	r3, [r3, #4]
 800321a:	bf4c      	ite	mi
 800321c:	fbb2 f2f1 	udivmi	r2, r2, r1
 8003220:	4a14      	ldrpl	r2, [pc, #80]	; (8003274 <HAL_RCCEx_GetPeriphCLKFreq+0xfc>)
 8003222:	025b      	lsls	r3, r3, #9
 8003224:	fb02 f000 	mul.w	r0, r2, r0
 8003228:	d4dd      	bmi.n	80031e6 <HAL_RCCEx_GetPeriphCLKFreq+0x6e>
 800322a:	2303      	movs	r3, #3
 800322c:	0040      	lsls	r0, r0, #1
 800322e:	fbb0 f0f3 	udiv	r0, r0, r3
 8003232:	e7d8      	b.n	80031e6 <HAL_RCCEx_GetPeriphCLKFreq+0x6e>
 8003234:	f5b3 7f40 	cmp.w	r3, #768	; 0x300
 8003238:	d111      	bne.n	800325e <HAL_RCCEx_GetPeriphCLKFreq+0xe6>
 800323a:	6813      	ldr	r3, [r2, #0]
 800323c:	f24f 4024 	movw	r0, #62500	; 0xf424
 8003240:	f413 3f00 	tst.w	r3, #131072	; 0x20000
 8003244:	e7cd      	b.n	80031e2 <HAL_RCCEx_GetPeriphCLKFreq+0x6a>
 8003246:	f7ff fed9 	bl	8002ffc <HAL_RCC_GetPCLK2Freq>
 800324a:	4b08      	ldr	r3, [pc, #32]	; (800326c <HAL_RCCEx_GetPeriphCLKFreq+0xf4>)
 800324c:	685b      	ldr	r3, [r3, #4]
 800324e:	f3c3 3381 	ubfx	r3, r3, #14, #2
 8003252:	3301      	adds	r3, #1
 8003254:	005b      	lsls	r3, r3, #1
 8003256:	e7ea      	b.n	800322e <HAL_RCCEx_GetPeriphCLKFreq+0xb6>
 8003258:	f44f 4000 	mov.w	r0, #32768	; 0x8000
 800325c:	e7c3      	b.n	80031e6 <HAL_RCCEx_GetPeriphCLKFreq+0x6e>
 800325e:	2000      	movs	r0, #0
 8003260:	e7c1      	b.n	80031e6 <HAL_RCCEx_GetPeriphCLKFreq+0x6e>
 8003262:	bf00      	nop
 8003264:	08007c08 	.word	0x08007c08
 8003268:	08007da7 	.word	0x08007da7
 800326c:	40021000 	.word	0x40021000
 8003270:	007a1200 	.word	0x007a1200
 8003274:	003d0900 	.word	0x003d0900

08003278 <RTC_ReadTimeCounter>:
 8003278:	6803      	ldr	r3, [r0, #0]
 800327a:	b530      	push	{r4, r5, lr}
 800327c:	699a      	ldr	r2, [r3, #24]
 800327e:	69d8      	ldr	r0, [r3, #28]
 8003280:	6999      	ldr	r1, [r3, #24]
 8003282:	b295      	uxth	r5, r2
 8003284:	b28c      	uxth	r4, r1
 8003286:	42a5      	cmp	r5, r4
 8003288:	bf1d      	ittte	ne
 800328a:	69d8      	ldrne	r0, [r3, #28]
 800328c:	b280      	uxthne	r0, r0
 800328e:	ea40 4001 	orrne.w	r0, r0, r1, lsl #16
 8003292:	b280      	uxtheq	r0, r0
 8003294:	bf08      	it	eq
 8003296:	ea40 4002 	orreq.w	r0, r0, r2, lsl #16
 800329a:	bd30      	pop	{r4, r5, pc}

0800329c <RTC_ReadAlarmCounter>:
 800329c:	6803      	ldr	r3, [r0, #0]
 800329e:	6a18      	ldr	r0, [r3, #32]
 80032a0:	6a5b      	ldr	r3, [r3, #36]	; 0x24
 80032a2:	b29b      	uxth	r3, r3
 80032a4:	ea43 4000 	orr.w	r0, r3, r0, lsl #16
 80032a8:	4770      	bx	lr

080032aa <RTC_Bcd2ToByte>:
 80032aa:	220a      	movs	r2, #10
 80032ac:	0903      	lsrs	r3, r0, #4
 80032ae:	f000 000f 	and.w	r0, r0, #15
 80032b2:	fb02 0003 	mla	r0, r2, r3, r0
 80032b6:	b2c0      	uxtb	r0, r0
 80032b8:	4770      	bx	lr

080032ba <RTC_WeekDayNum>:
 80032ba:	2902      	cmp	r1, #2
 80032bc:	b570      	push	{r4, r5, r6, lr}
 80032be:	f04f 0317 	mov.w	r3, #23
 80032c2:	f500 65fa 	add.w	r5, r0, #2000	; 0x7d0
 80032c6:	f04f 0609 	mov.w	r6, #9
 80032ca:	d81a      	bhi.n	8003302 <RTC_WeekDayNum+0x48>
 80032cc:	434b      	muls	r3, r1
 80032ce:	f200 74cf 	addw	r4, r0, #1999	; 0x7cf
 80032d2:	fbb3 f0f6 	udiv	r0, r3, r6
 80032d6:	f44f 73c8 	mov.w	r3, #400	; 0x190
 80032da:	fbb4 f3f3 	udiv	r3, r4, r3
 80032de:	3204      	adds	r2, #4
 80032e0:	442a      	add	r2, r5
 80032e2:	4410      	add	r0, r2
 80032e4:	eb00 0094 	add.w	r0, r0, r4, lsr #2
 80032e8:	4418      	add	r0, r3
 80032ea:	2364      	movs	r3, #100	; 0x64
 80032ec:	fbb4 f4f3 	udiv	r4, r4, r3
 80032f0:	1b00      	subs	r0, r0, r4
 80032f2:	2307      	movs	r3, #7
 80032f4:	fbb0 f3f3 	udiv	r3, r0, r3
 80032f8:	ebc3 03c3 	rsb	r3, r3, r3, lsl #3
 80032fc:	1ac0      	subs	r0, r0, r3
 80032fe:	b2c0      	uxtb	r0, r0
 8003300:	bd70      	pop	{r4, r5, r6, pc}
 8003302:	fb03 f001 	mul.w	r0, r3, r1
 8003306:	fbb0 f0f6 	udiv	r0, r0, r6
 800330a:	3202      	adds	r2, #2
 800330c:	442a      	add	r2, r5
 800330e:	f44f 73c8 	mov.w	r3, #400	; 0x190
 8003312:	4410      	add	r0, r2
 8003314:	2264      	movs	r2, #100	; 0x64
 8003316:	fbb5 f3f3 	udiv	r3, r5, r3
 800331a:	fbb5 f2f2 	udiv	r2, r5, r2
 800331e:	eb00 0095 	add.w	r0, r0, r5, lsr #2
 8003322:	4418      	add	r0, r3
 8003324:	1a80      	subs	r0, r0, r2
 8003326:	e7e4      	b.n	80032f2 <RTC_WeekDayNum+0x38>

08003328 <RTC_EnterInitMode>:
 8003328:	b538      	push	{r3, r4, r5, lr}
 800332a:	4604      	mov	r4, r0
 800332c:	f7fd ff50 	bl	80011d0 <HAL_GetTick>
 8003330:	4605      	mov	r5, r0
 8003332:	6823      	ldr	r3, [r4, #0]
 8003334:	685a      	ldr	r2, [r3, #4]
 8003336:	0692      	lsls	r2, r2, #26
 8003338:	d505      	bpl.n	8003346 <RTC_EnterInitMode+0x1e>
 800333a:	685a      	ldr	r2, [r3, #4]
 800333c:	2000      	movs	r0, #0
 800333e:	f042 0210 	orr.w	r2, r2, #16
 8003342:	605a      	str	r2, [r3, #4]
 8003344:	bd38      	pop	{r3, r4, r5, pc}
 8003346:	f7fd ff43 	bl	80011d0 <HAL_GetTick>
 800334a:	1b40      	subs	r0, r0, r5
 800334c:	f5b0 7f7a 	cmp.w	r0, #1000	; 0x3e8
 8003350:	d9ef      	bls.n	8003332 <RTC_EnterInitMode+0xa>
 8003352:	2003      	movs	r0, #3
 8003354:	bd38      	pop	{r3, r4, r5, pc}

08003356 <RTC_ExitInitMode>:
 8003356:	6802      	ldr	r2, [r0, #0]
 8003358:	b538      	push	{r3, r4, r5, lr}
 800335a:	6853      	ldr	r3, [r2, #4]
 800335c:	4604      	mov	r4, r0
 800335e:	f023 0310 	bic.w	r3, r3, #16
 8003362:	6053      	str	r3, [r2, #4]
 8003364:	f7fd ff34 	bl	80011d0 <HAL_GetTick>
 8003368:	4605      	mov	r5, r0
 800336a:	6823      	ldr	r3, [r4, #0]
 800336c:	685b      	ldr	r3, [r3, #4]
 800336e:	069b      	lsls	r3, r3, #26
 8003370:	d501      	bpl.n	8003376 <RTC_ExitInitMode+0x20>
 8003372:	2000      	movs	r0, #0
 8003374:	bd38      	pop	{r3, r4, r5, pc}
 8003376:	f7fd ff2b 	bl	80011d0 <HAL_GetTick>
 800337a:	1b40      	subs	r0, r0, r5
 800337c:	f5b0 7f7a 	cmp.w	r0, #1000	; 0x3e8
 8003380:	d9f3      	bls.n	800336a <RTC_ExitInitMode+0x14>
 8003382:	2003      	movs	r0, #3
 8003384:	bd38      	pop	{r3, r4, r5, pc}

08003386 <RTC_WriteTimeCounter>:
 8003386:	b538      	push	{r3, r4, r5, lr}
 8003388:	4605      	mov	r5, r0
 800338a:	460c      	mov	r4, r1
 800338c:	f7ff ffcc 	bl	8003328 <RTC_EnterInitMode>
 8003390:	b958      	cbnz	r0, 80033aa <RTC_WriteTimeCounter+0x24>
 8003392:	682b      	ldr	r3, [r5, #0]
 8003394:	0c22      	lsrs	r2, r4, #16
 8003396:	b2a4      	uxth	r4, r4
 8003398:	619a      	str	r2, [r3, #24]
 800339a:	4628      	mov	r0, r5
 800339c:	61dc      	str	r4, [r3, #28]
 800339e:	f7ff ffda 	bl	8003356 <RTC_ExitInitMode>
 80033a2:	3000      	adds	r0, #0
 80033a4:	bf18      	it	ne
 80033a6:	2001      	movne	r0, #1
 80033a8:	bd38      	pop	{r3, r4, r5, pc}
 80033aa:	2001      	movs	r0, #1
 80033ac:	bd38      	pop	{r3, r4, r5, pc}

080033ae <RTC_WriteAlarmCounter>:
 80033ae:	b538      	push	{r3, r4, r5, lr}
 80033b0:	4605      	mov	r5, r0
 80033b2:	460c      	mov	r4, r1
 80033b4:	f7ff ffb8 	bl	8003328 <RTC_EnterInitMode>
 80033b8:	b958      	cbnz	r0, 80033d2 <RTC_WriteAlarmCounter+0x24>
 80033ba:	682b      	ldr	r3, [r5, #0]
 80033bc:	0c22      	lsrs	r2, r4, #16
 80033be:	b2a4      	uxth	r4, r4
 80033c0:	621a      	str	r2, [r3, #32]
 80033c2:	4628      	mov	r0, r5
 80033c4:	625c      	str	r4, [r3, #36]	; 0x24
 80033c6:	f7ff ffc6 	bl	8003356 <RTC_ExitInitMode>
 80033ca:	3000      	adds	r0, #0
 80033cc:	bf18      	it	ne
 80033ce:	2001      	movne	r0, #1
 80033d0:	bd38      	pop	{r3, r4, r5, pc}
 80033d2:	2001      	movs	r0, #1
 80033d4:	bd38      	pop	{r3, r4, r5, pc}
	...

080033d8 <HAL_RTC_SetTime>:
 80033d8:	b570      	push	{r4, r5, r6, lr}
 80033da:	460d      	mov	r5, r1
 80033dc:	4616      	mov	r6, r2
 80033de:	4604      	mov	r4, r0
 80033e0:	2800      	cmp	r0, #0
 80033e2:	d03d      	beq.n	8003460 <HAL_RTC_SetTime+0x88>
 80033e4:	2900      	cmp	r1, #0
 80033e6:	d03b      	beq.n	8003460 <HAL_RTC_SetTime+0x88>
 80033e8:	2a01      	cmp	r2, #1
 80033ea:	d904      	bls.n	80033f6 <HAL_RTC_SetTime+0x1e>
 80033ec:	f240 11e9 	movw	r1, #489	; 0x1e9
 80033f0:	4843      	ldr	r0, [pc, #268]	; (8003500 <HAL_RTC_SetTime+0x128>)
 80033f2:	f003 f985 	bl	8006700 <assert_failed>
 80033f6:	7c23      	ldrb	r3, [r4, #16]
 80033f8:	2b01      	cmp	r3, #1
 80033fa:	f04f 0302 	mov.w	r3, #2
 80033fe:	d07d      	beq.n	80034fc <HAL_RTC_SetTime+0x124>
 8003400:	2201      	movs	r2, #1
 8003402:	7463      	strb	r3, [r4, #17]
 8003404:	7422      	strb	r2, [r4, #16]
 8003406:	7828      	ldrb	r0, [r5, #0]
 8003408:	bb66      	cbnz	r6, 8003464 <HAL_RTC_SetTime+0x8c>
 800340a:	2817      	cmp	r0, #23
 800340c:	d904      	bls.n	8003418 <HAL_RTC_SetTime+0x40>
 800340e:	f44f 71f9 	mov.w	r1, #498	; 0x1f2
 8003412:	483b      	ldr	r0, [pc, #236]	; (8003500 <HAL_RTC_SetTime+0x128>)
 8003414:	f003 f974 	bl	8006700 <assert_failed>
 8003418:	786b      	ldrb	r3, [r5, #1]
 800341a:	2b3b      	cmp	r3, #59	; 0x3b
 800341c:	d904      	bls.n	8003428 <HAL_RTC_SetTime+0x50>
 800341e:	f240 11f3 	movw	r1, #499	; 0x1f3
 8003422:	4837      	ldr	r0, [pc, #220]	; (8003500 <HAL_RTC_SetTime+0x128>)
 8003424:	f003 f96c 	bl	8006700 <assert_failed>
 8003428:	78ab      	ldrb	r3, [r5, #2]
 800342a:	2b3b      	cmp	r3, #59	; 0x3b
 800342c:	d904      	bls.n	8003438 <HAL_RTC_SetTime+0x60>
 800342e:	f44f 71fa 	mov.w	r1, #500	; 0x1f4
 8003432:	4833      	ldr	r0, [pc, #204]	; (8003500 <HAL_RTC_SetTime+0x128>)
 8003434:	f003 f964 	bl	8006700 <assert_failed>
 8003438:	203c      	movs	r0, #60	; 0x3c
 800343a:	786b      	ldrb	r3, [r5, #1]
 800343c:	782e      	ldrb	r6, [r5, #0]
 800343e:	4358      	muls	r0, r3
 8003440:	f44f 6361 	mov.w	r3, #3600	; 0xe10
 8003444:	fb03 0606 	mla	r6, r3, r6, r0
 8003448:	78a8      	ldrb	r0, [r5, #2]
 800344a:	4406      	add	r6, r0
 800344c:	4631      	mov	r1, r6
 800344e:	4620      	mov	r0, r4
 8003450:	f7ff ff99 	bl	8003386 <RTC_WriteTimeCounter>
 8003454:	4605      	mov	r5, r0
 8003456:	b398      	cbz	r0, 80034c0 <HAL_RTC_SetTime+0xe8>
 8003458:	2304      	movs	r3, #4
 800345a:	7463      	strb	r3, [r4, #17]
 800345c:	2300      	movs	r3, #0
 800345e:	7423      	strb	r3, [r4, #16]
 8003460:	2501      	movs	r5, #1
 8003462:	e049      	b.n	80034f8 <HAL_RTC_SetTime+0x120>
 8003464:	f7ff ff21 	bl	80032aa <RTC_Bcd2ToByte>
 8003468:	2817      	cmp	r0, #23
 800346a:	d904      	bls.n	8003476 <HAL_RTC_SetTime+0x9e>
 800346c:	f44f 71fe 	mov.w	r1, #508	; 0x1fc
 8003470:	4823      	ldr	r0, [pc, #140]	; (8003500 <HAL_RTC_SetTime+0x128>)
 8003472:	f003 f945 	bl	8006700 <assert_failed>
 8003476:	7868      	ldrb	r0, [r5, #1]
 8003478:	f7ff ff17 	bl	80032aa <RTC_Bcd2ToByte>
 800347c:	283b      	cmp	r0, #59	; 0x3b
 800347e:	d904      	bls.n	800348a <HAL_RTC_SetTime+0xb2>
 8003480:	f240 11fd 	movw	r1, #509	; 0x1fd
 8003484:	481e      	ldr	r0, [pc, #120]	; (8003500 <HAL_RTC_SetTime+0x128>)
 8003486:	f003 f93b 	bl	8006700 <assert_failed>
 800348a:	78a8      	ldrb	r0, [r5, #2]
 800348c:	f7ff ff0d 	bl	80032aa <RTC_Bcd2ToByte>
 8003490:	283b      	cmp	r0, #59	; 0x3b
 8003492:	d904      	bls.n	800349e <HAL_RTC_SetTime+0xc6>
 8003494:	f44f 71ff 	mov.w	r1, #510	; 0x1fe
 8003498:	4819      	ldr	r0, [pc, #100]	; (8003500 <HAL_RTC_SetTime+0x128>)
 800349a:	f003 f931 	bl	8006700 <assert_failed>
 800349e:	7828      	ldrb	r0, [r5, #0]
 80034a0:	f7ff ff03 	bl	80032aa <RTC_Bcd2ToByte>
 80034a4:	4606      	mov	r6, r0
 80034a6:	7868      	ldrb	r0, [r5, #1]
 80034a8:	f7ff feff 	bl	80032aa <RTC_Bcd2ToByte>
 80034ac:	233c      	movs	r3, #60	; 0x3c
 80034ae:	4358      	muls	r0, r3
 80034b0:	f44f 6361 	mov.w	r3, #3600	; 0xe10
 80034b4:	fb03 0606 	mla	r6, r3, r6, r0
 80034b8:	78a8      	ldrb	r0, [r5, #2]
 80034ba:	f7ff fef6 	bl	80032aa <RTC_Bcd2ToByte>
 80034be:	e7c4      	b.n	800344a <HAL_RTC_SetTime+0x72>
 80034c0:	6822      	ldr	r2, [r4, #0]
 80034c2:	4620      	mov	r0, r4
 80034c4:	6853      	ldr	r3, [r2, #4]
 80034c6:	f023 0305 	bic.w	r3, r3, #5
 80034ca:	6053      	str	r3, [r2, #4]
 80034cc:	f7ff fee6 	bl	800329c <RTC_ReadAlarmCounter>
 80034d0:	1c43      	adds	r3, r0, #1
 80034d2:	d00d      	beq.n	80034f0 <HAL_RTC_SetTime+0x118>
 80034d4:	4286      	cmp	r6, r0
 80034d6:	d90b      	bls.n	80034f0 <HAL_RTC_SetTime+0x118>
 80034d8:	f500 31a8 	add.w	r1, r0, #86016	; 0x15000
 80034dc:	f501 71c0 	add.w	r1, r1, #384	; 0x180
 80034e0:	4620      	mov	r0, r4
 80034e2:	f7ff ff64 	bl	80033ae <RTC_WriteAlarmCounter>
 80034e6:	b118      	cbz	r0, 80034f0 <HAL_RTC_SetTime+0x118>
 80034e8:	2304      	movs	r3, #4
 80034ea:	7425      	strb	r5, [r4, #16]
 80034ec:	7463      	strb	r3, [r4, #17]
 80034ee:	e7b7      	b.n	8003460 <HAL_RTC_SetTime+0x88>
 80034f0:	2301      	movs	r3, #1
 80034f2:	7463      	strb	r3, [r4, #17]
 80034f4:	2300      	movs	r3, #0
 80034f6:	7423      	strb	r3, [r4, #16]
 80034f8:	4628      	mov	r0, r5
 80034fa:	bd70      	pop	{r4, r5, r6, pc}
 80034fc:	461d      	mov	r5, r3
 80034fe:	e7fb      	b.n	80034f8 <HAL_RTC_SetTime+0x120>
 8003500:	08007de2 	.word	0x08007de2

08003504 <HAL_RTC_SetDate>:
 8003504:	b570      	push	{r4, r5, r6, lr}
 8003506:	460d      	mov	r5, r1
 8003508:	4616      	mov	r6, r2
 800350a:	4604      	mov	r4, r0
 800350c:	2800      	cmp	r0, #0
 800350e:	d04e      	beq.n	80035ae <HAL_RTC_SetDate+0xaa>
 8003510:	2900      	cmp	r1, #0
 8003512:	d04c      	beq.n	80035ae <HAL_RTC_SetDate+0xaa>
 8003514:	2a01      	cmp	r2, #1
 8003516:	d904      	bls.n	8003522 <HAL_RTC_SetDate+0x1e>
 8003518:	f240 21bb 	movw	r1, #699	; 0x2bb
 800351c:	4848      	ldr	r0, [pc, #288]	; (8003640 <HAL_RTC_SetDate+0x13c>)
 800351e:	f003 f8ef 	bl	8006700 <assert_failed>
 8003522:	7c23      	ldrb	r3, [r4, #16]
 8003524:	2002      	movs	r0, #2
 8003526:	2b01      	cmp	r3, #1
 8003528:	d042      	beq.n	80035b0 <HAL_RTC_SetDate+0xac>
 800352a:	2301      	movs	r3, #1
 800352c:	7460      	strb	r0, [r4, #17]
 800352e:	7423      	strb	r3, [r4, #16]
 8003530:	78e8      	ldrb	r0, [r5, #3]
 8003532:	2e00      	cmp	r6, #0
 8003534:	d13d      	bne.n	80035b2 <HAL_RTC_SetDate+0xae>
 8003536:	2863      	cmp	r0, #99	; 0x63
 8003538:	d904      	bls.n	8003544 <HAL_RTC_SetDate+0x40>
 800353a:	f44f 7131 	mov.w	r1, #708	; 0x2c4
 800353e:	4840      	ldr	r0, [pc, #256]	; (8003640 <HAL_RTC_SetDate+0x13c>)
 8003540:	f003 f8de 	bl	8006700 <assert_failed>
 8003544:	786b      	ldrb	r3, [r5, #1]
 8003546:	3b01      	subs	r3, #1
 8003548:	2b0b      	cmp	r3, #11
 800354a:	d904      	bls.n	8003556 <HAL_RTC_SetDate+0x52>
 800354c:	f240 21c5 	movw	r1, #709	; 0x2c5
 8003550:	483b      	ldr	r0, [pc, #236]	; (8003640 <HAL_RTC_SetDate+0x13c>)
 8003552:	f003 f8d5 	bl	8006700 <assert_failed>
 8003556:	78ab      	ldrb	r3, [r5, #2]
 8003558:	3b01      	subs	r3, #1
 800355a:	2b1e      	cmp	r3, #30
 800355c:	d904      	bls.n	8003568 <HAL_RTC_SetDate+0x64>
 800355e:	f240 21c6 	movw	r1, #710	; 0x2c6
 8003562:	4837      	ldr	r0, [pc, #220]	; (8003640 <HAL_RTC_SetDate+0x13c>)
 8003564:	f003 f8cc 	bl	8006700 <assert_failed>
 8003568:	78eb      	ldrb	r3, [r5, #3]
 800356a:	73e3      	strb	r3, [r4, #15]
 800356c:	786b      	ldrb	r3, [r5, #1]
 800356e:	7363      	strb	r3, [r4, #13]
 8003570:	78ab      	ldrb	r3, [r5, #2]
 8003572:	73a3      	strb	r3, [r4, #14]
 8003574:	7ba2      	ldrb	r2, [r4, #14]
 8003576:	7b61      	ldrb	r1, [r4, #13]
 8003578:	7be0      	ldrb	r0, [r4, #15]
 800357a:	f7ff fe9e 	bl	80032ba <RTC_WeekDayNum>
 800357e:	7320      	strb	r0, [r4, #12]
 8003580:	7028      	strb	r0, [r5, #0]
 8003582:	4620      	mov	r0, r4
 8003584:	f7ff fe78 	bl	8003278 <RTC_ReadTimeCounter>
 8003588:	4b2e      	ldr	r3, [pc, #184]	; (8003644 <HAL_RTC_SetDate+0x140>)
 800358a:	4298      	cmp	r0, r3
 800358c:	d952      	bls.n	8003634 <HAL_RTC_SetDate+0x130>
 800358e:	f6a3 630f 	subw	r3, r3, #3599	; 0xe0f
 8003592:	fbb0 f5f3 	udiv	r5, r0, r3
 8003596:	fb03 0515 	mls	r5, r3, r5, r0
 800359a:	4620      	mov	r0, r4
 800359c:	4629      	mov	r1, r5
 800359e:	f7ff fef2 	bl	8003386 <RTC_WriteTimeCounter>
 80035a2:	4606      	mov	r6, r0
 80035a4:	b398      	cbz	r0, 800360e <HAL_RTC_SetDate+0x10a>
 80035a6:	2304      	movs	r3, #4
 80035a8:	7463      	strb	r3, [r4, #17]
 80035aa:	2300      	movs	r3, #0
 80035ac:	7423      	strb	r3, [r4, #16]
 80035ae:	2001      	movs	r0, #1
 80035b0:	bd70      	pop	{r4, r5, r6, pc}
 80035b2:	f7ff fe7a 	bl	80032aa <RTC_Bcd2ToByte>
 80035b6:	2863      	cmp	r0, #99	; 0x63
 80035b8:	d904      	bls.n	80035c4 <HAL_RTC_SetDate+0xc0>
 80035ba:	f240 21cf 	movw	r1, #719	; 0x2cf
 80035be:	4820      	ldr	r0, [pc, #128]	; (8003640 <HAL_RTC_SetDate+0x13c>)
 80035c0:	f003 f89e 	bl	8006700 <assert_failed>
 80035c4:	7868      	ldrb	r0, [r5, #1]
 80035c6:	f7ff fe70 	bl	80032aa <RTC_Bcd2ToByte>
 80035ca:	3801      	subs	r0, #1
 80035cc:	b2c0      	uxtb	r0, r0
 80035ce:	280b      	cmp	r0, #11
 80035d0:	d904      	bls.n	80035dc <HAL_RTC_SetDate+0xd8>
 80035d2:	f44f 7134 	mov.w	r1, #720	; 0x2d0
 80035d6:	481a      	ldr	r0, [pc, #104]	; (8003640 <HAL_RTC_SetDate+0x13c>)
 80035d8:	f003 f892 	bl	8006700 <assert_failed>
 80035dc:	78a8      	ldrb	r0, [r5, #2]
 80035de:	f7ff fe64 	bl	80032aa <RTC_Bcd2ToByte>
 80035e2:	3801      	subs	r0, #1
 80035e4:	b2c0      	uxtb	r0, r0
 80035e6:	281e      	cmp	r0, #30
 80035e8:	d904      	bls.n	80035f4 <HAL_RTC_SetDate+0xf0>
 80035ea:	f240 21d1 	movw	r1, #721	; 0x2d1
 80035ee:	4814      	ldr	r0, [pc, #80]	; (8003640 <HAL_RTC_SetDate+0x13c>)
 80035f0:	f003 f886 	bl	8006700 <assert_failed>
 80035f4:	78e8      	ldrb	r0, [r5, #3]
 80035f6:	f7ff fe58 	bl	80032aa <RTC_Bcd2ToByte>
 80035fa:	73e0      	strb	r0, [r4, #15]
 80035fc:	7868      	ldrb	r0, [r5, #1]
 80035fe:	f7ff fe54 	bl	80032aa <RTC_Bcd2ToByte>
 8003602:	7360      	strb	r0, [r4, #13]
 8003604:	78a8      	ldrb	r0, [r5, #2]
 8003606:	f7ff fe50 	bl	80032aa <RTC_Bcd2ToByte>
 800360a:	73a0      	strb	r0, [r4, #14]
 800360c:	e7b2      	b.n	8003574 <HAL_RTC_SetDate+0x70>
 800360e:	4620      	mov	r0, r4
 8003610:	f7ff fe44 	bl	800329c <RTC_ReadAlarmCounter>
 8003614:	1c43      	adds	r3, r0, #1
 8003616:	d00d      	beq.n	8003634 <HAL_RTC_SetDate+0x130>
 8003618:	4285      	cmp	r5, r0
 800361a:	d90b      	bls.n	8003634 <HAL_RTC_SetDate+0x130>
 800361c:	f500 31a8 	add.w	r1, r0, #86016	; 0x15000
 8003620:	f501 71c0 	add.w	r1, r1, #384	; 0x180
 8003624:	4620      	mov	r0, r4
 8003626:	f7ff fec2 	bl	80033ae <RTC_WriteAlarmCounter>
 800362a:	b118      	cbz	r0, 8003634 <HAL_RTC_SetDate+0x130>
 800362c:	2304      	movs	r3, #4
 800362e:	7426      	strb	r6, [r4, #16]
 8003630:	7463      	strb	r3, [r4, #17]
 8003632:	e7bc      	b.n	80035ae <HAL_RTC_SetDate+0xaa>
 8003634:	2301      	movs	r3, #1
 8003636:	2000      	movs	r0, #0
 8003638:	7463      	strb	r3, [r4, #17]
 800363a:	7420      	strb	r0, [r4, #16]
 800363c:	bd70      	pop	{r4, r5, r6, pc}
 800363e:	bf00      	nop
 8003640:	08007de2 	.word	0x08007de2
 8003644:	00015f8f 	.word	0x00015f8f

08003648 <HAL_RTC_WaitForSynchro>:
 8003648:	b538      	push	{r3, r4, r5, lr}
 800364a:	4604      	mov	r4, r0
 800364c:	b1a8      	cbz	r0, 800367a <HAL_RTC_WaitForSynchro+0x32>
 800364e:	6802      	ldr	r2, [r0, #0]
 8003650:	6853      	ldr	r3, [r2, #4]
 8003652:	f023 0308 	bic.w	r3, r3, #8
 8003656:	6053      	str	r3, [r2, #4]
 8003658:	f7fd fdba 	bl	80011d0 <HAL_GetTick>
 800365c:	4605      	mov	r5, r0
 800365e:	6823      	ldr	r3, [r4, #0]
 8003660:	685b      	ldr	r3, [r3, #4]
 8003662:	071b      	lsls	r3, r3, #28
 8003664:	d501      	bpl.n	800366a <HAL_RTC_WaitForSynchro+0x22>
 8003666:	2000      	movs	r0, #0
 8003668:	bd38      	pop	{r3, r4, r5, pc}
 800366a:	f7fd fdb1 	bl	80011d0 <HAL_GetTick>
 800366e:	1b40      	subs	r0, r0, r5
 8003670:	f5b0 7f7a 	cmp.w	r0, #1000	; 0x3e8
 8003674:	d9f3      	bls.n	800365e <HAL_RTC_WaitForSynchro+0x16>
 8003676:	2003      	movs	r0, #3
 8003678:	bd38      	pop	{r3, r4, r5, pc}
 800367a:	2001      	movs	r0, #1
 800367c:	bd38      	pop	{r3, r4, r5, pc}
	...

08003680 <HAL_RTC_Init>:
 8003680:	b510      	push	{r4, lr}
 8003682:	4604      	mov	r4, r0
 8003684:	b370      	cbz	r0, 80036e4 <HAL_RTC_Init+0x64>
 8003686:	6802      	ldr	r2, [r0, #0]
 8003688:	4b34      	ldr	r3, [pc, #208]	; (800375c <HAL_RTC_Init+0xdc>)
 800368a:	429a      	cmp	r2, r3
 800368c:	d003      	beq.n	8003696 <HAL_RTC_Init+0x16>
 800368e:	21fc      	movs	r1, #252	; 0xfc
 8003690:	4833      	ldr	r0, [pc, #204]	; (8003760 <HAL_RTC_Init+0xe0>)
 8003692:	f003 f835 	bl	8006700 <assert_failed>
 8003696:	68a3      	ldr	r3, [r4, #8]
 8003698:	f033 0280 	bics.w	r2, r3, #128	; 0x80
 800369c:	d008      	beq.n	80036b0 <HAL_RTC_Init+0x30>
 800369e:	f423 7300 	bic.w	r3, r3, #512	; 0x200
 80036a2:	f5b3 7f80 	cmp.w	r3, #256	; 0x100
 80036a6:	d003      	beq.n	80036b0 <HAL_RTC_Init+0x30>
 80036a8:	21fd      	movs	r1, #253	; 0xfd
 80036aa:	482d      	ldr	r0, [pc, #180]	; (8003760 <HAL_RTC_Init+0xe0>)
 80036ac:	f003 f828 	bl	8006700 <assert_failed>
 80036b0:	6863      	ldr	r3, [r4, #4]
 80036b2:	4a2c      	ldr	r2, [pc, #176]	; (8003764 <HAL_RTC_Init+0xe4>)
 80036b4:	f5a3 1380 	sub.w	r3, r3, #1048576	; 0x100000
 80036b8:	4293      	cmp	r3, r2
 80036ba:	d803      	bhi.n	80036c4 <HAL_RTC_Init+0x44>
 80036bc:	21fe      	movs	r1, #254	; 0xfe
 80036be:	4828      	ldr	r0, [pc, #160]	; (8003760 <HAL_RTC_Init+0xe0>)
 80036c0:	f003 f81e 	bl	8006700 <assert_failed>
 80036c4:	7c63      	ldrb	r3, [r4, #17]
 80036c6:	f003 02ff 	and.w	r2, r3, #255	; 0xff
 80036ca:	b91b      	cbnz	r3, 80036d4 <HAL_RTC_Init+0x54>
 80036cc:	7422      	strb	r2, [r4, #16]
 80036ce:	4620      	mov	r0, r4
 80036d0:	f003 f8c0 	bl	8006854 <HAL_RTC_MspInit>
 80036d4:	2302      	movs	r3, #2
 80036d6:	4620      	mov	r0, r4
 80036d8:	7463      	strb	r3, [r4, #17]
 80036da:	f7ff ffb5 	bl	8003648 <HAL_RTC_WaitForSynchro>
 80036de:	b118      	cbz	r0, 80036e8 <HAL_RTC_Init+0x68>
 80036e0:	2304      	movs	r3, #4
 80036e2:	7463      	strb	r3, [r4, #17]
 80036e4:	2001      	movs	r0, #1
 80036e6:	bd10      	pop	{r4, pc}
 80036e8:	4620      	mov	r0, r4
 80036ea:	f7ff fe1d 	bl	8003328 <RTC_EnterInitMode>
 80036ee:	2800      	cmp	r0, #0
 80036f0:	d1f6      	bne.n	80036e0 <HAL_RTC_Init+0x60>
 80036f2:	6822      	ldr	r2, [r4, #0]
 80036f4:	68a0      	ldr	r0, [r4, #8]
 80036f6:	6853      	ldr	r3, [r2, #4]
 80036f8:	f023 0307 	bic.w	r3, r3, #7
 80036fc:	6053      	str	r3, [r2, #4]
 80036fe:	4a1a      	ldr	r2, [pc, #104]	; (8003768 <HAL_RTC_Init+0xe8>)
 8003700:	b118      	cbz	r0, 800370a <HAL_RTC_Init+0x8a>
 8003702:	6b11      	ldr	r1, [r2, #48]	; 0x30
 8003704:	f021 0101 	bic.w	r1, r1, #1
 8003708:	6311      	str	r1, [r2, #48]	; 0x30
 800370a:	6ad3      	ldr	r3, [r2, #44]	; 0x2c
 800370c:	f423 7360 	bic.w	r3, r3, #896	; 0x380
 8003710:	4303      	orrs	r3, r0
 8003712:	62d3      	str	r3, [r2, #44]	; 0x2c
 8003714:	6860      	ldr	r0, [r4, #4]
 8003716:	1c43      	adds	r3, r0, #1
 8003718:	d105      	bne.n	8003726 <HAL_RTC_Init+0xa6>
 800371a:	2001      	movs	r0, #1
 800371c:	f7ff fd2c 	bl	8003178 <HAL_RCCEx_GetPeriphCLKFreq>
 8003720:	2800      	cmp	r0, #0
 8003722:	d0dd      	beq.n	80036e0 <HAL_RTC_Init+0x60>
 8003724:	3801      	subs	r0, #1
 8003726:	6822      	ldr	r2, [r4, #0]
 8003728:	6893      	ldr	r3, [r2, #8]
 800372a:	f023 030f 	bic.w	r3, r3, #15
 800372e:	ea43 4310 	orr.w	r3, r3, r0, lsr #16
 8003732:	6093      	str	r3, [r2, #8]
 8003734:	68d3      	ldr	r3, [r2, #12]
 8003736:	b280      	uxth	r0, r0
 8003738:	0c1b      	lsrs	r3, r3, #16
 800373a:	041b      	lsls	r3, r3, #16
 800373c:	4318      	orrs	r0, r3
 800373e:	60d0      	str	r0, [r2, #12]
 8003740:	4620      	mov	r0, r4
 8003742:	f7ff fe08 	bl	8003356 <RTC_ExitInitMode>
 8003746:	2301      	movs	r3, #1
 8003748:	b110      	cbz	r0, 8003750 <HAL_RTC_Init+0xd0>
 800374a:	2204      	movs	r2, #4
 800374c:	7462      	strb	r2, [r4, #17]
 800374e:	e7c9      	b.n	80036e4 <HAL_RTC_Init+0x64>
 8003750:	73e0      	strb	r0, [r4, #15]
 8003752:	7363      	strb	r3, [r4, #13]
 8003754:	73a3      	strb	r3, [r4, #14]
 8003756:	7463      	strb	r3, [r4, #17]
 8003758:	bd10      	pop	{r4, pc}
 800375a:	bf00      	nop
 800375c:	40002800 	.word	0x40002800
 8003760:	08007de2 	.word	0x08007de2
 8003764:	ffeffffe 	.word	0xffeffffe
 8003768:	40006c00 	.word	0x40006c00

0800376c <TIM_OC1_SetConfig>:
 800376c:	6a03      	ldr	r3, [r0, #32]
 800376e:	e92d 41f0 	stmdb	sp!, {r4, r5, r6, r7, r8, lr}
 8003772:	f023 0301 	bic.w	r3, r3, #1
 8003776:	6203      	str	r3, [r0, #32]
 8003778:	6a04      	ldr	r4, [r0, #32]
 800377a:	f8d0 8004 	ldr.w	r8, [r0, #4]
 800377e:	6986      	ldr	r6, [r0, #24]
 8003780:	680b      	ldr	r3, [r1, #0]
 8003782:	f026 0673 	bic.w	r6, r6, #115	; 0x73
 8003786:	431e      	orrs	r6, r3
 8003788:	688b      	ldr	r3, [r1, #8]
 800378a:	f024 0402 	bic.w	r4, r4, #2
 800378e:	431c      	orrs	r4, r3
 8003790:	4b1a      	ldr	r3, [pc, #104]	; (80037fc <TIM_OC1_SetConfig+0x90>)
 8003792:	4605      	mov	r5, r0
 8003794:	4298      	cmp	r0, r3
 8003796:	460f      	mov	r7, r1
 8003798:	d127      	bne.n	80037ea <TIM_OC1_SetConfig+0x7e>
 800379a:	68cb      	ldr	r3, [r1, #12]
 800379c:	f033 0308 	bics.w	r3, r3, #8
 80037a0:	d004      	beq.n	80037ac <TIM_OC1_SetConfig+0x40>
 80037a2:	f241 213f 	movw	r1, #4671	; 0x123f
 80037a6:	4816      	ldr	r0, [pc, #88]	; (8003800 <TIM_OC1_SetConfig+0x94>)
 80037a8:	f002 ffaa 	bl	8006700 <assert_failed>
 80037ac:	68fb      	ldr	r3, [r7, #12]
 80037ae:	f024 0408 	bic.w	r4, r4, #8
 80037b2:	431c      	orrs	r4, r3
 80037b4:	69bb      	ldr	r3, [r7, #24]
 80037b6:	f024 0404 	bic.w	r4, r4, #4
 80037ba:	f433 7300 	bics.w	r3, r3, #512	; 0x200
 80037be:	d004      	beq.n	80037ca <TIM_OC1_SetConfig+0x5e>
 80037c0:	f241 214c 	movw	r1, #4684	; 0x124c
 80037c4:	480e      	ldr	r0, [pc, #56]	; (8003800 <TIM_OC1_SetConfig+0x94>)
 80037c6:	f002 ff9b 	bl	8006700 <assert_failed>
 80037ca:	697b      	ldr	r3, [r7, #20]
 80037cc:	f433 7380 	bics.w	r3, r3, #256	; 0x100
 80037d0:	d004      	beq.n	80037dc <TIM_OC1_SetConfig+0x70>
 80037d2:	f241 214d 	movw	r1, #4685	; 0x124d
 80037d6:	480a      	ldr	r0, [pc, #40]	; (8003800 <TIM_OC1_SetConfig+0x94>)
 80037d8:	f002 ff92 	bl	8006700 <assert_failed>
 80037dc:	697b      	ldr	r3, [r7, #20]
 80037de:	69ba      	ldr	r2, [r7, #24]
 80037e0:	f428 7840 	bic.w	r8, r8, #768	; 0x300
 80037e4:	4313      	orrs	r3, r2
 80037e6:	ea43 0808 	orr.w	r8, r3, r8
 80037ea:	687b      	ldr	r3, [r7, #4]
 80037ec:	f8c5 8004 	str.w	r8, [r5, #4]
 80037f0:	61ae      	str	r6, [r5, #24]
 80037f2:	636b      	str	r3, [r5, #52]	; 0x34
 80037f4:	622c      	str	r4, [r5, #32]
 80037f6:	e8bd 81f0 	ldmia.w	sp!, {r4, r5, r6, r7, r8, pc}
 80037fa:	bf00      	nop
 80037fc:	40012c00 	.word	0x40012c00
 8003800:	08007e1a 	.word	0x08007e1a

08003804 <TIM_OC3_SetConfig>:
 8003804:	6a03      	ldr	r3, [r0, #32]
 8003806:	e92d 41f0 	stmdb	sp!, {r4, r5, r6, r7, r8, lr}
 800380a:	f423 7380 	bic.w	r3, r3, #256	; 0x100
 800380e:	6203      	str	r3, [r0, #32]
 8003810:	6a04      	ldr	r4, [r0, #32]
 8003812:	f8d0 8004 	ldr.w	r8, [r0, #4]
 8003816:	69c6      	ldr	r6, [r0, #28]
 8003818:	680b      	ldr	r3, [r1, #0]
 800381a:	f026 0673 	bic.w	r6, r6, #115	; 0x73
 800381e:	431e      	orrs	r6, r3
 8003820:	688b      	ldr	r3, [r1, #8]
 8003822:	f424 7400 	bic.w	r4, r4, #512	; 0x200
 8003826:	ea44 2403 	orr.w	r4, r4, r3, lsl #8
 800382a:	4b1b      	ldr	r3, [pc, #108]	; (8003898 <TIM_OC3_SetConfig+0x94>)
 800382c:	4605      	mov	r5, r0
 800382e:	4298      	cmp	r0, r3
 8003830:	460f      	mov	r7, r1
 8003832:	d128      	bne.n	8003886 <TIM_OC3_SetConfig+0x82>
 8003834:	68cb      	ldr	r3, [r1, #12]
 8003836:	f033 0308 	bics.w	r3, r3, #8
 800383a:	d004      	beq.n	8003846 <TIM_OC3_SetConfig+0x42>
 800383c:	f241 21d4 	movw	r1, #4820	; 0x12d4
 8003840:	4816      	ldr	r0, [pc, #88]	; (800389c <TIM_OC3_SetConfig+0x98>)
 8003842:	f002 ff5d 	bl	8006700 <assert_failed>
 8003846:	68fb      	ldr	r3, [r7, #12]
 8003848:	f424 6400 	bic.w	r4, r4, #2048	; 0x800
 800384c:	ea44 2403 	orr.w	r4, r4, r3, lsl #8
 8003850:	69bb      	ldr	r3, [r7, #24]
 8003852:	f424 6480 	bic.w	r4, r4, #1024	; 0x400
 8003856:	f433 7300 	bics.w	r3, r3, #512	; 0x200
 800385a:	d004      	beq.n	8003866 <TIM_OC3_SetConfig+0x62>
 800385c:	f241 21e1 	movw	r1, #4833	; 0x12e1
 8003860:	480e      	ldr	r0, [pc, #56]	; (800389c <TIM_OC3_SetConfig+0x98>)
 8003862:	f002 ff4d 	bl	8006700 <assert_failed>
 8003866:	697b      	ldr	r3, [r7, #20]
 8003868:	f433 7380 	bics.w	r3, r3, #256	; 0x100
 800386c:	d004      	beq.n	8003878 <TIM_OC3_SetConfig+0x74>
 800386e:	f241 21e2 	movw	r1, #4834	; 0x12e2
 8003872:	480a      	ldr	r0, [pc, #40]	; (800389c <TIM_OC3_SetConfig+0x98>)
 8003874:	f002 ff44 	bl	8006700 <assert_failed>
 8003878:	697b      	ldr	r3, [r7, #20]
 800387a:	69ba      	ldr	r2, [r7, #24]
 800387c:	f428 5840 	bic.w	r8, r8, #12288	; 0x3000
 8003880:	4313      	orrs	r3, r2
 8003882:	ea48 1803 	orr.w	r8, r8, r3, lsl #4
 8003886:	687b      	ldr	r3, [r7, #4]
 8003888:	f8c5 8004 	str.w	r8, [r5, #4]
 800388c:	61ee      	str	r6, [r5, #28]
 800388e:	63eb      	str	r3, [r5, #60]	; 0x3c
 8003890:	622c      	str	r4, [r5, #32]
 8003892:	e8bd 81f0 	ldmia.w	sp!, {r4, r5, r6, r7, r8, pc}
 8003896:	bf00      	nop
 8003898:	40012c00 	.word	0x40012c00
 800389c:	08007e1a 	.word	0x08007e1a

080038a0 <TIM_OC4_SetConfig>:
 80038a0:	6a03      	ldr	r3, [r0, #32]
 80038a2:	e92d 41f0 	stmdb	sp!, {r4, r5, r6, r7, r8, lr}
 80038a6:	f423 5380 	bic.w	r3, r3, #4096	; 0x1000
 80038aa:	6203      	str	r3, [r0, #32]
 80038ac:	6a05      	ldr	r5, [r0, #32]
 80038ae:	f8d0 8004 	ldr.w	r8, [r0, #4]
 80038b2:	69c7      	ldr	r7, [r0, #28]
 80038b4:	680b      	ldr	r3, [r1, #0]
 80038b6:	f427 47e6 	bic.w	r7, r7, #29440	; 0x7300
 80038ba:	ea47 2703 	orr.w	r7, r7, r3, lsl #8
 80038be:	688b      	ldr	r3, [r1, #8]
 80038c0:	f425 5500 	bic.w	r5, r5, #8192	; 0x2000
 80038c4:	ea45 3503 	orr.w	r5, r5, r3, lsl #12
 80038c8:	4b0d      	ldr	r3, [pc, #52]	; (8003900 <TIM_OC4_SetConfig+0x60>)
 80038ca:	4604      	mov	r4, r0
 80038cc:	4298      	cmp	r0, r3
 80038ce:	460e      	mov	r6, r1
 80038d0:	d10d      	bne.n	80038ee <TIM_OC4_SetConfig+0x4e>
 80038d2:	694b      	ldr	r3, [r1, #20]
 80038d4:	f433 7380 	bics.w	r3, r3, #256	; 0x100
 80038d8:	d004      	beq.n	80038e4 <TIM_OC4_SetConfig+0x44>
 80038da:	f241 311f 	movw	r1, #4895	; 0x131f
 80038de:	4809      	ldr	r0, [pc, #36]	; (8003904 <TIM_OC4_SetConfig+0x64>)
 80038e0:	f002 ff0e 	bl	8006700 <assert_failed>
 80038e4:	6973      	ldr	r3, [r6, #20]
 80038e6:	f428 4880 	bic.w	r8, r8, #16384	; 0x4000
 80038ea:	ea48 1883 	orr.w	r8, r8, r3, lsl #6
 80038ee:	6873      	ldr	r3, [r6, #4]
 80038f0:	f8c4 8004 	str.w	r8, [r4, #4]
 80038f4:	61e7      	str	r7, [r4, #28]
 80038f6:	6423      	str	r3, [r4, #64]	; 0x40
 80038f8:	6225      	str	r5, [r4, #32]
 80038fa:	e8bd 81f0 	ldmia.w	sp!, {r4, r5, r6, r7, r8, pc}
 80038fe:	bf00      	nop
 8003900:	40012c00 	.word	0x40012c00
 8003904:	08007e1a 	.word	0x08007e1a

08003908 <HAL_TIM_Base_Start_IT>:
 8003908:	6803      	ldr	r3, [r0, #0]
 800390a:	4a10      	ldr	r2, [pc, #64]	; (800394c <HAL_TIM_Base_Start_IT+0x44>)
 800390c:	b510      	push	{r4, lr}
 800390e:	4293      	cmp	r3, r2
 8003910:	4604      	mov	r4, r0
 8003912:	d00f      	beq.n	8003934 <HAL_TIM_Base_Start_IT+0x2c>
 8003914:	f1b3 4f80 	cmp.w	r3, #1073741824	; 0x40000000
 8003918:	d00c      	beq.n	8003934 <HAL_TIM_Base_Start_IT+0x2c>
 800391a:	f5a2 3294 	sub.w	r2, r2, #75776	; 0x12800
 800391e:	4293      	cmp	r3, r2
 8003920:	d008      	beq.n	8003934 <HAL_TIM_Base_Start_IT+0x2c>
 8003922:	f502 6280 	add.w	r2, r2, #1024	; 0x400
 8003926:	4293      	cmp	r3, r2
 8003928:	d004      	beq.n	8003934 <HAL_TIM_Base_Start_IT+0x2c>
 800392a:	f240 1161 	movw	r1, #353	; 0x161
 800392e:	4808      	ldr	r0, [pc, #32]	; (8003950 <HAL_TIM_Base_Start_IT+0x48>)
 8003930:	f002 fee6 	bl	8006700 <assert_failed>
 8003934:	6823      	ldr	r3, [r4, #0]
 8003936:	2000      	movs	r0, #0
 8003938:	68da      	ldr	r2, [r3, #12]
 800393a:	f042 0201 	orr.w	r2, r2, #1
 800393e:	60da      	str	r2, [r3, #12]
 8003940:	681a      	ldr	r2, [r3, #0]
 8003942:	f042 0201 	orr.w	r2, r2, #1
 8003946:	601a      	str	r2, [r3, #0]
 8003948:	bd10      	pop	{r4, pc}
 800394a:	bf00      	nop
 800394c:	40012c00 	.word	0x40012c00
 8003950:	08007e1a 	.word	0x08007e1a

08003954 <HAL_TIM_IC_MspInit>:
 8003954:	4770      	bx	lr
	...

08003958 <HAL_TIM_ConfigClockSource>:
 8003958:	f890 303c 	ldrb.w	r3, [r0, #60]	; 0x3c
 800395c:	b570      	push	{r4, r5, r6, lr}
 800395e:	2b01      	cmp	r3, #1
 8003960:	4605      	mov	r5, r0
 8003962:	460c      	mov	r4, r1
 8003964:	f04f 0002 	mov.w	r0, #2
 8003968:	d02e      	beq.n	80039c8 <HAL_TIM_ConfigClockSource+0x70>
 800396a:	2301      	movs	r3, #1
 800396c:	f885 303c 	strb.w	r3, [r5, #60]	; 0x3c
 8003970:	680b      	ldr	r3, [r1, #0]
 8003972:	f885 003d 	strb.w	r0, [r5, #61]	; 0x3d
 8003976:	f5b3 5f80 	cmp.w	r3, #4096	; 0x1000
 800397a:	d00c      	beq.n	8003996 <HAL_TIM_ConfigClockSource+0x3e>
 800397c:	f5b3 5f00 	cmp.w	r3, #8192	; 0x2000
 8003980:	d009      	beq.n	8003996 <HAL_TIM_ConfigClockSource+0x3e>
 8003982:	f033 0330 	bics.w	r3, r3, #48	; 0x30
 8003986:	d006      	beq.n	8003996 <HAL_TIM_ConfigClockSource+0x3e>
 8003988:	2b40      	cmp	r3, #64	; 0x40
 800398a:	d004      	beq.n	8003996 <HAL_TIM_ConfigClockSource+0x3e>
 800398c:	f640 7171 	movw	r1, #3953	; 0xf71
 8003990:	48b5      	ldr	r0, [pc, #724]	; (8003c68 <HAL_TIM_ConfigClockSource+0x310>)
 8003992:	f002 feb5 	bl	8006700 <assert_failed>
 8003996:	682b      	ldr	r3, [r5, #0]
 8003998:	689a      	ldr	r2, [r3, #8]
 800399a:	f422 427f 	bic.w	r2, r2, #65280	; 0xff00
 800399e:	f022 0277 	bic.w	r2, r2, #119	; 0x77
 80039a2:	609a      	str	r2, [r3, #8]
 80039a4:	6822      	ldr	r2, [r4, #0]
 80039a6:	2a40      	cmp	r2, #64	; 0x40
 80039a8:	f000 8162 	beq.w	8003c70 <HAL_TIM_ConfigClockSource+0x318>
 80039ac:	d82c      	bhi.n	8003a08 <HAL_TIM_ConfigClockSource+0xb0>
 80039ae:	2a10      	cmp	r2, #16
 80039b0:	f000 81b9 	beq.w	8003d26 <HAL_TIM_ConfigClockSource+0x3ce>
 80039b4:	d809      	bhi.n	80039ca <HAL_TIM_ConfigClockSource+0x72>
 80039b6:	2a00      	cmp	r2, #0
 80039b8:	f000 819b 	beq.w	8003cf2 <HAL_TIM_ConfigClockSource+0x39a>
 80039bc:	2301      	movs	r3, #1
 80039be:	2000      	movs	r0, #0
 80039c0:	f885 303d 	strb.w	r3, [r5, #61]	; 0x3d
 80039c4:	f885 003c 	strb.w	r0, [r5, #60]	; 0x3c
 80039c8:	bd70      	pop	{r4, r5, r6, pc}
 80039ca:	2a20      	cmp	r2, #32
 80039cc:	f000 81c5 	beq.w	8003d5a <HAL_TIM_ConfigClockSource+0x402>
 80039d0:	2a30      	cmp	r2, #48	; 0x30
 80039d2:	d1f3      	bne.n	80039bc <HAL_TIM_ConfigClockSource+0x64>
 80039d4:	4aa5      	ldr	r2, [pc, #660]	; (8003c6c <HAL_TIM_ConfigClockSource+0x314>)
 80039d6:	4293      	cmp	r3, r2
 80039d8:	d00f      	beq.n	80039fa <HAL_TIM_ConfigClockSource+0xa2>
 80039da:	f1b3 4f80 	cmp.w	r3, #1073741824	; 0x40000000
 80039de:	d00c      	beq.n	80039fa <HAL_TIM_ConfigClockSource+0xa2>
 80039e0:	f5a2 3294 	sub.w	r2, r2, #75776	; 0x12800
 80039e4:	4293      	cmp	r3, r2
 80039e6:	d008      	beq.n	80039fa <HAL_TIM_ConfigClockSource+0xa2>
 80039e8:	f502 6280 	add.w	r2, r2, #1024	; 0x400
 80039ec:	4293      	cmp	r3, r2
 80039ee:	d004      	beq.n	80039fa <HAL_TIM_ConfigClockSource+0xa2>
 80039f0:	f640 71f9 	movw	r1, #4089	; 0xff9
 80039f4:	489c      	ldr	r0, [pc, #624]	; (8003c68 <HAL_TIM_ConfigClockSource+0x310>)
 80039f6:	f002 fe83 	bl	8006700 <assert_failed>
 80039fa:	682a      	ldr	r2, [r5, #0]
 80039fc:	6893      	ldr	r3, [r2, #8]
 80039fe:	f023 0370 	bic.w	r3, r3, #112	; 0x70
 8003a02:	f043 0337 	orr.w	r3, r3, #55	; 0x37
 8003a06:	e0a9      	b.n	8003b5c <HAL_TIM_ConfigClockSource+0x204>
 8003a08:	2a70      	cmp	r2, #112	; 0x70
 8003a0a:	f000 80a9 	beq.w	8003b60 <HAL_TIM_ConfigClockSource+0x208>
 8003a0e:	d846      	bhi.n	8003a9e <HAL_TIM_ConfigClockSource+0x146>
 8003a10:	2a50      	cmp	r2, #80	; 0x50
 8003a12:	f000 80e7 	beq.w	8003be4 <HAL_TIM_ConfigClockSource+0x28c>
 8003a16:	2a60      	cmp	r2, #96	; 0x60
 8003a18:	d1d0      	bne.n	80039bc <HAL_TIM_ConfigClockSource+0x64>
 8003a1a:	4a94      	ldr	r2, [pc, #592]	; (8003c6c <HAL_TIM_ConfigClockSource+0x314>)
 8003a1c:	4293      	cmp	r3, r2
 8003a1e:	d00f      	beq.n	8003a40 <HAL_TIM_ConfigClockSource+0xe8>
 8003a20:	f1b3 4f80 	cmp.w	r3, #1073741824	; 0x40000000
 8003a24:	d00c      	beq.n	8003a40 <HAL_TIM_ConfigClockSource+0xe8>
 8003a26:	f5a2 3294 	sub.w	r2, r2, #75776	; 0x12800
 8003a2a:	4293      	cmp	r3, r2
 8003a2c:	d008      	beq.n	8003a40 <HAL_TIM_ConfigClockSource+0xe8>
 8003a2e:	f502 6280 	add.w	r2, r2, #1024	; 0x400
 8003a32:	4293      	cmp	r3, r2
 8003a34:	d004      	beq.n	8003a40 <HAL_TIM_ConfigClockSource+0xe8>
 8003a36:	f640 71c3 	movw	r1, #4035	; 0xfc3
 8003a3a:	488b      	ldr	r0, [pc, #556]	; (8003c68 <HAL_TIM_ConfigClockSource+0x310>)
 8003a3c:	f002 fe60 	bl	8006700 <assert_failed>
 8003a40:	6863      	ldr	r3, [r4, #4]
 8003a42:	f5b3 4f00 	cmp.w	r3, #32768	; 0x8000
 8003a46:	d009      	beq.n	8003a5c <HAL_TIM_ConfigClockSource+0x104>
 8003a48:	f033 0202 	bics.w	r2, r3, #2
 8003a4c:	d006      	beq.n	8003a5c <HAL_TIM_ConfigClockSource+0x104>
 8003a4e:	2b0a      	cmp	r3, #10
 8003a50:	d004      	beq.n	8003a5c <HAL_TIM_ConfigClockSource+0x104>
 8003a52:	f640 71c6 	movw	r1, #4038	; 0xfc6
 8003a56:	4884      	ldr	r0, [pc, #528]	; (8003c68 <HAL_TIM_ConfigClockSource+0x310>)
 8003a58:	f002 fe52 	bl	8006700 <assert_failed>
 8003a5c:	68e3      	ldr	r3, [r4, #12]
 8003a5e:	2b0f      	cmp	r3, #15
 8003a60:	d904      	bls.n	8003a6c <HAL_TIM_ConfigClockSource+0x114>
 8003a62:	f640 71c7 	movw	r1, #4039	; 0xfc7
 8003a66:	4880      	ldr	r0, [pc, #512]	; (8003c68 <HAL_TIM_ConfigClockSource+0x310>)
 8003a68:	f002 fe4a 	bl	8006700 <assert_failed>
 8003a6c:	682b      	ldr	r3, [r5, #0]
 8003a6e:	6866      	ldr	r6, [r4, #4]
 8003a70:	6a18      	ldr	r0, [r3, #32]
 8003a72:	68e4      	ldr	r4, [r4, #12]
 8003a74:	f020 0010 	bic.w	r0, r0, #16
 8003a78:	6218      	str	r0, [r3, #32]
 8003a7a:	6999      	ldr	r1, [r3, #24]
 8003a7c:	6a1a      	ldr	r2, [r3, #32]
 8003a7e:	f421 4170 	bic.w	r1, r1, #61440	; 0xf000
 8003a82:	f022 02a0 	bic.w	r2, r2, #160	; 0xa0
 8003a86:	ea42 1206 	orr.w	r2, r2, r6, lsl #4
 8003a8a:	ea41 3104 	orr.w	r1, r1, r4, lsl #12
 8003a8e:	6199      	str	r1, [r3, #24]
 8003a90:	621a      	str	r2, [r3, #32]
 8003a92:	689a      	ldr	r2, [r3, #8]
 8003a94:	f022 0270 	bic.w	r2, r2, #112	; 0x70
 8003a98:	f042 0267 	orr.w	r2, r2, #103	; 0x67
 8003a9c:	e0e2      	b.n	8003c64 <HAL_TIM_ConfigClockSource+0x30c>
 8003a9e:	f5b2 5f80 	cmp.w	r2, #4096	; 0x1000
 8003aa2:	d044      	beq.n	8003b2e <HAL_TIM_ConfigClockSource+0x1d6>
 8003aa4:	f5b2 5f00 	cmp.w	r2, #8192	; 0x2000
 8003aa8:	d188      	bne.n	80039bc <HAL_TIM_ConfigClockSource+0x64>
 8003aaa:	4a70      	ldr	r2, [pc, #448]	; (8003c6c <HAL_TIM_ConfigClockSource+0x314>)
 8003aac:	4293      	cmp	r3, r2
 8003aae:	d00f      	beq.n	8003ad0 <HAL_TIM_ConfigClockSource+0x178>
 8003ab0:	f1b3 4f80 	cmp.w	r3, #1073741824	; 0x40000000
 8003ab4:	d00c      	beq.n	8003ad0 <HAL_TIM_ConfigClockSource+0x178>
 8003ab6:	f5a2 3294 	sub.w	r2, r2, #75776	; 0x12800
 8003aba:	4293      	cmp	r3, r2
 8003abc:	d008      	beq.n	8003ad0 <HAL_TIM_ConfigClockSource+0x178>
 8003abe:	f502 6280 	add.w	r2, r2, #1024	; 0x400
 8003ac2:	4293      	cmp	r3, r2
 8003ac4:	d004      	beq.n	8003ad0 <HAL_TIM_ConfigClockSource+0x178>
 8003ac6:	f44f 617a 	mov.w	r1, #4000	; 0xfa0
 8003aca:	4867      	ldr	r0, [pc, #412]	; (8003c68 <HAL_TIM_ConfigClockSource+0x310>)
 8003acc:	f002 fe18 	bl	8006700 <assert_failed>
 8003ad0:	68a3      	ldr	r3, [r4, #8]
 8003ad2:	f433 5340 	bics.w	r3, r3, #12288	; 0x3000
 8003ad6:	d004      	beq.n	8003ae2 <HAL_TIM_ConfigClockSource+0x18a>
 8003ad8:	f640 71a3 	movw	r1, #4003	; 0xfa3
 8003adc:	4862      	ldr	r0, [pc, #392]	; (8003c68 <HAL_TIM_ConfigClockSource+0x310>)
 8003ade:	f002 fe0f 	bl	8006700 <assert_failed>
 8003ae2:	6863      	ldr	r3, [r4, #4]
 8003ae4:	f5b3 4f00 	cmp.w	r3, #32768	; 0x8000
 8003ae8:	d009      	beq.n	8003afe <HAL_TIM_ConfigClockSource+0x1a6>
 8003aea:	f033 0202 	bics.w	r2, r3, #2
 8003aee:	d006      	beq.n	8003afe <HAL_TIM_ConfigClockSource+0x1a6>
 8003af0:	2b0a      	cmp	r3, #10
 8003af2:	d004      	beq.n	8003afe <HAL_TIM_ConfigClockSource+0x1a6>
 8003af4:	f640 71a4 	movw	r1, #4004	; 0xfa4
 8003af8:	485b      	ldr	r0, [pc, #364]	; (8003c68 <HAL_TIM_ConfigClockSource+0x310>)
 8003afa:	f002 fe01 	bl	8006700 <assert_failed>
 8003afe:	68e3      	ldr	r3, [r4, #12]
 8003b00:	2b0f      	cmp	r3, #15
 8003b02:	d904      	bls.n	8003b0e <HAL_TIM_ConfigClockSource+0x1b6>
 8003b04:	f640 71a5 	movw	r1, #4005	; 0xfa5
 8003b08:	4857      	ldr	r0, [pc, #348]	; (8003c68 <HAL_TIM_ConfigClockSource+0x310>)
 8003b0a:	f002 fdf9 	bl	8006700 <assert_failed>
 8003b0e:	682a      	ldr	r2, [r5, #0]
 8003b10:	6860      	ldr	r0, [r4, #4]
 8003b12:	68a3      	ldr	r3, [r4, #8]
 8003b14:	6891      	ldr	r1, [r2, #8]
 8003b16:	4303      	orrs	r3, r0
 8003b18:	68e0      	ldr	r0, [r4, #12]
 8003b1a:	f421 417f 	bic.w	r1, r1, #65280	; 0xff00
 8003b1e:	ea43 2300 	orr.w	r3, r3, r0, lsl #8
 8003b22:	430b      	orrs	r3, r1
 8003b24:	6093      	str	r3, [r2, #8]
 8003b26:	6893      	ldr	r3, [r2, #8]
 8003b28:	f443 4380 	orr.w	r3, r3, #16384	; 0x4000
 8003b2c:	e016      	b.n	8003b5c <HAL_TIM_ConfigClockSource+0x204>
 8003b2e:	4a4f      	ldr	r2, [pc, #316]	; (8003c6c <HAL_TIM_ConfigClockSource+0x314>)
 8003b30:	4293      	cmp	r3, r2
 8003b32:	d00f      	beq.n	8003b54 <HAL_TIM_ConfigClockSource+0x1fc>
 8003b34:	f1b3 4f80 	cmp.w	r3, #1073741824	; 0x40000000
 8003b38:	d00c      	beq.n	8003b54 <HAL_TIM_ConfigClockSource+0x1fc>
 8003b3a:	f5a2 3294 	sub.w	r2, r2, #75776	; 0x12800
 8003b3e:	4293      	cmp	r3, r2
 8003b40:	d008      	beq.n	8003b54 <HAL_TIM_ConfigClockSource+0x1fc>
 8003b42:	f502 6280 	add.w	r2, r2, #1024	; 0x400
 8003b46:	4293      	cmp	r3, r2
 8003b48:	d004      	beq.n	8003b54 <HAL_TIM_ConfigClockSource+0x1fc>
 8003b4a:	f640 717d 	movw	r1, #3965	; 0xf7d
 8003b4e:	4846      	ldr	r0, [pc, #280]	; (8003c68 <HAL_TIM_ConfigClockSource+0x310>)
 8003b50:	f002 fdd6 	bl	8006700 <assert_failed>
 8003b54:	682a      	ldr	r2, [r5, #0]
 8003b56:	6893      	ldr	r3, [r2, #8]
 8003b58:	f023 0307 	bic.w	r3, r3, #7
 8003b5c:	6093      	str	r3, [r2, #8]
 8003b5e:	e72d      	b.n	80039bc <HAL_TIM_ConfigClockSource+0x64>
 8003b60:	4a42      	ldr	r2, [pc, #264]	; (8003c6c <HAL_TIM_ConfigClockSource+0x314>)
 8003b62:	4293      	cmp	r3, r2
 8003b64:	d00f      	beq.n	8003b86 <HAL_TIM_ConfigClockSource+0x22e>
 8003b66:	f1b3 4f80 	cmp.w	r3, #1073741824	; 0x40000000
 8003b6a:	d00c      	beq.n	8003b86 <HAL_TIM_ConfigClockSource+0x22e>
 8003b6c:	f5a2 3294 	sub.w	r2, r2, #75776	; 0x12800
 8003b70:	4293      	cmp	r3, r2
 8003b72:	d008      	beq.n	8003b86 <HAL_TIM_ConfigClockSource+0x22e>
 8003b74:	f502 6280 	add.w	r2, r2, #1024	; 0x400
 8003b78:	4293      	cmp	r3, r2
 8003b7a:	d004      	beq.n	8003b86 <HAL_TIM_ConfigClockSource+0x22e>
 8003b7c:	f640 7186 	movw	r1, #3974	; 0xf86
 8003b80:	4839      	ldr	r0, [pc, #228]	; (8003c68 <HAL_TIM_ConfigClockSource+0x310>)
 8003b82:	f002 fdbd 	bl	8006700 <assert_failed>
 8003b86:	68a3      	ldr	r3, [r4, #8]
 8003b88:	f433 5340 	bics.w	r3, r3, #12288	; 0x3000
 8003b8c:	d004      	beq.n	8003b98 <HAL_TIM_ConfigClockSource+0x240>
 8003b8e:	f640 7189 	movw	r1, #3977	; 0xf89
 8003b92:	4835      	ldr	r0, [pc, #212]	; (8003c68 <HAL_TIM_ConfigClockSource+0x310>)
 8003b94:	f002 fdb4 	bl	8006700 <assert_failed>
 8003b98:	6863      	ldr	r3, [r4, #4]
 8003b9a:	f5b3 4f00 	cmp.w	r3, #32768	; 0x8000
 8003b9e:	d009      	beq.n	8003bb4 <HAL_TIM_ConfigClockSource+0x25c>
 8003ba0:	f033 0202 	bics.w	r2, r3, #2
 8003ba4:	d006      	beq.n	8003bb4 <HAL_TIM_ConfigClockSource+0x25c>
 8003ba6:	2b0a      	cmp	r3, #10
 8003ba8:	d004      	beq.n	8003bb4 <HAL_TIM_ConfigClockSource+0x25c>
 8003baa:	f640 718a 	movw	r1, #3978	; 0xf8a
 8003bae:	482e      	ldr	r0, [pc, #184]	; (8003c68 <HAL_TIM_ConfigClockSource+0x310>)
 8003bb0:	f002 fda6 	bl	8006700 <assert_failed>
 8003bb4:	68e3      	ldr	r3, [r4, #12]
 8003bb6:	2b0f      	cmp	r3, #15
 8003bb8:	d904      	bls.n	8003bc4 <HAL_TIM_ConfigClockSource+0x26c>
 8003bba:	f640 718b 	movw	r1, #3979	; 0xf8b
 8003bbe:	482a      	ldr	r0, [pc, #168]	; (8003c68 <HAL_TIM_ConfigClockSource+0x310>)
 8003bc0:	f002 fd9e 	bl	8006700 <assert_failed>
 8003bc4:	682a      	ldr	r2, [r5, #0]
 8003bc6:	6860      	ldr	r0, [r4, #4]
 8003bc8:	68a3      	ldr	r3, [r4, #8]
 8003bca:	6891      	ldr	r1, [r2, #8]
 8003bcc:	4303      	orrs	r3, r0
 8003bce:	68e0      	ldr	r0, [r4, #12]
 8003bd0:	f421 417f 	bic.w	r1, r1, #65280	; 0xff00
 8003bd4:	ea43 2300 	orr.w	r3, r3, r0, lsl #8
 8003bd8:	430b      	orrs	r3, r1
 8003bda:	6093      	str	r3, [r2, #8]
 8003bdc:	6893      	ldr	r3, [r2, #8]
 8003bde:	f043 0377 	orr.w	r3, r3, #119	; 0x77
 8003be2:	e7bb      	b.n	8003b5c <HAL_TIM_ConfigClockSource+0x204>
 8003be4:	4a21      	ldr	r2, [pc, #132]	; (8003c6c <HAL_TIM_ConfigClockSource+0x314>)
 8003be6:	4293      	cmp	r3, r2
 8003be8:	d00f      	beq.n	8003c0a <HAL_TIM_ConfigClockSource+0x2b2>
 8003bea:	f1b3 4f80 	cmp.w	r3, #1073741824	; 0x40000000
 8003bee:	d00c      	beq.n	8003c0a <HAL_TIM_ConfigClockSource+0x2b2>
 8003bf0:	f5a2 3294 	sub.w	r2, r2, #75776	; 0x12800
 8003bf4:	4293      	cmp	r3, r2
 8003bf6:	d008      	beq.n	8003c0a <HAL_TIM_ConfigClockSource+0x2b2>
 8003bf8:	f502 6280 	add.w	r2, r2, #1024	; 0x400
 8003bfc:	4293      	cmp	r3, r2
 8003bfe:	d004      	beq.n	8003c0a <HAL_TIM_ConfigClockSource+0x2b2>
 8003c00:	f640 71b4 	movw	r1, #4020	; 0xfb4
 8003c04:	4818      	ldr	r0, [pc, #96]	; (8003c68 <HAL_TIM_ConfigClockSource+0x310>)
 8003c06:	f002 fd7b 	bl	8006700 <assert_failed>
 8003c0a:	6863      	ldr	r3, [r4, #4]
 8003c0c:	f5b3 4f00 	cmp.w	r3, #32768	; 0x8000
 8003c10:	d009      	beq.n	8003c26 <HAL_TIM_ConfigClockSource+0x2ce>
 8003c12:	f033 0202 	bics.w	r2, r3, #2
 8003c16:	d006      	beq.n	8003c26 <HAL_TIM_ConfigClockSource+0x2ce>
 8003c18:	2b0a      	cmp	r3, #10
 8003c1a:	d004      	beq.n	8003c26 <HAL_TIM_ConfigClockSource+0x2ce>
 8003c1c:	f640 71b7 	movw	r1, #4023	; 0xfb7
 8003c20:	4811      	ldr	r0, [pc, #68]	; (8003c68 <HAL_TIM_ConfigClockSource+0x310>)
 8003c22:	f002 fd6d 	bl	8006700 <assert_failed>
 8003c26:	68e3      	ldr	r3, [r4, #12]
 8003c28:	2b0f      	cmp	r3, #15
 8003c2a:	d904      	bls.n	8003c36 <HAL_TIM_ConfigClockSource+0x2de>
 8003c2c:	f640 71b8 	movw	r1, #4024	; 0xfb8
 8003c30:	480d      	ldr	r0, [pc, #52]	; (8003c68 <HAL_TIM_ConfigClockSource+0x310>)
 8003c32:	f002 fd65 	bl	8006700 <assert_failed>
 8003c36:	682b      	ldr	r3, [r5, #0]
 8003c38:	6861      	ldr	r1, [r4, #4]
 8003c3a:	6a18      	ldr	r0, [r3, #32]
 8003c3c:	68e6      	ldr	r6, [r4, #12]
 8003c3e:	6a1c      	ldr	r4, [r3, #32]
 8003c40:	f020 000a 	bic.w	r0, r0, #10
 8003c44:	f024 0401 	bic.w	r4, r4, #1
 8003c48:	621c      	str	r4, [r3, #32]
 8003c4a:	699a      	ldr	r2, [r3, #24]
 8003c4c:	4301      	orrs	r1, r0
 8003c4e:	f022 02f0 	bic.w	r2, r2, #240	; 0xf0
 8003c52:	ea42 1206 	orr.w	r2, r2, r6, lsl #4
 8003c56:	619a      	str	r2, [r3, #24]
 8003c58:	6219      	str	r1, [r3, #32]
 8003c5a:	689a      	ldr	r2, [r3, #8]
 8003c5c:	f022 0270 	bic.w	r2, r2, #112	; 0x70
 8003c60:	f042 0257 	orr.w	r2, r2, #87	; 0x57
 8003c64:	609a      	str	r2, [r3, #8]
 8003c66:	e6a9      	b.n	80039bc <HAL_TIM_ConfigClockSource+0x64>
 8003c68:	08007e1a 	.word	0x08007e1a
 8003c6c:	40012c00 	.word	0x40012c00
 8003c70:	4a47      	ldr	r2, [pc, #284]	; (8003d90 <HAL_TIM_ConfigClockSource+0x438>)
 8003c72:	4293      	cmp	r3, r2
 8003c74:	d00f      	beq.n	8003c96 <HAL_TIM_ConfigClockSource+0x33e>
 8003c76:	f1b3 4f80 	cmp.w	r3, #1073741824	; 0x40000000
 8003c7a:	d00c      	beq.n	8003c96 <HAL_TIM_ConfigClockSource+0x33e>
 8003c7c:	f5a2 3294 	sub.w	r2, r2, #75776	; 0x12800
 8003c80:	4293      	cmp	r3, r2
 8003c82:	d008      	beq.n	8003c96 <HAL_TIM_ConfigClockSource+0x33e>
 8003c84:	f502 6280 	add.w	r2, r2, #1024	; 0x400
 8003c88:	4293      	cmp	r3, r2
 8003c8a:	d004      	beq.n	8003c96 <HAL_TIM_ConfigClockSource+0x33e>
 8003c8c:	f640 71d2 	movw	r1, #4050	; 0xfd2
 8003c90:	4840      	ldr	r0, [pc, #256]	; (8003d94 <HAL_TIM_ConfigClockSource+0x43c>)
 8003c92:	f002 fd35 	bl	8006700 <assert_failed>
 8003c96:	6863      	ldr	r3, [r4, #4]
 8003c98:	f5b3 4f00 	cmp.w	r3, #32768	; 0x8000
 8003c9c:	d009      	beq.n	8003cb2 <HAL_TIM_ConfigClockSource+0x35a>
 8003c9e:	f033 0202 	bics.w	r2, r3, #2
 8003ca2:	d006      	beq.n	8003cb2 <HAL_TIM_ConfigClockSource+0x35a>
 8003ca4:	2b0a      	cmp	r3, #10
 8003ca6:	d004      	beq.n	8003cb2 <HAL_TIM_ConfigClockSource+0x35a>
 8003ca8:	f640 71d5 	movw	r1, #4053	; 0xfd5
 8003cac:	4839      	ldr	r0, [pc, #228]	; (8003d94 <HAL_TIM_ConfigClockSource+0x43c>)
 8003cae:	f002 fd27 	bl	8006700 <assert_failed>
 8003cb2:	68e3      	ldr	r3, [r4, #12]
 8003cb4:	2b0f      	cmp	r3, #15
 8003cb6:	d904      	bls.n	8003cc2 <HAL_TIM_ConfigClockSource+0x36a>
 8003cb8:	f640 71d6 	movw	r1, #4054	; 0xfd6
 8003cbc:	4835      	ldr	r0, [pc, #212]	; (8003d94 <HAL_TIM_ConfigClockSource+0x43c>)
 8003cbe:	f002 fd1f 	bl	8006700 <assert_failed>
 8003cc2:	682b      	ldr	r3, [r5, #0]
 8003cc4:	6861      	ldr	r1, [r4, #4]
 8003cc6:	6a18      	ldr	r0, [r3, #32]
 8003cc8:	68e6      	ldr	r6, [r4, #12]
 8003cca:	6a1c      	ldr	r4, [r3, #32]
 8003ccc:	f020 000a 	bic.w	r0, r0, #10
 8003cd0:	f024 0401 	bic.w	r4, r4, #1
 8003cd4:	621c      	str	r4, [r3, #32]
 8003cd6:	699a      	ldr	r2, [r3, #24]
 8003cd8:	4301      	orrs	r1, r0
 8003cda:	f022 02f0 	bic.w	r2, r2, #240	; 0xf0
 8003cde:	ea42 1206 	orr.w	r2, r2, r6, lsl #4
 8003ce2:	619a      	str	r2, [r3, #24]
 8003ce4:	6219      	str	r1, [r3, #32]
 8003ce6:	689a      	ldr	r2, [r3, #8]
 8003ce8:	f022 0270 	bic.w	r2, r2, #112	; 0x70
 8003cec:	f042 0247 	orr.w	r2, r2, #71	; 0x47
 8003cf0:	e7b8      	b.n	8003c64 <HAL_TIM_ConfigClockSource+0x30c>
 8003cf2:	4a27      	ldr	r2, [pc, #156]	; (8003d90 <HAL_TIM_ConfigClockSource+0x438>)
 8003cf4:	4293      	cmp	r3, r2
 8003cf6:	d00f      	beq.n	8003d18 <HAL_TIM_ConfigClockSource+0x3c0>
 8003cf8:	f1b3 4f80 	cmp.w	r3, #1073741824	; 0x40000000
 8003cfc:	d00c      	beq.n	8003d18 <HAL_TIM_ConfigClockSource+0x3c0>
 8003cfe:	f5a2 3294 	sub.w	r2, r2, #75776	; 0x12800
 8003d02:	4293      	cmp	r3, r2
 8003d04:	d008      	beq.n	8003d18 <HAL_TIM_ConfigClockSource+0x3c0>
 8003d06:	f502 6280 	add.w	r2, r2, #1024	; 0x400
 8003d0a:	4293      	cmp	r3, r2
 8003d0c:	d004      	beq.n	8003d18 <HAL_TIM_ConfigClockSource+0x3c0>
 8003d0e:	f640 71e1 	movw	r1, #4065	; 0xfe1
 8003d12:	4820      	ldr	r0, [pc, #128]	; (8003d94 <HAL_TIM_ConfigClockSource+0x43c>)
 8003d14:	f002 fcf4 	bl	8006700 <assert_failed>
 8003d18:	682a      	ldr	r2, [r5, #0]
 8003d1a:	6893      	ldr	r3, [r2, #8]
 8003d1c:	f023 0370 	bic.w	r3, r3, #112	; 0x70
 8003d20:	f043 0307 	orr.w	r3, r3, #7
 8003d24:	e71a      	b.n	8003b5c <HAL_TIM_ConfigClockSource+0x204>
 8003d26:	4a1a      	ldr	r2, [pc, #104]	; (8003d90 <HAL_TIM_ConfigClockSource+0x438>)
 8003d28:	4293      	cmp	r3, r2
 8003d2a:	d00f      	beq.n	8003d4c <HAL_TIM_ConfigClockSource+0x3f4>
 8003d2c:	f1b3 4f80 	cmp.w	r3, #1073741824	; 0x40000000
 8003d30:	d00c      	beq.n	8003d4c <HAL_TIM_ConfigClockSource+0x3f4>
 8003d32:	f5a2 3294 	sub.w	r2, r2, #75776	; 0x12800
 8003d36:	4293      	cmp	r3, r2
 8003d38:	d008      	beq.n	8003d4c <HAL_TIM_ConfigClockSource+0x3f4>
 8003d3a:	f502 6280 	add.w	r2, r2, #1024	; 0x400
 8003d3e:	4293      	cmp	r3, r2
 8003d40:	d004      	beq.n	8003d4c <HAL_TIM_ConfigClockSource+0x3f4>
 8003d42:	f640 71e9 	movw	r1, #4073	; 0xfe9
 8003d46:	4813      	ldr	r0, [pc, #76]	; (8003d94 <HAL_TIM_ConfigClockSource+0x43c>)
 8003d48:	f002 fcda 	bl	8006700 <assert_failed>
 8003d4c:	682a      	ldr	r2, [r5, #0]
 8003d4e:	6893      	ldr	r3, [r2, #8]
 8003d50:	f023 0370 	bic.w	r3, r3, #112	; 0x70
 8003d54:	f043 0317 	orr.w	r3, r3, #23
 8003d58:	e700      	b.n	8003b5c <HAL_TIM_ConfigClockSource+0x204>
 8003d5a:	4a0d      	ldr	r2, [pc, #52]	; (8003d90 <HAL_TIM_ConfigClockSource+0x438>)
 8003d5c:	4293      	cmp	r3, r2
 8003d5e:	d00f      	beq.n	8003d80 <HAL_TIM_ConfigClockSource+0x428>
 8003d60:	f1b3 4f80 	cmp.w	r3, #1073741824	; 0x40000000
 8003d64:	d00c      	beq.n	8003d80 <HAL_TIM_ConfigClockSource+0x428>
 8003d66:	f5a2 3294 	sub.w	r2, r2, #75776	; 0x12800
 8003d6a:	4293      	cmp	r3, r2
 8003d6c:	d008      	beq.n	8003d80 <HAL_TIM_ConfigClockSource+0x428>
 8003d6e:	f502 6280 	add.w	r2, r2, #1024	; 0x400
 8003d72:	4293      	cmp	r3, r2
 8003d74:	d004      	beq.n	8003d80 <HAL_TIM_ConfigClockSource+0x428>
 8003d76:	f640 71f1 	movw	r1, #4081	; 0xff1
 8003d7a:	4806      	ldr	r0, [pc, #24]	; (8003d94 <HAL_TIM_ConfigClockSource+0x43c>)
 8003d7c:	f002 fcc0 	bl	8006700 <assert_failed>
 8003d80:	682a      	ldr	r2, [r5, #0]
 8003d82:	6893      	ldr	r3, [r2, #8]
 8003d84:	f023 0370 	bic.w	r3, r3, #112	; 0x70
 8003d88:	f043 0327 	orr.w	r3, r3, #39	; 0x27
 8003d8c:	e6e6      	b.n	8003b5c <HAL_TIM_ConfigClockSource+0x204>
 8003d8e:	bf00      	nop
 8003d90:	40012c00 	.word	0x40012c00
 8003d94:	08007e1a 	.word	0x08007e1a

08003d98 <HAL_TIM_ReadCapturedValue>:
 8003d98:	f890 303c 	ldrb.w	r3, [r0, #60]	; 0x3c
 8003d9c:	b510      	push	{r4, lr}
 8003d9e:	2b01      	cmp	r3, #1
 8003da0:	4604      	mov	r4, r0
 8003da2:	d06e      	beq.n	8003e82 <HAL_TIM_ReadCapturedValue+0xea>
 8003da4:	2301      	movs	r3, #1
 8003da6:	f880 303c 	strb.w	r3, [r0, #60]	; 0x3c
 8003daa:	290c      	cmp	r1, #12
 8003dac:	d867      	bhi.n	8003e7e <HAL_TIM_ReadCapturedValue+0xe6>
 8003dae:	e8df f001 	tbb	[pc, r1]
 8003db2:	6607      	.short	0x6607
 8003db4:	66216666 	.word	0x66216666
 8003db8:	66386666 	.word	0x66386666
 8003dbc:	6666      	.short	0x6666
 8003dbe:	4f          	.byte	0x4f
 8003dbf:	00          	.byte	0x00
 8003dc0:	6803      	ldr	r3, [r0, #0]
 8003dc2:	4a31      	ldr	r2, [pc, #196]	; (8003e88 <HAL_TIM_ReadCapturedValue+0xf0>)
 8003dc4:	4293      	cmp	r3, r2
 8003dc6:	d00f      	beq.n	8003de8 <HAL_TIM_ReadCapturedValue+0x50>
 8003dc8:	f1b3 4f80 	cmp.w	r3, #1073741824	; 0x40000000
 8003dcc:	d00c      	beq.n	8003de8 <HAL_TIM_ReadCapturedValue+0x50>
 8003dce:	f5a2 3294 	sub.w	r2, r2, #75776	; 0x12800
 8003dd2:	4293      	cmp	r3, r2
 8003dd4:	d008      	beq.n	8003de8 <HAL_TIM_ReadCapturedValue+0x50>
 8003dd6:	f502 6280 	add.w	r2, r2, #1024	; 0x400
 8003dda:	4293      	cmp	r3, r2
 8003ddc:	d004      	beq.n	8003de8 <HAL_TIM_ReadCapturedValue+0x50>
 8003dde:	f241 0189 	movw	r1, #4233	; 0x1089
 8003de2:	482a      	ldr	r0, [pc, #168]	; (8003e8c <HAL_TIM_ReadCapturedValue+0xf4>)
 8003de4:	f002 fc8c 	bl	8006700 <assert_failed>
 8003de8:	6823      	ldr	r3, [r4, #0]
 8003dea:	6b58      	ldr	r0, [r3, #52]	; 0x34
 8003dec:	2300      	movs	r3, #0
 8003dee:	f884 303c 	strb.w	r3, [r4, #60]	; 0x3c
 8003df2:	bd10      	pop	{r4, pc}
 8003df4:	6803      	ldr	r3, [r0, #0]
 8003df6:	4a24      	ldr	r2, [pc, #144]	; (8003e88 <HAL_TIM_ReadCapturedValue+0xf0>)
 8003df8:	4293      	cmp	r3, r2
 8003dfa:	d00f      	beq.n	8003e1c <HAL_TIM_ReadCapturedValue+0x84>
 8003dfc:	f1b3 4f80 	cmp.w	r3, #1073741824	; 0x40000000
 8003e00:	d00c      	beq.n	8003e1c <HAL_TIM_ReadCapturedValue+0x84>
 8003e02:	f5a2 3294 	sub.w	r2, r2, #75776	; 0x12800
 8003e06:	4293      	cmp	r3, r2
 8003e08:	d008      	beq.n	8003e1c <HAL_TIM_ReadCapturedValue+0x84>
 8003e0a:	f502 6280 	add.w	r2, r2, #1024	; 0x400
 8003e0e:	4293      	cmp	r3, r2
 8003e10:	d004      	beq.n	8003e1c <HAL_TIM_ReadCapturedValue+0x84>
 8003e12:	f241 0193 	movw	r1, #4243	; 0x1093
 8003e16:	481d      	ldr	r0, [pc, #116]	; (8003e8c <HAL_TIM_ReadCapturedValue+0xf4>)
 8003e18:	f002 fc72 	bl	8006700 <assert_failed>
 8003e1c:	6823      	ldr	r3, [r4, #0]
 8003e1e:	6b98      	ldr	r0, [r3, #56]	; 0x38
 8003e20:	e7e4      	b.n	8003dec <HAL_TIM_ReadCapturedValue+0x54>
 8003e22:	6803      	ldr	r3, [r0, #0]
 8003e24:	4a18      	ldr	r2, [pc, #96]	; (8003e88 <HAL_TIM_ReadCapturedValue+0xf0>)
 8003e26:	4293      	cmp	r3, r2
 8003e28:	d00f      	beq.n	8003e4a <HAL_TIM_ReadCapturedValue+0xb2>
 8003e2a:	f1b3 4f80 	cmp.w	r3, #1073741824	; 0x40000000
 8003e2e:	d00c      	beq.n	8003e4a <HAL_TIM_ReadCapturedValue+0xb2>
 8003e30:	f5a2 3294 	sub.w	r2, r2, #75776	; 0x12800
 8003e34:	4293      	cmp	r3, r2
 8003e36:	d008      	beq.n	8003e4a <HAL_TIM_ReadCapturedValue+0xb2>
 8003e38:	f502 6280 	add.w	r2, r2, #1024	; 0x400
 8003e3c:	4293      	cmp	r3, r2
 8003e3e:	d004      	beq.n	8003e4a <HAL_TIM_ReadCapturedValue+0xb2>
 8003e40:	f241 019e 	movw	r1, #4254	; 0x109e
 8003e44:	4811      	ldr	r0, [pc, #68]	; (8003e8c <HAL_TIM_ReadCapturedValue+0xf4>)
 8003e46:	f002 fc5b 	bl	8006700 <assert_failed>
 8003e4a:	6823      	ldr	r3, [r4, #0]
 8003e4c:	6bd8      	ldr	r0, [r3, #60]	; 0x3c
 8003e4e:	e7cd      	b.n	8003dec <HAL_TIM_ReadCapturedValue+0x54>
 8003e50:	6803      	ldr	r3, [r0, #0]
 8003e52:	4a0d      	ldr	r2, [pc, #52]	; (8003e88 <HAL_TIM_ReadCapturedValue+0xf0>)
 8003e54:	4293      	cmp	r3, r2
 8003e56:	d00f      	beq.n	8003e78 <HAL_TIM_ReadCapturedValue+0xe0>
 8003e58:	f1b3 4f80 	cmp.w	r3, #1073741824	; 0x40000000
 8003e5c:	d00c      	beq.n	8003e78 <HAL_TIM_ReadCapturedValue+0xe0>
 8003e5e:	f5a2 3294 	sub.w	r2, r2, #75776	; 0x12800
 8003e62:	4293      	cmp	r3, r2
 8003e64:	d008      	beq.n	8003e78 <HAL_TIM_ReadCapturedValue+0xe0>
 8003e66:	f502 6280 	add.w	r2, r2, #1024	; 0x400
 8003e6a:	4293      	cmp	r3, r2
 8003e6c:	d004      	beq.n	8003e78 <HAL_TIM_ReadCapturedValue+0xe0>
 8003e6e:	f241 01a9 	movw	r1, #4265	; 0x10a9
 8003e72:	4806      	ldr	r0, [pc, #24]	; (8003e8c <HAL_TIM_ReadCapturedValue+0xf4>)
 8003e74:	f002 fc44 	bl	8006700 <assert_failed>
 8003e78:	6823      	ldr	r3, [r4, #0]
 8003e7a:	6c18      	ldr	r0, [r3, #64]	; 0x40
 8003e7c:	e7b6      	b.n	8003dec <HAL_TIM_ReadCapturedValue+0x54>
 8003e7e:	2000      	movs	r0, #0
 8003e80:	e7b4      	b.n	8003dec <HAL_TIM_ReadCapturedValue+0x54>
 8003e82:	2002      	movs	r0, #2
 8003e84:	bd10      	pop	{r4, pc}
 8003e86:	bf00      	nop
 8003e88:	40012c00 	.word	0x40012c00
 8003e8c:	08007e1a 	.word	0x08007e1a

08003e90 <HAL_TIM_OC_DelayElapsedCallback>:
 8003e90:	4770      	bx	lr

08003e92 <HAL_TIM_PWM_PulseFinishedCallback>:
 8003e92:	4770      	bx	lr

08003e94 <HAL_TIM_TriggerCallback>:
 8003e94:	4770      	bx	lr

08003e96 <HAL_TIM_IRQHandler>:
 8003e96:	6803      	ldr	r3, [r0, #0]
 8003e98:	b510      	push	{r4, lr}
 8003e9a:	691a      	ldr	r2, [r3, #16]
 8003e9c:	4604      	mov	r4, r0
 8003e9e:	0791      	lsls	r1, r2, #30
 8003ea0:	d50e      	bpl.n	8003ec0 <HAL_TIM_IRQHandler+0x2a>
 8003ea2:	68da      	ldr	r2, [r3, #12]
 8003ea4:	0792      	lsls	r2, r2, #30
 8003ea6:	d50b      	bpl.n	8003ec0 <HAL_TIM_IRQHandler+0x2a>
 8003ea8:	f06f 0202 	mvn.w	r2, #2
 8003eac:	611a      	str	r2, [r3, #16]
 8003eae:	2201      	movs	r2, #1
 8003eb0:	699b      	ldr	r3, [r3, #24]
 8003eb2:	7702      	strb	r2, [r0, #28]
 8003eb4:	079b      	lsls	r3, r3, #30
 8003eb6:	d077      	beq.n	8003fa8 <HAL_TIM_IRQHandler+0x112>
 8003eb8:	f001 fffa 	bl	8005eb0 <HAL_TIM_IC_CaptureCallback>
 8003ebc:	2300      	movs	r3, #0
 8003ebe:	7723      	strb	r3, [r4, #28]
 8003ec0:	6823      	ldr	r3, [r4, #0]
 8003ec2:	691a      	ldr	r2, [r3, #16]
 8003ec4:	0750      	lsls	r0, r2, #29
 8003ec6:	d510      	bpl.n	8003eea <HAL_TIM_IRQHandler+0x54>
 8003ec8:	68da      	ldr	r2, [r3, #12]
 8003eca:	0751      	lsls	r1, r2, #29
 8003ecc:	d50d      	bpl.n	8003eea <HAL_TIM_IRQHandler+0x54>
 8003ece:	f06f 0204 	mvn.w	r2, #4
 8003ed2:	611a      	str	r2, [r3, #16]
 8003ed4:	2202      	movs	r2, #2
 8003ed6:	699b      	ldr	r3, [r3, #24]
 8003ed8:	7722      	strb	r2, [r4, #28]
 8003eda:	f413 7f40 	tst.w	r3, #768	; 0x300
 8003ede:	4620      	mov	r0, r4
 8003ee0:	d068      	beq.n	8003fb4 <HAL_TIM_IRQHandler+0x11e>
 8003ee2:	f001 ffe5 	bl	8005eb0 <HAL_TIM_IC_CaptureCallback>
 8003ee6:	2300      	movs	r3, #0
 8003ee8:	7723      	strb	r3, [r4, #28]
 8003eea:	6823      	ldr	r3, [r4, #0]
 8003eec:	691a      	ldr	r2, [r3, #16]
 8003eee:	0712      	lsls	r2, r2, #28
 8003ef0:	d50f      	bpl.n	8003f12 <HAL_TIM_IRQHandler+0x7c>
 8003ef2:	68da      	ldr	r2, [r3, #12]
 8003ef4:	0710      	lsls	r0, r2, #28
 8003ef6:	d50c      	bpl.n	8003f12 <HAL_TIM_IRQHandler+0x7c>
 8003ef8:	f06f 0208 	mvn.w	r2, #8
 8003efc:	611a      	str	r2, [r3, #16]
 8003efe:	2204      	movs	r2, #4
 8003f00:	69db      	ldr	r3, [r3, #28]
 8003f02:	7722      	strb	r2, [r4, #28]
 8003f04:	0799      	lsls	r1, r3, #30
 8003f06:	4620      	mov	r0, r4
 8003f08:	d05a      	beq.n	8003fc0 <HAL_TIM_IRQHandler+0x12a>
 8003f0a:	f001 ffd1 	bl	8005eb0 <HAL_TIM_IC_CaptureCallback>
 8003f0e:	2300      	movs	r3, #0
 8003f10:	7723      	strb	r3, [r4, #28]
 8003f12:	6823      	ldr	r3, [r4, #0]
 8003f14:	691a      	ldr	r2, [r3, #16]
 8003f16:	06d2      	lsls	r2, r2, #27
 8003f18:	d510      	bpl.n	8003f3c <HAL_TIM_IRQHandler+0xa6>
 8003f1a:	68da      	ldr	r2, [r3, #12]
 8003f1c:	06d0      	lsls	r0, r2, #27
 8003f1e:	d50d      	bpl.n	8003f3c <HAL_TIM_IRQHandler+0xa6>
 8003f20:	f06f 0210 	mvn.w	r2, #16
 8003f24:	611a      	str	r2, [r3, #16]
 8003f26:	2208      	movs	r2, #8
 8003f28:	69db      	ldr	r3, [r3, #28]
 8003f2a:	7722      	strb	r2, [r4, #28]
 8003f2c:	f413 7f40 	tst.w	r3, #768	; 0x300
 8003f30:	4620      	mov	r0, r4
 8003f32:	d04b      	beq.n	8003fcc <HAL_TIM_IRQHandler+0x136>
 8003f34:	f001 ffbc 	bl	8005eb0 <HAL_TIM_IC_CaptureCallback>
 8003f38:	2300      	movs	r3, #0
 8003f3a:	7723      	strb	r3, [r4, #28]
 8003f3c:	6823      	ldr	r3, [r4, #0]
 8003f3e:	691a      	ldr	r2, [r3, #16]
 8003f40:	07d1      	lsls	r1, r2, #31
 8003f42:	d508      	bpl.n	8003f56 <HAL_TIM_IRQHandler+0xc0>
 8003f44:	68da      	ldr	r2, [r3, #12]
 8003f46:	07d2      	lsls	r2, r2, #31
 8003f48:	d505      	bpl.n	8003f56 <HAL_TIM_IRQHandler+0xc0>
 8003f4a:	f06f 0201 	mvn.w	r2, #1
 8003f4e:	4620      	mov	r0, r4
 8003f50:	611a      	str	r2, [r3, #16]
 8003f52:	f001 ff21 	bl	8005d98 <HAL_TIM_PeriodElapsedCallback>
 8003f56:	6823      	ldr	r3, [r4, #0]
 8003f58:	691a      	ldr	r2, [r3, #16]
 8003f5a:	0610      	lsls	r0, r2, #24
 8003f5c:	d508      	bpl.n	8003f70 <HAL_TIM_IRQHandler+0xda>
 8003f5e:	68da      	ldr	r2, [r3, #12]
 8003f60:	0611      	lsls	r1, r2, #24
 8003f62:	d505      	bpl.n	8003f70 <HAL_TIM_IRQHandler+0xda>
 8003f64:	f06f 0280 	mvn.w	r2, #128	; 0x80
 8003f68:	4620      	mov	r0, r4
 8003f6a:	611a      	str	r2, [r3, #16]
 8003f6c:	f000 fcdf 	bl	800492e <HAL_TIMEx_BreakCallback>
 8003f70:	6823      	ldr	r3, [r4, #0]
 8003f72:	691a      	ldr	r2, [r3, #16]
 8003f74:	0652      	lsls	r2, r2, #25
 8003f76:	d508      	bpl.n	8003f8a <HAL_TIM_IRQHandler+0xf4>
 8003f78:	68da      	ldr	r2, [r3, #12]
 8003f7a:	0650      	lsls	r0, r2, #25
 8003f7c:	d505      	bpl.n	8003f8a <HAL_TIM_IRQHandler+0xf4>
 8003f7e:	f06f 0240 	mvn.w	r2, #64	; 0x40
 8003f82:	4620      	mov	r0, r4
 8003f84:	611a      	str	r2, [r3, #16]
 8003f86:	f7ff ff85 	bl	8003e94 <HAL_TIM_TriggerCallback>
 8003f8a:	6823      	ldr	r3, [r4, #0]
 8003f8c:	691a      	ldr	r2, [r3, #16]
 8003f8e:	0691      	lsls	r1, r2, #26
 8003f90:	d522      	bpl.n	8003fd8 <HAL_TIM_IRQHandler+0x142>
 8003f92:	68da      	ldr	r2, [r3, #12]
 8003f94:	0692      	lsls	r2, r2, #26
 8003f96:	d51f      	bpl.n	8003fd8 <HAL_TIM_IRQHandler+0x142>
 8003f98:	f06f 0220 	mvn.w	r2, #32
 8003f9c:	4620      	mov	r0, r4
 8003f9e:	e8bd 4010 	ldmia.w	sp!, {r4, lr}
 8003fa2:	611a      	str	r2, [r3, #16]
 8003fa4:	f000 bcc2 	b.w	800492c <HAL_TIMEx_CommutationCallback>
 8003fa8:	f7ff ff72 	bl	8003e90 <HAL_TIM_OC_DelayElapsedCallback>
 8003fac:	4620      	mov	r0, r4
 8003fae:	f7ff ff70 	bl	8003e92 <HAL_TIM_PWM_PulseFinishedCallback>
 8003fb2:	e783      	b.n	8003ebc <HAL_TIM_IRQHandler+0x26>
 8003fb4:	f7ff ff6c 	bl	8003e90 <HAL_TIM_OC_DelayElapsedCallback>
 8003fb8:	4620      	mov	r0, r4
 8003fba:	f7ff ff6a 	bl	8003e92 <HAL_TIM_PWM_PulseFinishedCallback>
 8003fbe:	e792      	b.n	8003ee6 <HAL_TIM_IRQHandler+0x50>
 8003fc0:	f7ff ff66 	bl	8003e90 <HAL_TIM_OC_DelayElapsedCallback>
 8003fc4:	4620      	mov	r0, r4
 8003fc6:	f7ff ff64 	bl	8003e92 <HAL_TIM_PWM_PulseFinishedCallback>
 8003fca:	e7a0      	b.n	8003f0e <HAL_TIM_IRQHandler+0x78>
 8003fcc:	f7ff ff60 	bl	8003e90 <HAL_TIM_OC_DelayElapsedCallback>
 8003fd0:	4620      	mov	r0, r4
 8003fd2:	f7ff ff5e 	bl	8003e92 <HAL_TIM_PWM_PulseFinishedCallback>
 8003fd6:	e7af      	b.n	8003f38 <HAL_TIM_IRQHandler+0xa2>
 8003fd8:	bd10      	pop	{r4, pc}
	...

08003fdc <TIM_Base_SetConfig>:
 8003fdc:	4a1a      	ldr	r2, [pc, #104]	; (8004048 <TIM_Base_SetConfig+0x6c>)
 8003fde:	6803      	ldr	r3, [r0, #0]
 8003fe0:	4290      	cmp	r0, r2
 8003fe2:	d00a      	beq.n	8003ffa <TIM_Base_SetConfig+0x1e>
 8003fe4:	f1b0 4f80 	cmp.w	r0, #1073741824	; 0x40000000
 8003fe8:	d007      	beq.n	8003ffa <TIM_Base_SetConfig+0x1e>
 8003fea:	f5a2 3294 	sub.w	r2, r2, #75776	; 0x12800
 8003fee:	4290      	cmp	r0, r2
 8003ff0:	d003      	beq.n	8003ffa <TIM_Base_SetConfig+0x1e>
 8003ff2:	f502 6280 	add.w	r2, r2, #1024	; 0x400
 8003ff6:	4290      	cmp	r0, r2
 8003ff8:	d115      	bne.n	8004026 <TIM_Base_SetConfig+0x4a>
 8003ffa:	684a      	ldr	r2, [r1, #4]
 8003ffc:	f023 0370 	bic.w	r3, r3, #112	; 0x70
 8004000:	4313      	orrs	r3, r2
 8004002:	4a11      	ldr	r2, [pc, #68]	; (8004048 <TIM_Base_SetConfig+0x6c>)
 8004004:	4290      	cmp	r0, r2
 8004006:	d00a      	beq.n	800401e <TIM_Base_SetConfig+0x42>
 8004008:	f1b0 4f80 	cmp.w	r0, #1073741824	; 0x40000000
 800400c:	d007      	beq.n	800401e <TIM_Base_SetConfig+0x42>
 800400e:	f5a2 3294 	sub.w	r2, r2, #75776	; 0x12800
 8004012:	4290      	cmp	r0, r2
 8004014:	d003      	beq.n	800401e <TIM_Base_SetConfig+0x42>
 8004016:	f502 6280 	add.w	r2, r2, #1024	; 0x400
 800401a:	4290      	cmp	r0, r2
 800401c:	d103      	bne.n	8004026 <TIM_Base_SetConfig+0x4a>
 800401e:	68ca      	ldr	r2, [r1, #12]
 8004020:	f423 7340 	bic.w	r3, r3, #768	; 0x300
 8004024:	4313      	orrs	r3, r2
 8004026:	694a      	ldr	r2, [r1, #20]
 8004028:	f023 0380 	bic.w	r3, r3, #128	; 0x80
 800402c:	4313      	orrs	r3, r2
 800402e:	6003      	str	r3, [r0, #0]
 8004030:	688b      	ldr	r3, [r1, #8]
 8004032:	62c3      	str	r3, [r0, #44]	; 0x2c
 8004034:	680b      	ldr	r3, [r1, #0]
 8004036:	6283      	str	r3, [r0, #40]	; 0x28
 8004038:	4b03      	ldr	r3, [pc, #12]	; (8004048 <TIM_Base_SetConfig+0x6c>)
 800403a:	4298      	cmp	r0, r3
 800403c:	bf04      	itt	eq
 800403e:	690b      	ldreq	r3, [r1, #16]
 8004040:	6303      	streq	r3, [r0, #48]	; 0x30
 8004042:	2301      	movs	r3, #1
 8004044:	6143      	str	r3, [r0, #20]
 8004046:	4770      	bx	lr
 8004048:	40012c00 	.word	0x40012c00

0800404c <HAL_TIM_Base_Init>:
 800404c:	b510      	push	{r4, lr}
 800404e:	4604      	mov	r4, r0
 8004050:	2800      	cmp	r0, #0
 8004052:	d049      	beq.n	80040e8 <HAL_TIM_Base_Init+0x9c>
 8004054:	6803      	ldr	r3, [r0, #0]
 8004056:	4a25      	ldr	r2, [pc, #148]	; (80040ec <HAL_TIM_Base_Init+0xa0>)
 8004058:	4293      	cmp	r3, r2
 800405a:	d00e      	beq.n	800407a <HAL_TIM_Base_Init+0x2e>
 800405c:	f1b3 4f80 	cmp.w	r3, #1073741824	; 0x40000000
 8004060:	d00b      	beq.n	800407a <HAL_TIM_Base_Init+0x2e>
 8004062:	f5a2 3294 	sub.w	r2, r2, #75776	; 0x12800
 8004066:	4293      	cmp	r3, r2
 8004068:	d007      	beq.n	800407a <HAL_TIM_Base_Init+0x2e>
 800406a:	f502 6280 	add.w	r2, r2, #1024	; 0x400
 800406e:	4293      	cmp	r3, r2
 8004070:	d003      	beq.n	800407a <HAL_TIM_Base_Init+0x2e>
 8004072:	21d9      	movs	r1, #217	; 0xd9
 8004074:	481e      	ldr	r0, [pc, #120]	; (80040f0 <HAL_TIM_Base_Init+0xa4>)
 8004076:	f002 fb43 	bl	8006700 <assert_failed>
 800407a:	68a3      	ldr	r3, [r4, #8]
 800407c:	f033 0210 	bics.w	r2, r3, #16
 8004080:	d009      	beq.n	8004096 <HAL_TIM_Base_Init+0x4a>
 8004082:	f023 0240 	bic.w	r2, r3, #64	; 0x40
 8004086:	2a20      	cmp	r2, #32
 8004088:	d005      	beq.n	8004096 <HAL_TIM_Base_Init+0x4a>
 800408a:	2b40      	cmp	r3, #64	; 0x40
 800408c:	d003      	beq.n	8004096 <HAL_TIM_Base_Init+0x4a>
 800408e:	21da      	movs	r1, #218	; 0xda
 8004090:	4817      	ldr	r0, [pc, #92]	; (80040f0 <HAL_TIM_Base_Init+0xa4>)
 8004092:	f002 fb35 	bl	8006700 <assert_failed>
 8004096:	6923      	ldr	r3, [r4, #16]
 8004098:	f433 7280 	bics.w	r2, r3, #256	; 0x100
 800409c:	d006      	beq.n	80040ac <HAL_TIM_Base_Init+0x60>
 800409e:	f5b3 7f00 	cmp.w	r3, #512	; 0x200
 80040a2:	d003      	beq.n	80040ac <HAL_TIM_Base_Init+0x60>
 80040a4:	21db      	movs	r1, #219	; 0xdb
 80040a6:	4812      	ldr	r0, [pc, #72]	; (80040f0 <HAL_TIM_Base_Init+0xa4>)
 80040a8:	f002 fb2a 	bl	8006700 <assert_failed>
 80040ac:	69a3      	ldr	r3, [r4, #24]
 80040ae:	f033 0380 	bics.w	r3, r3, #128	; 0x80
 80040b2:	d003      	beq.n	80040bc <HAL_TIM_Base_Init+0x70>
 80040b4:	21dc      	movs	r1, #220	; 0xdc
 80040b6:	480e      	ldr	r0, [pc, #56]	; (80040f0 <HAL_TIM_Base_Init+0xa4>)
 80040b8:	f002 fb22 	bl	8006700 <assert_failed>
 80040bc:	f894 303d 	ldrb.w	r3, [r4, #61]	; 0x3d
 80040c0:	f003 02ff 	and.w	r2, r3, #255	; 0xff
 80040c4:	b923      	cbnz	r3, 80040d0 <HAL_TIM_Base_Init+0x84>
 80040c6:	f884 203c 	strb.w	r2, [r4, #60]	; 0x3c
 80040ca:	4620      	mov	r0, r4
 80040cc:	f002 fbe0 	bl	8006890 <HAL_TIM_Base_MspInit>
 80040d0:	2302      	movs	r3, #2
 80040d2:	6820      	ldr	r0, [r4, #0]
 80040d4:	f884 303d 	strb.w	r3, [r4, #61]	; 0x3d
 80040d8:	1d21      	adds	r1, r4, #4
 80040da:	f7ff ff7f 	bl	8003fdc <TIM_Base_SetConfig>
 80040de:	2301      	movs	r3, #1
 80040e0:	2000      	movs	r0, #0
 80040e2:	f884 303d 	strb.w	r3, [r4, #61]	; 0x3d
 80040e6:	bd10      	pop	{r4, pc}
 80040e8:	2001      	movs	r0, #1
 80040ea:	bd10      	pop	{r4, pc}
 80040ec:	40012c00 	.word	0x40012c00
 80040f0:	08007e1a 	.word	0x08007e1a

080040f4 <HAL_TIM_PWM_Init>:
 80040f4:	b510      	push	{r4, lr}
 80040f6:	4604      	mov	r4, r0
 80040f8:	2800      	cmp	r0, #0
 80040fa:	d04d      	beq.n	8004198 <HAL_TIM_PWM_Init+0xa4>
 80040fc:	6803      	ldr	r3, [r0, #0]
 80040fe:	4a27      	ldr	r2, [pc, #156]	; (800419c <HAL_TIM_PWM_Init+0xa8>)
 8004100:	4293      	cmp	r3, r2
 8004102:	d00f      	beq.n	8004124 <HAL_TIM_PWM_Init+0x30>
 8004104:	f1b3 4f80 	cmp.w	r3, #1073741824	; 0x40000000
 8004108:	d00c      	beq.n	8004124 <HAL_TIM_PWM_Init+0x30>
 800410a:	f5a2 3294 	sub.w	r2, r2, #75776	; 0x12800
 800410e:	4293      	cmp	r3, r2
 8004110:	d008      	beq.n	8004124 <HAL_TIM_PWM_Init+0x30>
 8004112:	f502 6280 	add.w	r2, r2, #1024	; 0x400
 8004116:	4293      	cmp	r3, r2
 8004118:	d004      	beq.n	8004124 <HAL_TIM_PWM_Init+0x30>
 800411a:	f240 31ee 	movw	r1, #1006	; 0x3ee
 800411e:	4820      	ldr	r0, [pc, #128]	; (80041a0 <HAL_TIM_PWM_Init+0xac>)
 8004120:	f002 faee 	bl	8006700 <assert_failed>
 8004124:	68a3      	ldr	r3, [r4, #8]
 8004126:	f033 0210 	bics.w	r2, r3, #16
 800412a:	d00a      	beq.n	8004142 <HAL_TIM_PWM_Init+0x4e>
 800412c:	f023 0240 	bic.w	r2, r3, #64	; 0x40
 8004130:	2a20      	cmp	r2, #32
 8004132:	d006      	beq.n	8004142 <HAL_TIM_PWM_Init+0x4e>
 8004134:	2b40      	cmp	r3, #64	; 0x40
 8004136:	d004      	beq.n	8004142 <HAL_TIM_PWM_Init+0x4e>
 8004138:	f240 31ef 	movw	r1, #1007	; 0x3ef
 800413c:	4818      	ldr	r0, [pc, #96]	; (80041a0 <HAL_TIM_PWM_Init+0xac>)
 800413e:	f002 fadf 	bl	8006700 <assert_failed>
 8004142:	6923      	ldr	r3, [r4, #16]
 8004144:	f433 7280 	bics.w	r2, r3, #256	; 0x100
 8004148:	d007      	beq.n	800415a <HAL_TIM_PWM_Init+0x66>
 800414a:	f5b3 7f00 	cmp.w	r3, #512	; 0x200
 800414e:	d004      	beq.n	800415a <HAL_TIM_PWM_Init+0x66>
 8004150:	f44f 717c 	mov.w	r1, #1008	; 0x3f0
 8004154:	4812      	ldr	r0, [pc, #72]	; (80041a0 <HAL_TIM_PWM_Init+0xac>)
 8004156:	f002 fad3 	bl	8006700 <assert_failed>
 800415a:	69a3      	ldr	r3, [r4, #24]
 800415c:	f033 0380 	bics.w	r3, r3, #128	; 0x80
 8004160:	d004      	beq.n	800416c <HAL_TIM_PWM_Init+0x78>
 8004162:	f240 31f1 	movw	r1, #1009	; 0x3f1
 8004166:	480e      	ldr	r0, [pc, #56]	; (80041a0 <HAL_TIM_PWM_Init+0xac>)
 8004168:	f002 faca 	bl	8006700 <assert_failed>
 800416c:	f894 303d 	ldrb.w	r3, [r4, #61]	; 0x3d
 8004170:	f003 02ff 	and.w	r2, r3, #255	; 0xff
 8004174:	b923      	cbnz	r3, 8004180 <HAL_TIM_PWM_Init+0x8c>
 8004176:	f884 203c 	strb.w	r2, [r4, #60]	; 0x3c
 800417a:	4620      	mov	r0, r4
 800417c:	f002 fbe0 	bl	8006940 <HAL_TIM_PWM_MspInit>
 8004180:	2302      	movs	r3, #2
 8004182:	6820      	ldr	r0, [r4, #0]
 8004184:	f884 303d 	strb.w	r3, [r4, #61]	; 0x3d
 8004188:	1d21      	adds	r1, r4, #4
 800418a:	f7ff ff27 	bl	8003fdc <TIM_Base_SetConfig>
 800418e:	2301      	movs	r3, #1
 8004190:	2000      	movs	r0, #0
 8004192:	f884 303d 	strb.w	r3, [r4, #61]	; 0x3d
 8004196:	bd10      	pop	{r4, pc}
 8004198:	2001      	movs	r0, #1
 800419a:	bd10      	pop	{r4, pc}
 800419c:	40012c00 	.word	0x40012c00
 80041a0:	08007e1a 	.word	0x08007e1a

080041a4 <HAL_TIM_IC_Init>:
 80041a4:	b510      	push	{r4, lr}
 80041a6:	4604      	mov	r4, r0
 80041a8:	2800      	cmp	r0, #0
 80041aa:	d04d      	beq.n	8004248 <HAL_TIM_IC_Init+0xa4>
 80041ac:	6803      	ldr	r3, [r0, #0]
 80041ae:	4a27      	ldr	r2, [pc, #156]	; (800424c <HAL_TIM_IC_Init+0xa8>)
 80041b0:	4293      	cmp	r3, r2
 80041b2:	d00f      	beq.n	80041d4 <HAL_TIM_IC_Init+0x30>
 80041b4:	f1b3 4f80 	cmp.w	r3, #1073741824	; 0x40000000
 80041b8:	d00c      	beq.n	80041d4 <HAL_TIM_IC_Init+0x30>
 80041ba:	f5a2 3294 	sub.w	r2, r2, #75776	; 0x12800
 80041be:	4293      	cmp	r3, r2
 80041c0:	d008      	beq.n	80041d4 <HAL_TIM_IC_Init+0x30>
 80041c2:	f502 6280 	add.w	r2, r2, #1024	; 0x400
 80041c6:	4293      	cmp	r3, r2
 80041c8:	d004      	beq.n	80041d4 <HAL_TIM_IC_Init+0x30>
 80041ca:	f240 51ee 	movw	r1, #1518	; 0x5ee
 80041ce:	4820      	ldr	r0, [pc, #128]	; (8004250 <HAL_TIM_IC_Init+0xac>)
 80041d0:	f002 fa96 	bl	8006700 <assert_failed>
 80041d4:	68a3      	ldr	r3, [r4, #8]
 80041d6:	f033 0210 	bics.w	r2, r3, #16
 80041da:	d00a      	beq.n	80041f2 <HAL_TIM_IC_Init+0x4e>
 80041dc:	f023 0240 	bic.w	r2, r3, #64	; 0x40
 80041e0:	2a20      	cmp	r2, #32
 80041e2:	d006      	beq.n	80041f2 <HAL_TIM_IC_Init+0x4e>
 80041e4:	2b40      	cmp	r3, #64	; 0x40
 80041e6:	d004      	beq.n	80041f2 <HAL_TIM_IC_Init+0x4e>
 80041e8:	f240 51ef 	movw	r1, #1519	; 0x5ef
 80041ec:	4818      	ldr	r0, [pc, #96]	; (8004250 <HAL_TIM_IC_Init+0xac>)
 80041ee:	f002 fa87 	bl	8006700 <assert_failed>
 80041f2:	6923      	ldr	r3, [r4, #16]
 80041f4:	f433 7280 	bics.w	r2, r3, #256	; 0x100
 80041f8:	d007      	beq.n	800420a <HAL_TIM_IC_Init+0x66>
 80041fa:	f5b3 7f00 	cmp.w	r3, #512	; 0x200
 80041fe:	d004      	beq.n	800420a <HAL_TIM_IC_Init+0x66>
 8004200:	f44f 61be 	mov.w	r1, #1520	; 0x5f0
 8004204:	4812      	ldr	r0, [pc, #72]	; (8004250 <HAL_TIM_IC_Init+0xac>)
 8004206:	f002 fa7b 	bl	8006700 <assert_failed>
 800420a:	69a3      	ldr	r3, [r4, #24]
 800420c:	f033 0380 	bics.w	r3, r3, #128	; 0x80
 8004210:	d004      	beq.n	800421c <HAL_TIM_IC_Init+0x78>
 8004212:	f240 51f1 	movw	r1, #1521	; 0x5f1
 8004216:	480e      	ldr	r0, [pc, #56]	; (8004250 <HAL_TIM_IC_Init+0xac>)
 8004218:	f002 fa72 	bl	8006700 <assert_failed>
 800421c:	f894 303d 	ldrb.w	r3, [r4, #61]	; 0x3d
 8004220:	f003 02ff 	and.w	r2, r3, #255	; 0xff
 8004224:	b923      	cbnz	r3, 8004230 <HAL_TIM_IC_Init+0x8c>
 8004226:	f884 203c 	strb.w	r2, [r4, #60]	; 0x3c
 800422a:	4620      	mov	r0, r4
 800422c:	f7ff fb92 	bl	8003954 <HAL_TIM_IC_MspInit>
 8004230:	2302      	movs	r3, #2
 8004232:	6820      	ldr	r0, [r4, #0]
 8004234:	f884 303d 	strb.w	r3, [r4, #61]	; 0x3d
 8004238:	1d21      	adds	r1, r4, #4
 800423a:	f7ff fecf 	bl	8003fdc <TIM_Base_SetConfig>
 800423e:	2301      	movs	r3, #1
 8004240:	2000      	movs	r0, #0
 8004242:	f884 303d 	strb.w	r3, [r4, #61]	; 0x3d
 8004246:	bd10      	pop	{r4, pc}
 8004248:	2001      	movs	r0, #1
 800424a:	bd10      	pop	{r4, pc}
 800424c:	40012c00 	.word	0x40012c00
 8004250:	08007e1a 	.word	0x08007e1a

08004254 <TIM_OC2_SetConfig>:
 8004254:	6a03      	ldr	r3, [r0, #32]
 8004256:	e92d 41f0 	stmdb	sp!, {r4, r5, r6, r7, r8, lr}
 800425a:	f023 0310 	bic.w	r3, r3, #16
 800425e:	6203      	str	r3, [r0, #32]
 8004260:	6a04      	ldr	r4, [r0, #32]
 8004262:	f8d0 8004 	ldr.w	r8, [r0, #4]
 8004266:	6986      	ldr	r6, [r0, #24]
 8004268:	680b      	ldr	r3, [r1, #0]
 800426a:	f426 46e6 	bic.w	r6, r6, #29440	; 0x7300
 800426e:	ea46 2603 	orr.w	r6, r6, r3, lsl #8
 8004272:	688b      	ldr	r3, [r1, #8]
 8004274:	f024 0420 	bic.w	r4, r4, #32
 8004278:	ea44 1403 	orr.w	r4, r4, r3, lsl #4
 800427c:	4b1a      	ldr	r3, [pc, #104]	; (80042e8 <TIM_OC2_SetConfig+0x94>)
 800427e:	4605      	mov	r5, r0
 8004280:	4298      	cmp	r0, r3
 8004282:	460f      	mov	r7, r1
 8004284:	d128      	bne.n	80042d8 <TIM_OC2_SetConfig+0x84>
 8004286:	68cb      	ldr	r3, [r1, #12]
 8004288:	f033 0308 	bics.w	r3, r3, #8
 800428c:	d004      	beq.n	8004298 <TIM_OC2_SetConfig+0x44>
 800428e:	f241 2189 	movw	r1, #4745	; 0x1289
 8004292:	4816      	ldr	r0, [pc, #88]	; (80042ec <TIM_OC2_SetConfig+0x98>)
 8004294:	f002 fa34 	bl	8006700 <assert_failed>
 8004298:	68fb      	ldr	r3, [r7, #12]
 800429a:	f024 0480 	bic.w	r4, r4, #128	; 0x80
 800429e:	ea44 1403 	orr.w	r4, r4, r3, lsl #4
 80042a2:	69bb      	ldr	r3, [r7, #24]
 80042a4:	f024 0440 	bic.w	r4, r4, #64	; 0x40
 80042a8:	f433 7300 	bics.w	r3, r3, #512	; 0x200
 80042ac:	d004      	beq.n	80042b8 <TIM_OC2_SetConfig+0x64>
 80042ae:	f241 2197 	movw	r1, #4759	; 0x1297
 80042b2:	480e      	ldr	r0, [pc, #56]	; (80042ec <TIM_OC2_SetConfig+0x98>)
 80042b4:	f002 fa24 	bl	8006700 <assert_failed>
 80042b8:	697b      	ldr	r3, [r7, #20]
 80042ba:	f433 7380 	bics.w	r3, r3, #256	; 0x100
 80042be:	d004      	beq.n	80042ca <TIM_OC2_SetConfig+0x76>
 80042c0:	f241 2198 	movw	r1, #4760	; 0x1298
 80042c4:	4809      	ldr	r0, [pc, #36]	; (80042ec <TIM_OC2_SetConfig+0x98>)
 80042c6:	f002 fa1b 	bl	8006700 <assert_failed>
 80042ca:	697b      	ldr	r3, [r7, #20]
 80042cc:	69ba      	ldr	r2, [r7, #24]
 80042ce:	f428 6840 	bic.w	r8, r8, #3072	; 0xc00
 80042d2:	4313      	orrs	r3, r2
 80042d4:	ea48 0883 	orr.w	r8, r8, r3, lsl #2
 80042d8:	687b      	ldr	r3, [r7, #4]
 80042da:	f8c5 8004 	str.w	r8, [r5, #4]
 80042de:	61ae      	str	r6, [r5, #24]
 80042e0:	63ab      	str	r3, [r5, #56]	; 0x38
 80042e2:	622c      	str	r4, [r5, #32]
 80042e4:	e8bd 81f0 	ldmia.w	sp!, {r4, r5, r6, r7, r8, pc}
 80042e8:	40012c00 	.word	0x40012c00
 80042ec:	08007e1a 	.word	0x08007e1a

080042f0 <HAL_TIM_PWM_ConfigChannel>:
 80042f0:	f890 303c 	ldrb.w	r3, [r0, #60]	; 0x3c
 80042f4:	b570      	push	{r4, r5, r6, lr}
 80042f6:	2b01      	cmp	r3, #1
 80042f8:	4604      	mov	r4, r0
 80042fa:	460d      	mov	r5, r1
 80042fc:	4616      	mov	r6, r2
 80042fe:	f000 80d6 	beq.w	80044ae <HAL_TIM_PWM_ConfigChannel+0x1be>
 8004302:	2301      	movs	r3, #1
 8004304:	2a18      	cmp	r2, #24
 8004306:	f880 303c 	strb.w	r3, [r0, #60]	; 0x3c
 800430a:	d803      	bhi.n	8004314 <HAL_TIM_PWM_ConfigChannel+0x24>
 800430c:	4b69      	ldr	r3, [pc, #420]	; (80044b4 <HAL_TIM_PWM_ConfigChannel+0x1c4>)
 800430e:	40d3      	lsrs	r3, r2
 8004310:	07db      	lsls	r3, r3, #31
 8004312:	d404      	bmi.n	800431e <HAL_TIM_PWM_ConfigChannel+0x2e>
 8004314:	f640 4137 	movw	r1, #3127	; 0xc37
 8004318:	4867      	ldr	r0, [pc, #412]	; (80044b8 <HAL_TIM_PWM_ConfigChannel+0x1c8>)
 800431a:	f002 f9f1 	bl	8006700 <assert_failed>
 800431e:	682b      	ldr	r3, [r5, #0]
 8004320:	f023 0310 	bic.w	r3, r3, #16
 8004324:	2b60      	cmp	r3, #96	; 0x60
 8004326:	d004      	beq.n	8004332 <HAL_TIM_PWM_ConfigChannel+0x42>
 8004328:	f640 4138 	movw	r1, #3128	; 0xc38
 800432c:	4862      	ldr	r0, [pc, #392]	; (80044b8 <HAL_TIM_PWM_ConfigChannel+0x1c8>)
 800432e:	f002 f9e7 	bl	8006700 <assert_failed>
 8004332:	68ab      	ldr	r3, [r5, #8]
 8004334:	f033 0302 	bics.w	r3, r3, #2
 8004338:	d004      	beq.n	8004344 <HAL_TIM_PWM_ConfigChannel+0x54>
 800433a:	f640 4139 	movw	r1, #3129	; 0xc39
 800433e:	485e      	ldr	r0, [pc, #376]	; (80044b8 <HAL_TIM_PWM_ConfigChannel+0x1c8>)
 8004340:	f002 f9de 	bl	8006700 <assert_failed>
 8004344:	692b      	ldr	r3, [r5, #16]
 8004346:	f033 0304 	bics.w	r3, r3, #4
 800434a:	d004      	beq.n	8004356 <HAL_TIM_PWM_ConfigChannel+0x66>
 800434c:	f640 413a 	movw	r1, #3130	; 0xc3a
 8004350:	4859      	ldr	r0, [pc, #356]	; (80044b8 <HAL_TIM_PWM_ConfigChannel+0x1c8>)
 8004352:	f002 f9d5 	bl	8006700 <assert_failed>
 8004356:	2302      	movs	r3, #2
 8004358:	f884 303d 	strb.w	r3, [r4, #61]	; 0x3d
 800435c:	2e0c      	cmp	r6, #12
 800435e:	d82d      	bhi.n	80043bc <HAL_TIM_PWM_ConfigChannel+0xcc>
 8004360:	e8df f006 	tbb	[pc, r6]
 8004364:	2c2c2c07 	.word	0x2c2c2c07
 8004368:	2c2c2c33 	.word	0x2c2c2c33
 800436c:	2c2c2c59 	.word	0x2c2c2c59
 8004370:	7f          	.byte	0x7f
 8004371:	00          	.byte	0x00
 8004372:	6823      	ldr	r3, [r4, #0]
 8004374:	4a51      	ldr	r2, [pc, #324]	; (80044bc <HAL_TIM_PWM_ConfigChannel+0x1cc>)
 8004376:	4293      	cmp	r3, r2
 8004378:	d00f      	beq.n	800439a <HAL_TIM_PWM_ConfigChannel+0xaa>
 800437a:	f1b3 4f80 	cmp.w	r3, #1073741824	; 0x40000000
 800437e:	d00c      	beq.n	800439a <HAL_TIM_PWM_ConfigChannel+0xaa>
 8004380:	f5a2 3294 	sub.w	r2, r2, #75776	; 0x12800
 8004384:	4293      	cmp	r3, r2
 8004386:	d008      	beq.n	800439a <HAL_TIM_PWM_ConfigChannel+0xaa>
 8004388:	f502 6280 	add.w	r2, r2, #1024	; 0x400
 800438c:	4293      	cmp	r3, r2
 800438e:	d004      	beq.n	800439a <HAL_TIM_PWM_ConfigChannel+0xaa>
 8004390:	f640 4142 	movw	r1, #3138	; 0xc42
 8004394:	4848      	ldr	r0, [pc, #288]	; (80044b8 <HAL_TIM_PWM_ConfigChannel+0x1c8>)
 8004396:	f002 f9b3 	bl	8006700 <assert_failed>
 800439a:	4629      	mov	r1, r5
 800439c:	6820      	ldr	r0, [r4, #0]
 800439e:	f7ff f9e5 	bl	800376c <TIM_OC1_SetConfig>
 80043a2:	6823      	ldr	r3, [r4, #0]
 80043a4:	6929      	ldr	r1, [r5, #16]
 80043a6:	699a      	ldr	r2, [r3, #24]
 80043a8:	f042 0208 	orr.w	r2, r2, #8
 80043ac:	619a      	str	r2, [r3, #24]
 80043ae:	699a      	ldr	r2, [r3, #24]
 80043b0:	f022 0204 	bic.w	r2, r2, #4
 80043b4:	619a      	str	r2, [r3, #24]
 80043b6:	699a      	ldr	r2, [r3, #24]
 80043b8:	430a      	orrs	r2, r1
 80043ba:	619a      	str	r2, [r3, #24]
 80043bc:	2301      	movs	r3, #1
 80043be:	2000      	movs	r0, #0
 80043c0:	f884 303d 	strb.w	r3, [r4, #61]	; 0x3d
 80043c4:	f884 003c 	strb.w	r0, [r4, #60]	; 0x3c
 80043c8:	bd70      	pop	{r4, r5, r6, pc}
 80043ca:	6823      	ldr	r3, [r4, #0]
 80043cc:	4a3b      	ldr	r2, [pc, #236]	; (80044bc <HAL_TIM_PWM_ConfigChannel+0x1cc>)
 80043ce:	4293      	cmp	r3, r2
 80043d0:	d00f      	beq.n	80043f2 <HAL_TIM_PWM_ConfigChannel+0x102>
 80043d2:	f1b3 4f80 	cmp.w	r3, #1073741824	; 0x40000000
 80043d6:	d00c      	beq.n	80043f2 <HAL_TIM_PWM_ConfigChannel+0x102>
 80043d8:	f5a2 3294 	sub.w	r2, r2, #75776	; 0x12800
 80043dc:	4293      	cmp	r3, r2
 80043de:	d008      	beq.n	80043f2 <HAL_TIM_PWM_ConfigChannel+0x102>
 80043e0:	f502 6280 	add.w	r2, r2, #1024	; 0x400
 80043e4:	4293      	cmp	r3, r2
 80043e6:	d004      	beq.n	80043f2 <HAL_TIM_PWM_ConfigChannel+0x102>
 80043e8:	f640 4151 	movw	r1, #3153	; 0xc51
 80043ec:	4832      	ldr	r0, [pc, #200]	; (80044b8 <HAL_TIM_PWM_ConfigChannel+0x1c8>)
 80043ee:	f002 f987 	bl	8006700 <assert_failed>
 80043f2:	4629      	mov	r1, r5
 80043f4:	6820      	ldr	r0, [r4, #0]
 80043f6:	f7ff ff2d 	bl	8004254 <TIM_OC2_SetConfig>
 80043fa:	6823      	ldr	r3, [r4, #0]
 80043fc:	6929      	ldr	r1, [r5, #16]
 80043fe:	699a      	ldr	r2, [r3, #24]
 8004400:	f442 6200 	orr.w	r2, r2, #2048	; 0x800
 8004404:	619a      	str	r2, [r3, #24]
 8004406:	699a      	ldr	r2, [r3, #24]
 8004408:	f422 6280 	bic.w	r2, r2, #1024	; 0x400
 800440c:	619a      	str	r2, [r3, #24]
 800440e:	699a      	ldr	r2, [r3, #24]
 8004410:	ea42 2201 	orr.w	r2, r2, r1, lsl #8
 8004414:	e7d1      	b.n	80043ba <HAL_TIM_PWM_ConfigChannel+0xca>
 8004416:	6823      	ldr	r3, [r4, #0]
 8004418:	4a28      	ldr	r2, [pc, #160]	; (80044bc <HAL_TIM_PWM_ConfigChannel+0x1cc>)
 800441a:	4293      	cmp	r3, r2
 800441c:	d00f      	beq.n	800443e <HAL_TIM_PWM_ConfigChannel+0x14e>
 800441e:	f1b3 4f80 	cmp.w	r3, #1073741824	; 0x40000000
 8004422:	d00c      	beq.n	800443e <HAL_TIM_PWM_ConfigChannel+0x14e>
 8004424:	f5a2 3294 	sub.w	r2, r2, #75776	; 0x12800
 8004428:	4293      	cmp	r3, r2
 800442a:	d008      	beq.n	800443e <HAL_TIM_PWM_ConfigChannel+0x14e>
 800442c:	f502 6280 	add.w	r2, r2, #1024	; 0x400
 8004430:	4293      	cmp	r3, r2
 8004432:	d004      	beq.n	800443e <HAL_TIM_PWM_ConfigChannel+0x14e>
 8004434:	f44f 6146 	mov.w	r1, #3168	; 0xc60
 8004438:	481f      	ldr	r0, [pc, #124]	; (80044b8 <HAL_TIM_PWM_ConfigChannel+0x1c8>)
 800443a:	f002 f961 	bl	8006700 <assert_failed>
 800443e:	4629      	mov	r1, r5
 8004440:	6820      	ldr	r0, [r4, #0]
 8004442:	f7ff f9df 	bl	8003804 <TIM_OC3_SetConfig>
 8004446:	6823      	ldr	r3, [r4, #0]
 8004448:	6929      	ldr	r1, [r5, #16]
 800444a:	69da      	ldr	r2, [r3, #28]
 800444c:	f042 0208 	orr.w	r2, r2, #8
 8004450:	61da      	str	r2, [r3, #28]
 8004452:	69da      	ldr	r2, [r3, #28]
 8004454:	f022 0204 	bic.w	r2, r2, #4
 8004458:	61da      	str	r2, [r3, #28]
 800445a:	69da      	ldr	r2, [r3, #28]
 800445c:	430a      	orrs	r2, r1
 800445e:	61da      	str	r2, [r3, #28]
 8004460:	e7ac      	b.n	80043bc <HAL_TIM_PWM_ConfigChannel+0xcc>
 8004462:	6823      	ldr	r3, [r4, #0]
 8004464:	4a15      	ldr	r2, [pc, #84]	; (80044bc <HAL_TIM_PWM_ConfigChannel+0x1cc>)
 8004466:	4293      	cmp	r3, r2
 8004468:	d00f      	beq.n	800448a <HAL_TIM_PWM_ConfigChannel+0x19a>
 800446a:	f1b3 4f80 	cmp.w	r3, #1073741824	; 0x40000000
 800446e:	d00c      	beq.n	800448a <HAL_TIM_PWM_ConfigChannel+0x19a>
 8004470:	f5a2 3294 	sub.w	r2, r2, #75776	; 0x12800
 8004474:	4293      	cmp	r3, r2
 8004476:	d008      	beq.n	800448a <HAL_TIM_PWM_ConfigChannel+0x19a>
 8004478:	f502 6280 	add.w	r2, r2, #1024	; 0x400
 800447c:	4293      	cmp	r3, r2
 800447e:	d004      	beq.n	800448a <HAL_TIM_PWM_ConfigChannel+0x19a>
 8004480:	f640 416f 	movw	r1, #3183	; 0xc6f
 8004484:	480c      	ldr	r0, [pc, #48]	; (80044b8 <HAL_TIM_PWM_ConfigChannel+0x1c8>)
 8004486:	f002 f93b 	bl	8006700 <assert_failed>
 800448a:	4629      	mov	r1, r5
 800448c:	6820      	ldr	r0, [r4, #0]
 800448e:	f7ff fa07 	bl	80038a0 <TIM_OC4_SetConfig>
 8004492:	6823      	ldr	r3, [r4, #0]
 8004494:	6929      	ldr	r1, [r5, #16]
 8004496:	69da      	ldr	r2, [r3, #28]
 8004498:	f442 6200 	orr.w	r2, r2, #2048	; 0x800
 800449c:	61da      	str	r2, [r3, #28]
 800449e:	69da      	ldr	r2, [r3, #28]
 80044a0:	f422 6280 	bic.w	r2, r2, #1024	; 0x400
 80044a4:	61da      	str	r2, [r3, #28]
 80044a6:	69da      	ldr	r2, [r3, #28]
 80044a8:	ea42 2201 	orr.w	r2, r2, r1, lsl #8
 80044ac:	e7d7      	b.n	800445e <HAL_TIM_PWM_ConfigChannel+0x16e>
 80044ae:	2002      	movs	r0, #2
 80044b0:	bd70      	pop	{r4, r5, r6, pc}
 80044b2:	bf00      	nop
 80044b4:	01001111 	.word	0x01001111
 80044b8:	08007e1a 	.word	0x08007e1a
 80044bc:	40012c00 	.word	0x40012c00

080044c0 <TIM_TI1_SetConfig>:
 80044c0:	b570      	push	{r4, r5, r6, lr}
 80044c2:	6a04      	ldr	r4, [r0, #32]
 80044c4:	4e12      	ldr	r6, [pc, #72]	; (8004510 <TIM_TI1_SetConfig+0x50>)
 80044c6:	f024 0401 	bic.w	r4, r4, #1
 80044ca:	6204      	str	r4, [r0, #32]
 80044cc:	42b0      	cmp	r0, r6
 80044ce:	6984      	ldr	r4, [r0, #24]
 80044d0:	6a05      	ldr	r5, [r0, #32]
 80044d2:	d00a      	beq.n	80044ea <TIM_TI1_SetConfig+0x2a>
 80044d4:	f1b0 4f80 	cmp.w	r0, #1073741824	; 0x40000000
 80044d8:	d007      	beq.n	80044ea <TIM_TI1_SetConfig+0x2a>
 80044da:	f5a6 3694 	sub.w	r6, r6, #75776	; 0x12800
 80044de:	42b0      	cmp	r0, r6
 80044e0:	d003      	beq.n	80044ea <TIM_TI1_SetConfig+0x2a>
 80044e2:	f506 6680 	add.w	r6, r6, #1024	; 0x400
 80044e6:	42b0      	cmp	r0, r6
 80044e8:	d10f      	bne.n	800450a <TIM_TI1_SetConfig+0x4a>
 80044ea:	f024 0403 	bic.w	r4, r4, #3
 80044ee:	4322      	orrs	r2, r4
 80044f0:	011b      	lsls	r3, r3, #4
 80044f2:	f022 02f0 	bic.w	r2, r2, #240	; 0xf0
 80044f6:	b2db      	uxtb	r3, r3
 80044f8:	f025 050a 	bic.w	r5, r5, #10
 80044fc:	f001 010a 	and.w	r1, r1, #10
 8004500:	431a      	orrs	r2, r3
 8004502:	4329      	orrs	r1, r5
 8004504:	6182      	str	r2, [r0, #24]
 8004506:	6201      	str	r1, [r0, #32]
 8004508:	bd70      	pop	{r4, r5, r6, pc}
 800450a:	f044 0201 	orr.w	r2, r4, #1
 800450e:	e7ef      	b.n	80044f0 <TIM_TI1_SetConfig+0x30>
 8004510:	40012c00 	.word	0x40012c00

08004514 <HAL_TIM_IC_ConfigChannel>:
 8004514:	b5f8      	push	{r3, r4, r5, r6, r7, lr}
 8004516:	4616      	mov	r6, r2
 8004518:	6803      	ldr	r3, [r0, #0]
 800451a:	4a80      	ldr	r2, [pc, #512]	; (800471c <HAL_TIM_IC_ConfigChannel+0x208>)
 800451c:	4605      	mov	r5, r0
 800451e:	4293      	cmp	r3, r2
 8004520:	460c      	mov	r4, r1
 8004522:	d00f      	beq.n	8004544 <HAL_TIM_IC_ConfigChannel+0x30>
 8004524:	f1b3 4f80 	cmp.w	r3, #1073741824	; 0x40000000
 8004528:	d00c      	beq.n	8004544 <HAL_TIM_IC_ConfigChannel+0x30>
 800452a:	f5a2 3294 	sub.w	r2, r2, #75776	; 0x12800
 800452e:	4293      	cmp	r3, r2
 8004530:	d008      	beq.n	8004544 <HAL_TIM_IC_ConfigChannel+0x30>
 8004532:	f502 6280 	add.w	r2, r2, #1024	; 0x400
 8004536:	4293      	cmp	r3, r2
 8004538:	d004      	beq.n	8004544 <HAL_TIM_IC_ConfigChannel+0x30>
 800453a:	f640 31d5 	movw	r1, #3029	; 0xbd5
 800453e:	4878      	ldr	r0, [pc, #480]	; (8004720 <HAL_TIM_IC_ConfigChannel+0x20c>)
 8004540:	f002 f8de 	bl	8006700 <assert_failed>
 8004544:	6823      	ldr	r3, [r4, #0]
 8004546:	f033 0202 	bics.w	r2, r3, #2
 800454a:	d006      	beq.n	800455a <HAL_TIM_IC_ConfigChannel+0x46>
 800454c:	2b0a      	cmp	r3, #10
 800454e:	d004      	beq.n	800455a <HAL_TIM_IC_ConfigChannel+0x46>
 8004550:	f640 31d6 	movw	r1, #3030	; 0xbd6
 8004554:	4872      	ldr	r0, [pc, #456]	; (8004720 <HAL_TIM_IC_ConfigChannel+0x20c>)
 8004556:	f002 f8d3 	bl	8006700 <assert_failed>
 800455a:	6863      	ldr	r3, [r4, #4]
 800455c:	3b01      	subs	r3, #1
 800455e:	2b02      	cmp	r3, #2
 8004560:	d904      	bls.n	800456c <HAL_TIM_IC_ConfigChannel+0x58>
 8004562:	f640 31d7 	movw	r1, #3031	; 0xbd7
 8004566:	486e      	ldr	r0, [pc, #440]	; (8004720 <HAL_TIM_IC_ConfigChannel+0x20c>)
 8004568:	f002 f8ca 	bl	8006700 <assert_failed>
 800456c:	68a3      	ldr	r3, [r4, #8]
 800456e:	f033 030c 	bics.w	r3, r3, #12
 8004572:	d004      	beq.n	800457e <HAL_TIM_IC_ConfigChannel+0x6a>
 8004574:	f640 31d8 	movw	r1, #3032	; 0xbd8
 8004578:	4869      	ldr	r0, [pc, #420]	; (8004720 <HAL_TIM_IC_ConfigChannel+0x20c>)
 800457a:	f002 f8c1 	bl	8006700 <assert_failed>
 800457e:	68e3      	ldr	r3, [r4, #12]
 8004580:	2b0f      	cmp	r3, #15
 8004582:	d904      	bls.n	800458e <HAL_TIM_IC_ConfigChannel+0x7a>
 8004584:	f640 31d9 	movw	r1, #3033	; 0xbd9
 8004588:	4865      	ldr	r0, [pc, #404]	; (8004720 <HAL_TIM_IC_ConfigChannel+0x20c>)
 800458a:	f002 f8b9 	bl	8006700 <assert_failed>
 800458e:	f895 303c 	ldrb.w	r3, [r5, #60]	; 0x3c
 8004592:	2002      	movs	r0, #2
 8004594:	2b01      	cmp	r3, #1
 8004596:	d01a      	beq.n	80045ce <HAL_TIM_IC_ConfigChannel+0xba>
 8004598:	2301      	movs	r3, #1
 800459a:	f885 003d 	strb.w	r0, [r5, #61]	; 0x3d
 800459e:	f885 303c 	strb.w	r3, [r5, #60]	; 0x3c
 80045a2:	b9ae      	cbnz	r6, 80045d0 <HAL_TIM_IC_ConfigChannel+0xbc>
 80045a4:	e894 0006 	ldmia.w	r4, {r1, r2}
 80045a8:	68e3      	ldr	r3, [r4, #12]
 80045aa:	6828      	ldr	r0, [r5, #0]
 80045ac:	f7ff ff88 	bl	80044c0 <TIM_TI1_SetConfig>
 80045b0:	682b      	ldr	r3, [r5, #0]
 80045b2:	68a1      	ldr	r1, [r4, #8]
 80045b4:	699a      	ldr	r2, [r3, #24]
 80045b6:	f022 020c 	bic.w	r2, r2, #12
 80045ba:	619a      	str	r2, [r3, #24]
 80045bc:	699a      	ldr	r2, [r3, #24]
 80045be:	430a      	orrs	r2, r1
 80045c0:	619a      	str	r2, [r3, #24]
 80045c2:	2301      	movs	r3, #1
 80045c4:	2000      	movs	r0, #0
 80045c6:	f885 303d 	strb.w	r3, [r5, #61]	; 0x3d
 80045ca:	f885 003c 	strb.w	r0, [r5, #60]	; 0x3c
 80045ce:	bdf8      	pop	{r3, r4, r5, r6, r7, pc}
 80045d0:	2e04      	cmp	r6, #4
 80045d2:	682b      	ldr	r3, [r5, #0]
 80045d4:	4a51      	ldr	r2, [pc, #324]	; (800471c <HAL_TIM_IC_ConfigChannel+0x208>)
 80045d6:	d135      	bne.n	8004644 <HAL_TIM_IC_ConfigChannel+0x130>
 80045d8:	4293      	cmp	r3, r2
 80045da:	d00f      	beq.n	80045fc <HAL_TIM_IC_ConfigChannel+0xe8>
 80045dc:	f1b3 4f80 	cmp.w	r3, #1073741824	; 0x40000000
 80045e0:	d00c      	beq.n	80045fc <HAL_TIM_IC_ConfigChannel+0xe8>
 80045e2:	f5a2 3294 	sub.w	r2, r2, #75776	; 0x12800
 80045e6:	4293      	cmp	r3, r2
 80045e8:	d008      	beq.n	80045fc <HAL_TIM_IC_ConfigChannel+0xe8>
 80045ea:	f502 6280 	add.w	r2, r2, #1024	; 0x400
 80045ee:	4293      	cmp	r3, r2
 80045f0:	d004      	beq.n	80045fc <HAL_TIM_IC_ConfigChannel+0xe8>
 80045f2:	f44f 613f 	mov.w	r1, #3056	; 0xbf0
 80045f6:	484a      	ldr	r0, [pc, #296]	; (8004720 <HAL_TIM_IC_ConfigChannel+0x20c>)
 80045f8:	f002 f882 	bl	8006700 <assert_failed>
 80045fc:	e894 0084 	ldmia.w	r4, {r2, r7}
 8004600:	682b      	ldr	r3, [r5, #0]
 8004602:	68e1      	ldr	r1, [r4, #12]
 8004604:	6a1e      	ldr	r6, [r3, #32]
 8004606:	0309      	lsls	r1, r1, #12
 8004608:	f026 0610 	bic.w	r6, r6, #16
 800460c:	621e      	str	r6, [r3, #32]
 800460e:	6998      	ldr	r0, [r3, #24]
 8004610:	6a1e      	ldr	r6, [r3, #32]
 8004612:	f420 7040 	bic.w	r0, r0, #768	; 0x300
 8004616:	ea40 2007 	orr.w	r0, r0, r7, lsl #8
 800461a:	f420 4070 	bic.w	r0, r0, #61440	; 0xf000
 800461e:	b289      	uxth	r1, r1
 8004620:	0112      	lsls	r2, r2, #4
 8004622:	4301      	orrs	r1, r0
 8004624:	f002 02a0 	and.w	r2, r2, #160	; 0xa0
 8004628:	f026 00a0 	bic.w	r0, r6, #160	; 0xa0
 800462c:	4302      	orrs	r2, r0
 800462e:	6199      	str	r1, [r3, #24]
 8004630:	621a      	str	r2, [r3, #32]
 8004632:	699a      	ldr	r2, [r3, #24]
 8004634:	68a1      	ldr	r1, [r4, #8]
 8004636:	f422 6240 	bic.w	r2, r2, #3072	; 0xc00
 800463a:	619a      	str	r2, [r3, #24]
 800463c:	699a      	ldr	r2, [r3, #24]
 800463e:	ea42 2201 	orr.w	r2, r2, r1, lsl #8
 8004642:	e7bd      	b.n	80045c0 <HAL_TIM_IC_ConfigChannel+0xac>
 8004644:	2e08      	cmp	r6, #8
 8004646:	d133      	bne.n	80046b0 <HAL_TIM_IC_ConfigChannel+0x19c>
 8004648:	4293      	cmp	r3, r2
 800464a:	d00e      	beq.n	800466a <HAL_TIM_IC_ConfigChannel+0x156>
 800464c:	f1b3 4f80 	cmp.w	r3, #1073741824	; 0x40000000
 8004650:	d00b      	beq.n	800466a <HAL_TIM_IC_ConfigChannel+0x156>
 8004652:	4a34      	ldr	r2, [pc, #208]	; (8004724 <HAL_TIM_IC_ConfigChannel+0x210>)
 8004654:	4293      	cmp	r3, r2
 8004656:	d008      	beq.n	800466a <HAL_TIM_IC_ConfigChannel+0x156>
 8004658:	f502 6280 	add.w	r2, r2, #1024	; 0x400
 800465c:	4293      	cmp	r3, r2
 800465e:	d004      	beq.n	800466a <HAL_TIM_IC_ConfigChannel+0x156>
 8004660:	f44f 6140 	mov.w	r1, #3072	; 0xc00
 8004664:	482e      	ldr	r0, [pc, #184]	; (8004720 <HAL_TIM_IC_ConfigChannel+0x20c>)
 8004666:	f002 f84b 	bl	8006700 <assert_failed>
 800466a:	682b      	ldr	r3, [r5, #0]
 800466c:	6822      	ldr	r2, [r4, #0]
 800466e:	6a1e      	ldr	r6, [r3, #32]
 8004670:	6860      	ldr	r0, [r4, #4]
 8004672:	f426 7680 	bic.w	r6, r6, #256	; 0x100
 8004676:	68e1      	ldr	r1, [r4, #12]
 8004678:	621e      	str	r6, [r3, #32]
 800467a:	69df      	ldr	r7, [r3, #28]
 800467c:	0109      	lsls	r1, r1, #4
 800467e:	f027 0703 	bic.w	r7, r7, #3
 8004682:	6a1e      	ldr	r6, [r3, #32]
 8004684:	4338      	orrs	r0, r7
 8004686:	f020 00f0 	bic.w	r0, r0, #240	; 0xf0
 800468a:	b2c9      	uxtb	r1, r1
 800468c:	0212      	lsls	r2, r2, #8
 800468e:	4301      	orrs	r1, r0
 8004690:	f402 7200 	and.w	r2, r2, #512	; 0x200
 8004694:	f426 7000 	bic.w	r0, r6, #512	; 0x200
 8004698:	4302      	orrs	r2, r0
 800469a:	61d9      	str	r1, [r3, #28]
 800469c:	621a      	str	r2, [r3, #32]
 800469e:	69da      	ldr	r2, [r3, #28]
 80046a0:	68a1      	ldr	r1, [r4, #8]
 80046a2:	f022 020c 	bic.w	r2, r2, #12
 80046a6:	61da      	str	r2, [r3, #28]
 80046a8:	69da      	ldr	r2, [r3, #28]
 80046aa:	430a      	orrs	r2, r1
 80046ac:	61da      	str	r2, [r3, #28]
 80046ae:	e788      	b.n	80045c2 <HAL_TIM_IC_ConfigChannel+0xae>
 80046b0:	4293      	cmp	r3, r2
 80046b2:	d00e      	beq.n	80046d2 <HAL_TIM_IC_ConfigChannel+0x1be>
 80046b4:	f1b3 4f80 	cmp.w	r3, #1073741824	; 0x40000000
 80046b8:	d00b      	beq.n	80046d2 <HAL_TIM_IC_ConfigChannel+0x1be>
 80046ba:	4a1a      	ldr	r2, [pc, #104]	; (8004724 <HAL_TIM_IC_ConfigChannel+0x210>)
 80046bc:	4293      	cmp	r3, r2
 80046be:	d008      	beq.n	80046d2 <HAL_TIM_IC_ConfigChannel+0x1be>
 80046c0:	f502 6280 	add.w	r2, r2, #1024	; 0x400
 80046c4:	4293      	cmp	r3, r2
 80046c6:	d004      	beq.n	80046d2 <HAL_TIM_IC_ConfigChannel+0x1be>
 80046c8:	f44f 6141 	mov.w	r1, #3088	; 0xc10
 80046cc:	4814      	ldr	r0, [pc, #80]	; (8004720 <HAL_TIM_IC_ConfigChannel+0x20c>)
 80046ce:	f002 f817 	bl	8006700 <assert_failed>
 80046d2:	e894 0084 	ldmia.w	r4, {r2, r7}
 80046d6:	682b      	ldr	r3, [r5, #0]
 80046d8:	68e1      	ldr	r1, [r4, #12]
 80046da:	6a1e      	ldr	r6, [r3, #32]
 80046dc:	0309      	lsls	r1, r1, #12
 80046de:	f426 5680 	bic.w	r6, r6, #4096	; 0x1000
 80046e2:	621e      	str	r6, [r3, #32]
 80046e4:	69d8      	ldr	r0, [r3, #28]
 80046e6:	6a1e      	ldr	r6, [r3, #32]
 80046e8:	f420 7040 	bic.w	r0, r0, #768	; 0x300
 80046ec:	ea40 2007 	orr.w	r0, r0, r7, lsl #8
 80046f0:	f420 4070 	bic.w	r0, r0, #61440	; 0xf000
 80046f4:	b289      	uxth	r1, r1
 80046f6:	0312      	lsls	r2, r2, #12
 80046f8:	4301      	orrs	r1, r0
 80046fa:	f402 5200 	and.w	r2, r2, #8192	; 0x2000
 80046fe:	f426 5000 	bic.w	r0, r6, #8192	; 0x2000
 8004702:	4302      	orrs	r2, r0
 8004704:	61d9      	str	r1, [r3, #28]
 8004706:	621a      	str	r2, [r3, #32]
 8004708:	69da      	ldr	r2, [r3, #28]
 800470a:	68a1      	ldr	r1, [r4, #8]
 800470c:	f422 6240 	bic.w	r2, r2, #3072	; 0xc00
 8004710:	61da      	str	r2, [r3, #28]
 8004712:	69da      	ldr	r2, [r3, #28]
 8004714:	ea42 2201 	orr.w	r2, r2, r1, lsl #8
 8004718:	e7c8      	b.n	80046ac <HAL_TIM_IC_ConfigChannel+0x198>
 800471a:	bf00      	nop
 800471c:	40012c00 	.word	0x40012c00
 8004720:	08007e1a 	.word	0x08007e1a
 8004724:	40000400 	.word	0x40000400

08004728 <TIM_CCxChannelCmd>:
 8004728:	4b16      	ldr	r3, [pc, #88]	; (8004784 <TIM_CCxChannelCmd+0x5c>)
 800472a:	b570      	push	{r4, r5, r6, lr}
 800472c:	4298      	cmp	r0, r3
 800472e:	4604      	mov	r4, r0
 8004730:	460e      	mov	r6, r1
 8004732:	4615      	mov	r5, r2
 8004734:	d00f      	beq.n	8004756 <TIM_CCxChannelCmd+0x2e>
 8004736:	f1b0 4f80 	cmp.w	r0, #1073741824	; 0x40000000
 800473a:	d00c      	beq.n	8004756 <TIM_CCxChannelCmd+0x2e>
 800473c:	f5a3 3394 	sub.w	r3, r3, #75776	; 0x12800
 8004740:	4298      	cmp	r0, r3
 8004742:	d008      	beq.n	8004756 <TIM_CCxChannelCmd+0x2e>
 8004744:	f503 6380 	add.w	r3, r3, #1024	; 0x400
 8004748:	4298      	cmp	r0, r3
 800474a:	d004      	beq.n	8004756 <TIM_CCxChannelCmd+0x2e>
 800474c:	f241 5113 	movw	r1, #5395	; 0x1513
 8004750:	480d      	ldr	r0, [pc, #52]	; (8004788 <TIM_CCxChannelCmd+0x60>)
 8004752:	f001 ffd5 	bl	8006700 <assert_failed>
 8004756:	2e18      	cmp	r6, #24
 8004758:	d803      	bhi.n	8004762 <TIM_CCxChannelCmd+0x3a>
 800475a:	4b0c      	ldr	r3, [pc, #48]	; (800478c <TIM_CCxChannelCmd+0x64>)
 800475c:	40f3      	lsrs	r3, r6
 800475e:	07db      	lsls	r3, r3, #31
 8004760:	d404      	bmi.n	800476c <TIM_CCxChannelCmd+0x44>
 8004762:	f241 5114 	movw	r1, #5396	; 0x1514
 8004766:	4808      	ldr	r0, [pc, #32]	; (8004788 <TIM_CCxChannelCmd+0x60>)
 8004768:	f001 ffca 	bl	8006700 <assert_failed>
 800476c:	2201      	movs	r2, #1
 800476e:	6a23      	ldr	r3, [r4, #32]
 8004770:	40b2      	lsls	r2, r6
 8004772:	ea23 0302 	bic.w	r3, r3, r2
 8004776:	6223      	str	r3, [r4, #32]
 8004778:	6a23      	ldr	r3, [r4, #32]
 800477a:	40b5      	lsls	r5, r6
 800477c:	431d      	orrs	r5, r3
 800477e:	6225      	str	r5, [r4, #32]
 8004780:	bd70      	pop	{r4, r5, r6, pc}
 8004782:	bf00      	nop
 8004784:	40012c00 	.word	0x40012c00
 8004788:	08007e1a 	.word	0x08007e1a
 800478c:	01001111 	.word	0x01001111

08004790 <HAL_TIM_PWM_Start>:
 8004790:	b538      	push	{r3, r4, r5, lr}
 8004792:	4a16      	ldr	r2, [pc, #88]	; (80047ec <HAL_TIM_PWM_Start+0x5c>)
 8004794:	6803      	ldr	r3, [r0, #0]
 8004796:	4604      	mov	r4, r0
 8004798:	4293      	cmp	r3, r2
 800479a:	460d      	mov	r5, r1
 800479c:	d00a      	beq.n	80047b4 <HAL_TIM_PWM_Start+0x24>
 800479e:	f1b3 4f80 	cmp.w	r3, #1073741824	; 0x40000000
 80047a2:	d007      	beq.n	80047b4 <HAL_TIM_PWM_Start+0x24>
 80047a4:	f5a2 3294 	sub.w	r2, r2, #75776	; 0x12800
 80047a8:	4293      	cmp	r3, r2
 80047aa:	d003      	beq.n	80047b4 <HAL_TIM_PWM_Start+0x24>
 80047ac:	f502 6280 	add.w	r2, r2, #1024	; 0x400
 80047b0:	4293      	cmp	r3, r2
 80047b2:	d102      	bne.n	80047ba <HAL_TIM_PWM_Start+0x2a>
 80047b4:	f035 030c 	bics.w	r3, r5, #12
 80047b8:	d004      	beq.n	80047c4 <HAL_TIM_PWM_Start+0x34>
 80047ba:	f240 414d 	movw	r1, #1101	; 0x44d
 80047be:	480c      	ldr	r0, [pc, #48]	; (80047f0 <HAL_TIM_PWM_Start+0x60>)
 80047c0:	f001 ff9e 	bl	8006700 <assert_failed>
 80047c4:	6820      	ldr	r0, [r4, #0]
 80047c6:	2201      	movs	r2, #1
 80047c8:	4629      	mov	r1, r5
 80047ca:	f7ff ffad 	bl	8004728 <TIM_CCxChannelCmd>
 80047ce:	6823      	ldr	r3, [r4, #0]
 80047d0:	4a06      	ldr	r2, [pc, #24]	; (80047ec <HAL_TIM_PWM_Start+0x5c>)
 80047d2:	2000      	movs	r0, #0
 80047d4:	4293      	cmp	r3, r2
 80047d6:	bf02      	ittt	eq
 80047d8:	6c5a      	ldreq	r2, [r3, #68]	; 0x44
 80047da:	f442 4200 	orreq.w	r2, r2, #32768	; 0x8000
 80047de:	645a      	streq	r2, [r3, #68]	; 0x44
 80047e0:	681a      	ldr	r2, [r3, #0]
 80047e2:	f042 0201 	orr.w	r2, r2, #1
 80047e6:	601a      	str	r2, [r3, #0]
 80047e8:	bd38      	pop	{r3, r4, r5, pc}
 80047ea:	bf00      	nop
 80047ec:	40012c00 	.word	0x40012c00
 80047f0:	08007e1a 	.word	0x08007e1a

080047f4 <HAL_TIM_IC_Start_IT>:
 80047f4:	b538      	push	{r3, r4, r5, lr}
 80047f6:	4a24      	ldr	r2, [pc, #144]	; (8004888 <HAL_TIM_IC_Start_IT+0x94>)
 80047f8:	6803      	ldr	r3, [r0, #0]
 80047fa:	4604      	mov	r4, r0
 80047fc:	4293      	cmp	r3, r2
 80047fe:	460d      	mov	r5, r1
 8004800:	d00a      	beq.n	8004818 <HAL_TIM_IC_Start_IT+0x24>
 8004802:	f1b3 4f80 	cmp.w	r3, #1073741824	; 0x40000000
 8004806:	d007      	beq.n	8004818 <HAL_TIM_IC_Start_IT+0x24>
 8004808:	f5a2 3294 	sub.w	r2, r2, #75776	; 0x12800
 800480c:	4293      	cmp	r3, r2
 800480e:	d003      	beq.n	8004818 <HAL_TIM_IC_Start_IT+0x24>
 8004810:	f502 6280 	add.w	r2, r2, #1024	; 0x400
 8004814:	4293      	cmp	r3, r2
 8004816:	d106      	bne.n	8004826 <HAL_TIM_IC_Start_IT+0x32>
 8004818:	b1ad      	cbz	r5, 8004846 <HAL_TIM_IC_Start_IT+0x52>
 800481a:	2d04      	cmp	r5, #4
 800481c:	d024      	beq.n	8004868 <HAL_TIM_IC_Start_IT+0x74>
 800481e:	2d08      	cmp	r5, #8
 8004820:	d027      	beq.n	8004872 <HAL_TIM_IC_Start_IT+0x7e>
 8004822:	2d0c      	cmp	r5, #12
 8004824:	d02a      	beq.n	800487c <HAL_TIM_IC_Start_IT+0x88>
 8004826:	f240 6181 	movw	r1, #1665	; 0x681
 800482a:	4818      	ldr	r0, [pc, #96]	; (800488c <HAL_TIM_IC_Start_IT+0x98>)
 800482c:	f001 ff68 	bl	8006700 <assert_failed>
 8004830:	2d0c      	cmp	r5, #12
 8004832:	d80d      	bhi.n	8004850 <HAL_TIM_IC_Start_IT+0x5c>
 8004834:	e8df f005 	tbb	[pc, r5]
 8004838:	0c0c0c07 	.word	0x0c0c0c07
 800483c:	0c0c0c18 	.word	0x0c0c0c18
 8004840:	0c0c0c1d 	.word	0x0c0c0c1d
 8004844:	22          	.byte	0x22
 8004845:	00          	.byte	0x00
 8004846:	6822      	ldr	r2, [r4, #0]
 8004848:	68d3      	ldr	r3, [r2, #12]
 800484a:	f043 0302 	orr.w	r3, r3, #2
 800484e:	60d3      	str	r3, [r2, #12]
 8004850:	6820      	ldr	r0, [r4, #0]
 8004852:	2201      	movs	r2, #1
 8004854:	4629      	mov	r1, r5
 8004856:	f7ff ff67 	bl	8004728 <TIM_CCxChannelCmd>
 800485a:	6822      	ldr	r2, [r4, #0]
 800485c:	2000      	movs	r0, #0
 800485e:	6813      	ldr	r3, [r2, #0]
 8004860:	f043 0301 	orr.w	r3, r3, #1
 8004864:	6013      	str	r3, [r2, #0]
 8004866:	bd38      	pop	{r3, r4, r5, pc}
 8004868:	6822      	ldr	r2, [r4, #0]
 800486a:	68d3      	ldr	r3, [r2, #12]
 800486c:	f043 0304 	orr.w	r3, r3, #4
 8004870:	e7ed      	b.n	800484e <HAL_TIM_IC_Start_IT+0x5a>
 8004872:	6822      	ldr	r2, [r4, #0]
 8004874:	68d3      	ldr	r3, [r2, #12]
 8004876:	f043 0308 	orr.w	r3, r3, #8
 800487a:	e7e8      	b.n	800484e <HAL_TIM_IC_Start_IT+0x5a>
 800487c:	6822      	ldr	r2, [r4, #0]
 800487e:	68d3      	ldr	r3, [r2, #12]
 8004880:	f043 0310 	orr.w	r3, r3, #16
 8004884:	e7e3      	b.n	800484e <HAL_TIM_IC_Start_IT+0x5a>
 8004886:	bf00      	nop
 8004888:	40012c00 	.word	0x40012c00
 800488c:	08007e1a 	.word	0x08007e1a

08004890 <HAL_TIMEx_MasterConfigSynchronization>:
 8004890:	b538      	push	{r3, r4, r5, lr}
 8004892:	4a24      	ldr	r2, [pc, #144]	; (8004924 <HAL_TIMEx_MasterConfigSynchronization+0x94>)
 8004894:	6803      	ldr	r3, [r0, #0]
 8004896:	4604      	mov	r4, r0
 8004898:	4293      	cmp	r3, r2
 800489a:	460d      	mov	r5, r1
 800489c:	d00f      	beq.n	80048be <HAL_TIMEx_MasterConfigSynchronization+0x2e>
 800489e:	f1b3 4f80 	cmp.w	r3, #1073741824	; 0x40000000
 80048a2:	d00c      	beq.n	80048be <HAL_TIMEx_MasterConfigSynchronization+0x2e>
 80048a4:	f5a2 3294 	sub.w	r2, r2, #75776	; 0x12800
 80048a8:	4293      	cmp	r3, r2
 80048aa:	d008      	beq.n	80048be <HAL_TIMEx_MasterConfigSynchronization+0x2e>
 80048ac:	f502 6280 	add.w	r2, r2, #1024	; 0x400
 80048b0:	4293      	cmp	r3, r2
 80048b2:	d004      	beq.n	80048be <HAL_TIMEx_MasterConfigSynchronization+0x2e>
 80048b4:	f44f 61c7 	mov.w	r1, #1592	; 0x638
 80048b8:	481b      	ldr	r0, [pc, #108]	; (8004928 <HAL_TIMEx_MasterConfigSynchronization+0x98>)
 80048ba:	f001 ff21 	bl	8006700 <assert_failed>
 80048be:	682b      	ldr	r3, [r5, #0]
 80048c0:	f033 0330 	bics.w	r3, r3, #48	; 0x30
 80048c4:	d006      	beq.n	80048d4 <HAL_TIMEx_MasterConfigSynchronization+0x44>
 80048c6:	2b40      	cmp	r3, #64	; 0x40
 80048c8:	d004      	beq.n	80048d4 <HAL_TIMEx_MasterConfigSynchronization+0x44>
 80048ca:	f240 6139 	movw	r1, #1593	; 0x639
 80048ce:	4816      	ldr	r0, [pc, #88]	; (8004928 <HAL_TIMEx_MasterConfigSynchronization+0x98>)
 80048d0:	f001 ff16 	bl	8006700 <assert_failed>
 80048d4:	686b      	ldr	r3, [r5, #4]
 80048d6:	f033 0380 	bics.w	r3, r3, #128	; 0x80
 80048da:	d004      	beq.n	80048e6 <HAL_TIMEx_MasterConfigSynchronization+0x56>
 80048dc:	f240 613a 	movw	r1, #1594	; 0x63a
 80048e0:	4811      	ldr	r0, [pc, #68]	; (8004928 <HAL_TIMEx_MasterConfigSynchronization+0x98>)
 80048e2:	f001 ff0d 	bl	8006700 <assert_failed>
 80048e6:	f894 303c 	ldrb.w	r3, [r4, #60]	; 0x3c
 80048ea:	2002      	movs	r0, #2
 80048ec:	2b01      	cmp	r3, #1
 80048ee:	d018      	beq.n	8004922 <HAL_TIMEx_MasterConfigSynchronization+0x92>
 80048f0:	6823      	ldr	r3, [r4, #0]
 80048f2:	f884 003d 	strb.w	r0, [r4, #61]	; 0x3d
 80048f6:	685a      	ldr	r2, [r3, #4]
 80048f8:	6829      	ldr	r1, [r5, #0]
 80048fa:	f022 0270 	bic.w	r2, r2, #112	; 0x70
 80048fe:	605a      	str	r2, [r3, #4]
 8004900:	685a      	ldr	r2, [r3, #4]
 8004902:	2000      	movs	r0, #0
 8004904:	430a      	orrs	r2, r1
 8004906:	605a      	str	r2, [r3, #4]
 8004908:	689a      	ldr	r2, [r3, #8]
 800490a:	6869      	ldr	r1, [r5, #4]
 800490c:	f022 0280 	bic.w	r2, r2, #128	; 0x80
 8004910:	609a      	str	r2, [r3, #8]
 8004912:	689a      	ldr	r2, [r3, #8]
 8004914:	430a      	orrs	r2, r1
 8004916:	609a      	str	r2, [r3, #8]
 8004918:	2301      	movs	r3, #1
 800491a:	f884 003c 	strb.w	r0, [r4, #60]	; 0x3c
 800491e:	f884 303d 	strb.w	r3, [r4, #61]	; 0x3d
 8004922:	bd38      	pop	{r3, r4, r5, pc}
 8004924:	40012c00 	.word	0x40012c00
 8004928:	08007e52 	.word	0x08007e52

0800492c <HAL_TIMEx_CommutationCallback>:
 800492c:	4770      	bx	lr

0800492e <HAL_TIMEx_BreakCallback>:
 800492e:	4770      	bx	lr

08004930 <u8g2_DrawBox>:
 8004930:	e92d 43f7 	stmdb	sp!, {r0, r1, r2, r4, r5, r6, r7, r8, r9, lr}
 8004934:	f89d 5028 	ldrb.w	r5, [sp, #40]	; 0x28
 8004938:	461f      	mov	r7, r3
 800493a:	4415      	add	r5, r2
 800493c:	b2ed      	uxtb	r5, r5
 800493e:	18cb      	adds	r3, r1, r3
 8004940:	9500      	str	r5, [sp, #0]
 8004942:	b2db      	uxtb	r3, r3
 8004944:	4680      	mov	r8, r0
 8004946:	460e      	mov	r6, r1
 8004948:	4614      	mov	r4, r2
 800494a:	f000 fbd7 	bl	80050fc <u8g2_IsIntersection>
 800494e:	b978      	cbnz	r0, 8004970 <u8g2_DrawBox+0x40>
 8004950:	b003      	add	sp, #12
 8004952:	e8bd 83f0 	ldmia.w	sp!, {r4, r5, r6, r7, r8, r9, pc}
 8004956:	4622      	mov	r2, r4
 8004958:	f8cd 9000 	str.w	r9, [sp]
 800495c:	463b      	mov	r3, r7
 800495e:	4631      	mov	r1, r6
 8004960:	4640      	mov	r0, r8
 8004962:	f000 fb54 	bl	800500e <u8g2_DrawHVLine>
 8004966:	3401      	adds	r4, #1
 8004968:	b2e4      	uxtb	r4, r4
 800496a:	42a5      	cmp	r5, r4
 800496c:	d1f3      	bne.n	8004956 <u8g2_DrawBox+0x26>
 800496e:	e7ef      	b.n	8004950 <u8g2_DrawBox+0x20>
 8004970:	f04f 0900 	mov.w	r9, #0
 8004974:	e7f9      	b.n	800496a <u8g2_DrawBox+0x3a>

08004976 <u8g2_DrawFrame>:
 8004976:	e92d 4ff7 	stmdb	sp!, {r0, r1, r2, r4, r5, r6, r7, r8, r9, sl, fp, lr}
 800497a:	f89d a030 	ldrb.w	sl, [sp, #48]	; 0x30
 800497e:	18cd      	adds	r5, r1, r3
 8004980:	eb02 040a 	add.w	r4, r2, sl
 8004984:	b2ed      	uxtb	r5, r5
 8004986:	b2e4      	uxtb	r4, r4
 8004988:	4699      	mov	r9, r3
 800498a:	9400      	str	r4, [sp, #0]
 800498c:	462b      	mov	r3, r5
 800498e:	4606      	mov	r6, r0
 8004990:	460f      	mov	r7, r1
 8004992:	4690      	mov	r8, r2
 8004994:	f000 fbb2 	bl	80050fc <u8g2_IsIntersection>
 8004998:	b330      	cbz	r0, 80049e8 <u8g2_DrawFrame+0x72>
 800499a:	2300      	movs	r3, #0
 800499c:	f04f 0b01 	mov.w	fp, #1
 80049a0:	9300      	str	r3, [sp, #0]
 80049a2:	4642      	mov	r2, r8
 80049a4:	464b      	mov	r3, r9
 80049a6:	4639      	mov	r1, r7
 80049a8:	4630      	mov	r0, r6
 80049aa:	f000 fb30 	bl	800500e <u8g2_DrawHVLine>
 80049ae:	4653      	mov	r3, sl
 80049b0:	4642      	mov	r2, r8
 80049b2:	4639      	mov	r1, r7
 80049b4:	4630      	mov	r0, r6
 80049b6:	f8cd b000 	str.w	fp, [sp]
 80049ba:	f000 fb28 	bl	800500e <u8g2_DrawHVLine>
 80049be:	1e69      	subs	r1, r5, #1
 80049c0:	4653      	mov	r3, sl
 80049c2:	4642      	mov	r2, r8
 80049c4:	4630      	mov	r0, r6
 80049c6:	f8cd b000 	str.w	fp, [sp]
 80049ca:	b2c9      	uxtb	r1, r1
 80049cc:	f000 fb1f 	bl	800500e <u8g2_DrawHVLine>
 80049d0:	2300      	movs	r3, #0
 80049d2:	4639      	mov	r1, r7
 80049d4:	930c      	str	r3, [sp, #48]	; 0x30
 80049d6:	4630      	mov	r0, r6
 80049d8:	464b      	mov	r3, r9
 80049da:	1e62      	subs	r2, r4, #1
 80049dc:	b2d2      	uxtb	r2, r2
 80049de:	b003      	add	sp, #12
 80049e0:	e8bd 4ff0 	ldmia.w	sp!, {r4, r5, r6, r7, r8, r9, sl, fp, lr}
 80049e4:	f000 bb13 	b.w	800500e <u8g2_DrawHVLine>
 80049e8:	b003      	add	sp, #12
 80049ea:	e8bd 8ff0 	ldmia.w	sp!, {r4, r5, r6, r7, r8, r9, sl, fp, pc}

080049ee <u8g2_send_buffer>:
 80049ee:	e92d 43f7 	stmdb	sp!, {r0, r1, r2, r4, r5, r6, r7, r8, r9, lr}
 80049f2:	4605      	mov	r5, r0
 80049f4:	2600      	movs	r6, #0
 80049f6:	6803      	ldr	r3, [r0, #0]
 80049f8:	f890 903c 	ldrb.w	r9, [r0, #60]	; 0x3c
 80049fc:	f890 703d 	ldrb.w	r7, [r0, #61]	; 0x3d
 8004a00:	f893 8011 	ldrb.w	r8, [r3, #17]
 8004a04:	682b      	ldr	r3, [r5, #0]
 8004a06:	b2b1      	uxth	r1, r6
 8004a08:	7c1b      	ldrb	r3, [r3, #16]
 8004a0a:	b2f4      	uxtb	r4, r6
 8004a0c:	00d8      	lsls	r0, r3, #3
 8004a0e:	4341      	muls	r1, r0
 8004a10:	6ba8      	ldr	r0, [r5, #56]	; 0x38
 8004a12:	b289      	uxth	r1, r1
 8004a14:	4401      	add	r1, r0
 8004a16:	193a      	adds	r2, r7, r4
 8004a18:	3401      	adds	r4, #1
 8004a1a:	9100      	str	r1, [sp, #0]
 8004a1c:	b2d2      	uxtb	r2, r2
 8004a1e:	2100      	movs	r1, #0
 8004a20:	4628      	mov	r0, r5
 8004a22:	b2e4      	uxtb	r4, r4
 8004a24:	f000 fe03 	bl	800562e <u8x8_DrawTile>
 8004a28:	45a1      	cmp	r9, r4
 8004a2a:	d904      	bls.n	8004a36 <u8g2_send_buffer+0x48>
 8004a2c:	3601      	adds	r6, #1
 8004a2e:	19bb      	adds	r3, r7, r6
 8004a30:	b2db      	uxtb	r3, r3
 8004a32:	4598      	cmp	r8, r3
 8004a34:	d8e6      	bhi.n	8004a04 <u8g2_send_buffer+0x16>
 8004a36:	b003      	add	sp, #12
 8004a38:	e8bd 83f0 	ldmia.w	sp!, {r4, r5, r6, r7, r8, r9, pc}

08004a3c <u8g2_ClearBuffer>:
 8004a3c:	6803      	ldr	r3, [r0, #0]
 8004a3e:	2100      	movs	r1, #0
 8004a40:	7c1a      	ldrb	r2, [r3, #16]
 8004a42:	f890 303c 	ldrb.w	r3, [r0, #60]	; 0x3c
 8004a46:	6b80      	ldr	r0, [r0, #56]	; 0x38
 8004a48:	00db      	lsls	r3, r3, #3
 8004a4a:	435a      	muls	r2, r3
 8004a4c:	f002 b866 	b.w	8006b1c <memset>

08004a50 <u8g2_SetBufferCurrTileRow>:
 8004a50:	b510      	push	{r4, lr}
 8004a52:	4604      	mov	r4, r0
 8004a54:	6b43      	ldr	r3, [r0, #52]	; 0x34
 8004a56:	f880 103d 	strb.w	r1, [r0, #61]	; 0x3d
 8004a5a:	681b      	ldr	r3, [r3, #0]
 8004a5c:	4798      	blx	r3
 8004a5e:	6b63      	ldr	r3, [r4, #52]	; 0x34
 8004a60:	4620      	mov	r0, r4
 8004a62:	e8bd 4010 	ldmia.w	sp!, {r4, lr}
 8004a66:	685b      	ldr	r3, [r3, #4]
 8004a68:	4718      	bx	r3

08004a6a <u8g2_FirstPage>:
 8004a6a:	b510      	push	{r4, lr}
 8004a6c:	f890 3087 	ldrb.w	r3, [r0, #135]	; 0x87
 8004a70:	4604      	mov	r4, r0
 8004a72:	b10b      	cbz	r3, 8004a78 <u8g2_FirstPage+0xe>
 8004a74:	f7ff ffe2 	bl	8004a3c <u8g2_ClearBuffer>
 8004a78:	4620      	mov	r0, r4
 8004a7a:	e8bd 4010 	ldmia.w	sp!, {r4, lr}
 8004a7e:	2100      	movs	r1, #0
 8004a80:	f7ff bfe6 	b.w	8004a50 <u8g2_SetBufferCurrTileRow>

08004a84 <u8g2_NextPage>:
 8004a84:	b538      	push	{r3, r4, r5, lr}
 8004a86:	4604      	mov	r4, r0
 8004a88:	f7ff ffb1 	bl	80049ee <u8g2_send_buffer>
 8004a8c:	f894 503d 	ldrb.w	r5, [r4, #61]	; 0x3d
 8004a90:	f894 103c 	ldrb.w	r1, [r4, #60]	; 0x3c
 8004a94:	6823      	ldr	r3, [r4, #0]
 8004a96:	440d      	add	r5, r1
 8004a98:	7c5b      	ldrb	r3, [r3, #17]
 8004a9a:	b2ed      	uxtb	r5, r5
 8004a9c:	42ab      	cmp	r3, r5
 8004a9e:	d804      	bhi.n	8004aaa <u8g2_NextPage+0x26>
 8004aa0:	4620      	mov	r0, r4
 8004aa2:	f000 fded 	bl	8005680 <u8x8_RefreshDisplay>
 8004aa6:	2000      	movs	r0, #0
 8004aa8:	bd38      	pop	{r3, r4, r5, pc}
 8004aaa:	f894 3087 	ldrb.w	r3, [r4, #135]	; 0x87
 8004aae:	b113      	cbz	r3, 8004ab6 <u8g2_NextPage+0x32>
 8004ab0:	4620      	mov	r0, r4
 8004ab2:	f7ff ffc3 	bl	8004a3c <u8g2_ClearBuffer>
 8004ab6:	4620      	mov	r0, r4
 8004ab8:	4629      	mov	r1, r5
 8004aba:	f7ff ffc9 	bl	8004a50 <u8g2_SetBufferCurrTileRow>
 8004abe:	2001      	movs	r0, #1
 8004ac0:	bd38      	pop	{r3, r4, r5, pc}
	...

08004ac4 <u8g2_m_16_8_1>:
 8004ac4:	2301      	movs	r3, #1
 8004ac6:	7003      	strb	r3, [r0, #0]
 8004ac8:	4800      	ldr	r0, [pc, #0]	; (8004acc <u8g2_m_16_8_1+0x8>)
 8004aca:	4770      	bx	lr
 8004acc:	20000094 	.word	0x20000094

08004ad0 <u8g2_Setup_ssd1306_i2c_128x64_noname_1>:
 8004ad0:	b530      	push	{r4, r5, lr}
 8004ad2:	b085      	sub	sp, #20
 8004ad4:	460d      	mov	r5, r1
 8004ad6:	9300      	str	r3, [sp, #0]
 8004ad8:	4909      	ldr	r1, [pc, #36]	; (8004b00 <u8g2_Setup_ssd1306_i2c_128x64_noname_1+0x30>)
 8004ada:	4613      	mov	r3, r2
 8004adc:	4a09      	ldr	r2, [pc, #36]	; (8004b04 <u8g2_Setup_ssd1306_i2c_128x64_noname_1+0x34>)
 8004ade:	4604      	mov	r4, r0
 8004ae0:	f000 fdf4 	bl	80056cc <u8x8_Setup>
 8004ae4:	f10d 000f 	add.w	r0, sp, #15
 8004ae8:	f7ff ffec 	bl	8004ac4 <u8g2_m_16_8_1>
 8004aec:	f89d 200f 	ldrb.w	r2, [sp, #15]
 8004af0:	4601      	mov	r1, r0
 8004af2:	9500      	str	r5, [sp, #0]
 8004af4:	4b04      	ldr	r3, [pc, #16]	; (8004b08 <u8g2_Setup_ssd1306_i2c_128x64_noname_1+0x38>)
 8004af6:	4620      	mov	r0, r4
 8004af8:	f000 fbe9 	bl	80052ce <u8g2_SetupBuffer>
 8004afc:	b005      	add	sp, #20
 8004afe:	bd30      	pop	{r4, r5, pc}
 8004b00:	0800558d 	.word	0x0800558d
 8004b04:	08005447 	.word	0x08005447
 8004b08:	0800512d 	.word	0x0800512d

08004b0c <u8g2_font_get_word>:
 8004b0c:	1842      	adds	r2, r0, r1
 8004b0e:	5c43      	ldrb	r3, [r0, r1]
 8004b10:	7850      	ldrb	r0, [r2, #1]
 8004b12:	eb00 2003 	add.w	r0, r0, r3, lsl #8
 8004b16:	b280      	uxth	r0, r0
 8004b18:	4770      	bx	lr

08004b1a <u8g2_add_vector_y>:
 8004b1a:	2b01      	cmp	r3, #1
 8004b1c:	d007      	beq.n	8004b2e <u8g2_add_vector_y+0x14>
 8004b1e:	d303      	bcc.n	8004b28 <u8g2_add_vector_y+0xe>
 8004b20:	2b02      	cmp	r3, #2
 8004b22:	d006      	beq.n	8004b32 <u8g2_add_vector_y+0x18>
 8004b24:	1a40      	subs	r0, r0, r1
 8004b26:	e000      	b.n	8004b2a <u8g2_add_vector_y+0x10>
 8004b28:	4410      	add	r0, r2
 8004b2a:	b2c0      	uxtb	r0, r0
 8004b2c:	4770      	bx	lr
 8004b2e:	4408      	add	r0, r1
 8004b30:	e7fb      	b.n	8004b2a <u8g2_add_vector_y+0x10>
 8004b32:	1a80      	subs	r0, r0, r2
 8004b34:	e7f9      	b.n	8004b2a <u8g2_add_vector_y+0x10>

08004b36 <u8g2_add_vector_x>:
 8004b36:	2b01      	cmp	r3, #1
 8004b38:	d007      	beq.n	8004b4a <u8g2_add_vector_x+0x14>
 8004b3a:	d303      	bcc.n	8004b44 <u8g2_add_vector_x+0xe>
 8004b3c:	2b02      	cmp	r3, #2
 8004b3e:	d006      	beq.n	8004b4e <u8g2_add_vector_x+0x18>
 8004b40:	4410      	add	r0, r2
 8004b42:	e000      	b.n	8004b46 <u8g2_add_vector_x+0x10>
 8004b44:	4408      	add	r0, r1
 8004b46:	b2c0      	uxtb	r0, r0
 8004b48:	4770      	bx	lr
 8004b4a:	1a80      	subs	r0, r0, r2
 8004b4c:	e7fb      	b.n	8004b46 <u8g2_add_vector_x+0x10>
 8004b4e:	1a40      	subs	r0, r0, r1
 8004b50:	e7f9      	b.n	8004b46 <u8g2_add_vector_x+0x10>

08004b52 <u8g2_font_calc_vref_font>:
 8004b52:	2000      	movs	r0, #0
 8004b54:	4770      	bx	lr

08004b56 <u8g2_read_font_info>:
 8004b56:	b538      	push	{r3, r4, r5, lr}
 8004b58:	780b      	ldrb	r3, [r1, #0]
 8004b5a:	460d      	mov	r5, r1
 8004b5c:	7003      	strb	r3, [r0, #0]
 8004b5e:	784b      	ldrb	r3, [r1, #1]
 8004b60:	4604      	mov	r4, r0
 8004b62:	7043      	strb	r3, [r0, #1]
 8004b64:	788b      	ldrb	r3, [r1, #2]
 8004b66:	7083      	strb	r3, [r0, #2]
 8004b68:	78cb      	ldrb	r3, [r1, #3]
 8004b6a:	70c3      	strb	r3, [r0, #3]
 8004b6c:	790b      	ldrb	r3, [r1, #4]
 8004b6e:	7103      	strb	r3, [r0, #4]
 8004b70:	794b      	ldrb	r3, [r1, #5]
 8004b72:	7143      	strb	r3, [r0, #5]
 8004b74:	798b      	ldrb	r3, [r1, #6]
 8004b76:	7183      	strb	r3, [r0, #6]
 8004b78:	79cb      	ldrb	r3, [r1, #7]
 8004b7a:	71c3      	strb	r3, [r0, #7]
 8004b7c:	7a0b      	ldrb	r3, [r1, #8]
 8004b7e:	7203      	strb	r3, [r0, #8]
 8004b80:	7a4b      	ldrb	r3, [r1, #9]
 8004b82:	7243      	strb	r3, [r0, #9]
 8004b84:	7a8b      	ldrb	r3, [r1, #10]
 8004b86:	7283      	strb	r3, [r0, #10]
 8004b88:	7acb      	ldrb	r3, [r1, #11]
 8004b8a:	72c3      	strb	r3, [r0, #11]
 8004b8c:	7b0b      	ldrb	r3, [r1, #12]
 8004b8e:	7303      	strb	r3, [r0, #12]
 8004b90:	7b4b      	ldrb	r3, [r1, #13]
 8004b92:	7343      	strb	r3, [r0, #13]
 8004b94:	7b8b      	ldrb	r3, [r1, #14]
 8004b96:	7383      	strb	r3, [r0, #14]
 8004b98:	7bcb      	ldrb	r3, [r1, #15]
 8004b9a:	73c3      	strb	r3, [r0, #15]
 8004b9c:	7c0b      	ldrb	r3, [r1, #16]
 8004b9e:	2111      	movs	r1, #17
 8004ba0:	7403      	strb	r3, [r0, #16]
 8004ba2:	4628      	mov	r0, r5
 8004ba4:	f7ff ffb2 	bl	8004b0c <u8g2_font_get_word>
 8004ba8:	2113      	movs	r1, #19
 8004baa:	8260      	strh	r0, [r4, #18]
 8004bac:	4628      	mov	r0, r5
 8004bae:	f7ff ffad 	bl	8004b0c <u8g2_font_get_word>
 8004bb2:	2115      	movs	r1, #21
 8004bb4:	82a0      	strh	r0, [r4, #20]
 8004bb6:	4628      	mov	r0, r5
 8004bb8:	f7ff ffa8 	bl	8004b0c <u8g2_font_get_word>
 8004bbc:	82e0      	strh	r0, [r4, #22]
 8004bbe:	bd38      	pop	{r3, r4, r5, pc}

08004bc0 <u8g2_font_decode_get_unsigned_bits>:
 8004bc0:	b570      	push	{r4, r5, r6, lr}
 8004bc2:	7a84      	ldrb	r4, [r0, #10]
 8004bc4:	6806      	ldr	r6, [r0, #0]
 8004bc6:	1862      	adds	r2, r4, r1
 8004bc8:	7833      	ldrb	r3, [r6, #0]
 8004bca:	b2d2      	uxtb	r2, r2
 8004bcc:	2a07      	cmp	r2, #7
 8004bce:	fa43 f504 	asr.w	r5, r3, r4
 8004bd2:	d806      	bhi.n	8004be2 <u8g2_font_decode_get_unsigned_bits+0x22>
 8004bd4:	b2eb      	uxtb	r3, r5
 8004bd6:	7282      	strb	r2, [r0, #10]
 8004bd8:	2001      	movs	r0, #1
 8004bda:	4088      	lsls	r0, r1
 8004bdc:	3801      	subs	r0, #1
 8004bde:	4018      	ands	r0, r3
 8004be0:	bd70      	pop	{r4, r5, r6, pc}
 8004be2:	1c73      	adds	r3, r6, #1
 8004be4:	6003      	str	r3, [r0, #0]
 8004be6:	7873      	ldrb	r3, [r6, #1]
 8004be8:	f1c4 0408 	rsb	r4, r4, #8
 8004bec:	b2e4      	uxtb	r4, r4
 8004bee:	40a3      	lsls	r3, r4
 8004bf0:	432b      	orrs	r3, r5
 8004bf2:	3a08      	subs	r2, #8
 8004bf4:	b2db      	uxtb	r3, r3
 8004bf6:	b2d2      	uxtb	r2, r2
 8004bf8:	e7ed      	b.n	8004bd6 <u8g2_font_decode_get_unsigned_bits+0x16>

08004bfa <u8g2_font_setup_decode>:
 8004bfa:	b538      	push	{r3, r4, r5, lr}
 8004bfc:	2300      	movs	r3, #0
 8004bfe:	f100 0558 	add.w	r5, r0, #88	; 0x58
 8004c02:	4604      	mov	r4, r0
 8004c04:	f880 3062 	strb.w	r3, [r0, #98]	; 0x62
 8004c08:	6581      	str	r1, [r0, #88]	; 0x58
 8004c0a:	f890 106c 	ldrb.w	r1, [r0, #108]	; 0x6c
 8004c0e:	4628      	mov	r0, r5
 8004c10:	f7ff ffd6 	bl	8004bc0 <u8g2_font_decode_get_unsigned_bits>
 8004c14:	f894 106d 	ldrb.w	r1, [r4, #109]	; 0x6d
 8004c18:	f884 0060 	strb.w	r0, [r4, #96]	; 0x60
 8004c1c:	4628      	mov	r0, r5
 8004c1e:	f7ff ffcf 	bl	8004bc0 <u8g2_font_decode_get_unsigned_bits>
 8004c22:	f894 3086 	ldrb.w	r3, [r4, #134]	; 0x86
 8004c26:	f884 0061 	strb.w	r0, [r4, #97]	; 0x61
 8004c2a:	f884 3064 	strb.w	r3, [r4, #100]	; 0x64
 8004c2e:	fab3 f383 	clz	r3, r3
 8004c32:	095b      	lsrs	r3, r3, #5
 8004c34:	f884 3065 	strb.w	r3, [r4, #101]	; 0x65
 8004c38:	bd38      	pop	{r3, r4, r5, pc}

08004c3a <u8g2_font_decode_get_signed_bits>:
 8004c3a:	b510      	push	{r4, lr}
 8004c3c:	f7ff ffc0 	bl	8004bc0 <u8g2_font_decode_get_unsigned_bits>
 8004c40:	2301      	movs	r3, #1
 8004c42:	1e4c      	subs	r4, r1, #1
 8004c44:	b2e4      	uxtb	r4, r4
 8004c46:	40a3      	lsls	r3, r4
 8004c48:	1ac0      	subs	r0, r0, r3
 8004c4a:	b240      	sxtb	r0, r0
 8004c4c:	bd10      	pop	{r4, pc}

08004c4e <u8g2_font_decode_len>:
 8004c4e:	e92d 4ff0 	stmdb	sp!, {r4, r5, r6, r7, r8, r9, sl, fp, lr}
 8004c52:	4604      	mov	r4, r0
 8004c54:	460e      	mov	r6, r1
 8004c56:	b087      	sub	sp, #28
 8004c58:	f890 805e 	ldrb.w	r8, [r0, #94]	; 0x5e
 8004c5c:	f890 705f 	ldrb.w	r7, [r0, #95]	; 0x5f
 8004c60:	9205      	str	r2, [sp, #20]
 8004c62:	f894 5060 	ldrb.w	r5, [r4, #96]	; 0x60
 8004c66:	4633      	mov	r3, r6
 8004c68:	eba5 0508 	sub.w	r5, r5, r8
 8004c6c:	b2ed      	uxtb	r5, r5
 8004c6e:	42ae      	cmp	r6, r5
 8004c70:	bf28      	it	cs
 8004c72:	462b      	movcs	r3, r5
 8004c74:	f894 9066 	ldrb.w	r9, [r4, #102]	; 0x66
 8004c78:	9302      	str	r3, [sp, #8]
 8004c7a:	f894 305d 	ldrb.w	r3, [r4, #93]	; 0x5d
 8004c7e:	fa4f fa88 	sxtb.w	sl, r8
 8004c82:	fa4f fb87 	sxtb.w	fp, r7
 8004c86:	9304      	str	r3, [sp, #16]
 8004c88:	465a      	mov	r2, fp
 8004c8a:	464b      	mov	r3, r9
 8004c8c:	4651      	mov	r1, sl
 8004c8e:	f894 005c 	ldrb.w	r0, [r4, #92]	; 0x5c
 8004c92:	f7ff ff50 	bl	8004b36 <u8g2_add_vector_x>
 8004c96:	464b      	mov	r3, r9
 8004c98:	9003      	str	r0, [sp, #12]
 8004c9a:	465a      	mov	r2, fp
 8004c9c:	4651      	mov	r1, sl
 8004c9e:	9804      	ldr	r0, [sp, #16]
 8004ca0:	f7ff ff3b 	bl	8004b1a <u8g2_add_vector_y>
 8004ca4:	9b05      	ldr	r3, [sp, #20]
 8004ca6:	4602      	mov	r2, r0
 8004ca8:	b19b      	cbz	r3, 8004cd2 <u8g2_font_decode_len+0x84>
 8004caa:	f894 3064 	ldrb.w	r3, [r4, #100]	; 0x64
 8004cae:	f884 3086 	strb.w	r3, [r4, #134]	; 0x86
 8004cb2:	f8cd 9000 	str.w	r9, [sp]
 8004cb6:	9b02      	ldr	r3, [sp, #8]
 8004cb8:	9903      	ldr	r1, [sp, #12]
 8004cba:	4620      	mov	r0, r4
 8004cbc:	f000 f9a7 	bl	800500e <u8g2_DrawHVLine>
 8004cc0:	42ae      	cmp	r6, r5
 8004cc2:	d30d      	bcc.n	8004ce0 <u8g2_font_decode_len+0x92>
 8004cc4:	1b76      	subs	r6, r6, r5
 8004cc6:	3701      	adds	r7, #1
 8004cc8:	b2f6      	uxtb	r6, r6
 8004cca:	b2ff      	uxtb	r7, r7
 8004ccc:	f04f 0800 	mov.w	r8, #0
 8004cd0:	e7c7      	b.n	8004c62 <u8g2_font_decode_len+0x14>
 8004cd2:	f894 3063 	ldrb.w	r3, [r4, #99]	; 0x63
 8004cd6:	2b00      	cmp	r3, #0
 8004cd8:	d1f2      	bne.n	8004cc0 <u8g2_font_decode_len+0x72>
 8004cda:	f894 3065 	ldrb.w	r3, [r4, #101]	; 0x65
 8004cde:	e7e6      	b.n	8004cae <u8g2_font_decode_len+0x60>
 8004ce0:	4446      	add	r6, r8
 8004ce2:	f884 605e 	strb.w	r6, [r4, #94]	; 0x5e
 8004ce6:	f884 b05f 	strb.w	fp, [r4, #95]	; 0x5f
 8004cea:	b007      	add	sp, #28
 8004cec:	e8bd 8ff0 	ldmia.w	sp!, {r4, r5, r6, r7, r8, r9, sl, fp, pc}

08004cf0 <u8g2_font_decode_glyph>:
 8004cf0:	e92d 4ff0 	stmdb	sp!, {r4, r5, r6, r7, r8, r9, sl, fp, lr}
 8004cf4:	4604      	mov	r4, r0
 8004cf6:	b085      	sub	sp, #20
 8004cf8:	f100 0958 	add.w	r9, r0, #88	; 0x58
 8004cfc:	f7ff ff7d 	bl	8004bfa <u8g2_font_setup_decode>
 8004d00:	f994 3061 	ldrsb.w	r3, [r4, #97]	; 0x61
 8004d04:	f894 106e 	ldrb.w	r1, [r4, #110]	; 0x6e
 8004d08:	4648      	mov	r0, r9
 8004d0a:	9302      	str	r3, [sp, #8]
 8004d0c:	f7ff ff95 	bl	8004c3a <u8g2_font_decode_get_signed_bits>
 8004d10:	f894 106f 	ldrb.w	r1, [r4, #111]	; 0x6f
 8004d14:	4683      	mov	fp, r0
 8004d16:	4648      	mov	r0, r9
 8004d18:	f7ff ff8f 	bl	8004c3a <u8g2_font_decode_get_signed_bits>
 8004d1c:	f894 1070 	ldrb.w	r1, [r4, #112]	; 0x70
 8004d20:	4680      	mov	r8, r0
 8004d22:	4648      	mov	r0, r9
 8004d24:	f7ff ff89 	bl	8004c3a <u8g2_font_decode_get_signed_bits>
 8004d28:	f994 6060 	ldrsb.w	r6, [r4, #96]	; 0x60
 8004d2c:	9003      	str	r0, [sp, #12]
 8004d2e:	2e00      	cmp	r6, #0
 8004d30:	dd57      	ble.n	8004de2 <u8g2_font_decode_glyph+0xf2>
 8004d32:	f89d 5008 	ldrb.w	r5, [sp, #8]
 8004d36:	f894 a066 	ldrb.w	sl, [r4, #102]	; 0x66
 8004d3a:	44a8      	add	r8, r5
 8004d3c:	f1c8 0800 	rsb	r8, r8, #0
 8004d40:	fa4f f888 	sxtb.w	r8, r8
 8004d44:	4653      	mov	r3, sl
 8004d46:	4642      	mov	r2, r8
 8004d48:	4659      	mov	r1, fp
 8004d4a:	f894 005c 	ldrb.w	r0, [r4, #92]	; 0x5c
 8004d4e:	f7ff fef2 	bl	8004b36 <u8g2_add_vector_x>
 8004d52:	4653      	mov	r3, sl
 8004d54:	f884 005c 	strb.w	r0, [r4, #92]	; 0x5c
 8004d58:	4607      	mov	r7, r0
 8004d5a:	4642      	mov	r2, r8
 8004d5c:	f894 005d 	ldrb.w	r0, [r4, #93]	; 0x5d
 8004d60:	4659      	mov	r1, fp
 8004d62:	f7ff feda 	bl	8004b1a <u8g2_add_vector_y>
 8004d66:	f884 005d 	strb.w	r0, [r4, #93]	; 0x5d
 8004d6a:	f1ba 0f03 	cmp.w	sl, #3
 8004d6e:	d85a      	bhi.n	8004e26 <u8g2_font_decode_glyph+0x136>
 8004d70:	e8df f00a 	tbb	[pc, sl]
 8004d74:	50443b02 	.word	0x50443b02
 8004d78:	19bb      	adds	r3, r7, r6
 8004d7a:	4405      	add	r5, r0
 8004d7c:	b2db      	uxtb	r3, r3
 8004d7e:	b2e9      	uxtb	r1, r5
 8004d80:	9100      	str	r1, [sp, #0]
 8004d82:	4602      	mov	r2, r0
 8004d84:	4639      	mov	r1, r7
 8004d86:	4620      	mov	r0, r4
 8004d88:	f000 f9b8 	bl	80050fc <u8g2_IsIntersection>
 8004d8c:	b348      	cbz	r0, 8004de2 <u8g2_font_decode_glyph+0xf2>
 8004d8e:	2300      	movs	r3, #0
 8004d90:	f884 305e 	strb.w	r3, [r4, #94]	; 0x5e
 8004d94:	f884 305f 	strb.w	r3, [r4, #95]	; 0x5f
 8004d98:	f894 106a 	ldrb.w	r1, [r4, #106]	; 0x6a
 8004d9c:	4648      	mov	r0, r9
 8004d9e:	f7ff ff0f 	bl	8004bc0 <u8g2_font_decode_get_unsigned_bits>
 8004da2:	f894 106b 	ldrb.w	r1, [r4, #107]	; 0x6b
 8004da6:	4606      	mov	r6, r0
 8004da8:	4648      	mov	r0, r9
 8004daa:	f7ff ff09 	bl	8004bc0 <u8g2_font_decode_get_unsigned_bits>
 8004dae:	4605      	mov	r5, r0
 8004db0:	2200      	movs	r2, #0
 8004db2:	4631      	mov	r1, r6
 8004db4:	4620      	mov	r0, r4
 8004db6:	f7ff ff4a 	bl	8004c4e <u8g2_font_decode_len>
 8004dba:	4629      	mov	r1, r5
 8004dbc:	4620      	mov	r0, r4
 8004dbe:	2201      	movs	r2, #1
 8004dc0:	f7ff ff45 	bl	8004c4e <u8g2_font_decode_len>
 8004dc4:	2101      	movs	r1, #1
 8004dc6:	4648      	mov	r0, r9
 8004dc8:	f7ff fefa 	bl	8004bc0 <u8g2_font_decode_get_unsigned_bits>
 8004dcc:	2800      	cmp	r0, #0
 8004dce:	d1ef      	bne.n	8004db0 <u8g2_font_decode_glyph+0xc0>
 8004dd0:	f994 305f 	ldrsb.w	r3, [r4, #95]	; 0x5f
 8004dd4:	9a02      	ldr	r2, [sp, #8]
 8004dd6:	4293      	cmp	r3, r2
 8004dd8:	dbde      	blt.n	8004d98 <u8g2_font_decode_glyph+0xa8>
 8004dda:	f894 3064 	ldrb.w	r3, [r4, #100]	; 0x64
 8004dde:	f884 3086 	strb.w	r3, [r4, #134]	; 0x86
 8004de2:	9803      	ldr	r0, [sp, #12]
 8004de4:	b005      	add	sp, #20
 8004de6:	e8bd 8ff0 	ldmia.w	sp!, {r4, r5, r6, r7, r8, r9, sl, fp, pc}
 8004dea:	f1c5 0501 	rsb	r5, r5, #1
 8004dee:	197a      	adds	r2, r7, r5
 8004df0:	4406      	add	r6, r0
 8004df2:	3701      	adds	r7, #1
 8004df4:	b2fb      	uxtb	r3, r7
 8004df6:	b2f1      	uxtb	r1, r6
 8004df8:	b2d7      	uxtb	r7, r2
 8004dfa:	e7c1      	b.n	8004d80 <u8g2_font_decode_glyph+0x90>
 8004dfc:	f1c6 0601 	rsb	r6, r6, #1
 8004e00:	f1c5 0501 	rsb	r5, r5, #1
 8004e04:	1c41      	adds	r1, r0, #1
 8004e06:	19ba      	adds	r2, r7, r6
 8004e08:	4405      	add	r5, r0
 8004e0a:	3701      	adds	r7, #1
 8004e0c:	b2fb      	uxtb	r3, r7
 8004e0e:	b2c9      	uxtb	r1, r1
 8004e10:	b2e8      	uxtb	r0, r5
 8004e12:	e7f1      	b.n	8004df8 <u8g2_font_decode_glyph+0x108>
 8004e14:	f1c6 0601 	rsb	r6, r6, #1
 8004e18:	1c41      	adds	r1, r0, #1
 8004e1a:	19eb      	adds	r3, r5, r7
 8004e1c:	4406      	add	r6, r0
 8004e1e:	b2db      	uxtb	r3, r3
 8004e20:	b2c9      	uxtb	r1, r1
 8004e22:	b2f0      	uxtb	r0, r6
 8004e24:	e7ac      	b.n	8004d80 <u8g2_font_decode_glyph+0x90>
 8004e26:	4601      	mov	r1, r0
 8004e28:	463b      	mov	r3, r7
 8004e2a:	e7a9      	b.n	8004d80 <u8g2_font_decode_glyph+0x90>

08004e2c <u8g2_font_get_glyph_data>:
 8004e2c:	6d03      	ldr	r3, [r0, #80]	; 0x50
 8004e2e:	29ff      	cmp	r1, #255	; 0xff
 8004e30:	b570      	push	{r4, r5, r6, lr}
 8004e32:	f103 0317 	add.w	r3, r3, #23
 8004e36:	460d      	mov	r5, r1
 8004e38:	d812      	bhi.n	8004e60 <u8g2_font_get_glyph_data+0x34>
 8004e3a:	2960      	cmp	r1, #96	; 0x60
 8004e3c:	d909      	bls.n	8004e52 <u8g2_font_get_glyph_data+0x26>
 8004e3e:	f8b0 207c 	ldrh.w	r2, [r0, #124]	; 0x7c
 8004e42:	4413      	add	r3, r2
 8004e44:	7858      	ldrb	r0, [r3, #1]
 8004e46:	b348      	cbz	r0, 8004e9c <u8g2_font_get_glyph_data+0x70>
 8004e48:	781a      	ldrb	r2, [r3, #0]
 8004e4a:	42aa      	cmp	r2, r5
 8004e4c:	d106      	bne.n	8004e5c <u8g2_font_get_glyph_data+0x30>
 8004e4e:	1c98      	adds	r0, r3, #2
 8004e50:	bd70      	pop	{r4, r5, r6, pc}
 8004e52:	2940      	cmp	r1, #64	; 0x40
 8004e54:	d9f6      	bls.n	8004e44 <u8g2_font_get_glyph_data+0x18>
 8004e56:	f8b0 207a 	ldrh.w	r2, [r0, #122]	; 0x7a
 8004e5a:	e7f2      	b.n	8004e42 <u8g2_font_get_glyph_data+0x16>
 8004e5c:	4403      	add	r3, r0
 8004e5e:	e7f1      	b.n	8004e44 <u8g2_font_get_glyph_data+0x18>
 8004e60:	f8b0 407e 	ldrh.w	r4, [r0, #126]	; 0x7e
 8004e64:	441c      	add	r4, r3
 8004e66:	4626      	mov	r6, r4
 8004e68:	2100      	movs	r1, #0
 8004e6a:	4630      	mov	r0, r6
 8004e6c:	f7ff fe4e 	bl	8004b0c <u8g2_font_get_word>
 8004e70:	2102      	movs	r1, #2
 8004e72:	4404      	add	r4, r0
 8004e74:	4630      	mov	r0, r6
 8004e76:	f7ff fe49 	bl	8004b0c <u8g2_font_get_word>
 8004e7a:	4285      	cmp	r5, r0
 8004e7c:	f106 0604 	add.w	r6, r6, #4
 8004e80:	d8f2      	bhi.n	8004e68 <u8g2_font_get_glyph_data+0x3c>
 8004e82:	7823      	ldrb	r3, [r4, #0]
 8004e84:	7860      	ldrb	r0, [r4, #1]
 8004e86:	ea50 2303 	orrs.w	r3, r0, r3, lsl #8
 8004e8a:	d006      	beq.n	8004e9a <u8g2_font_get_glyph_data+0x6e>
 8004e8c:	429d      	cmp	r5, r3
 8004e8e:	d101      	bne.n	8004e94 <u8g2_font_get_glyph_data+0x68>
 8004e90:	1ce0      	adds	r0, r4, #3
 8004e92:	bd70      	pop	{r4, r5, r6, pc}
 8004e94:	78a3      	ldrb	r3, [r4, #2]
 8004e96:	441c      	add	r4, r3
 8004e98:	e7f3      	b.n	8004e82 <u8g2_font_get_glyph_data+0x56>
 8004e9a:	4618      	mov	r0, r3
 8004e9c:	bd70      	pop	{r4, r5, r6, pc}

08004e9e <u8g2_DrawGlyph>:
 8004e9e:	b5f8      	push	{r3, r4, r5, r6, r7, lr}
 8004ea0:	461f      	mov	r7, r3
 8004ea2:	f890 3066 	ldrb.w	r3, [r0, #102]	; 0x66
 8004ea6:	4604      	mov	r4, r0
 8004ea8:	460e      	mov	r6, r1
 8004eaa:	4615      	mov	r5, r2
 8004eac:	2b03      	cmp	r3, #3
 8004eae:	d807      	bhi.n	8004ec0 <u8g2_DrawGlyph+0x22>
 8004eb0:	e8df f003 	tbb	[pc, r3]
 8004eb4:	1e1a1502 	.word	0x1e1a1502
 8004eb8:	6d43      	ldr	r3, [r0, #84]	; 0x54
 8004eba:	4798      	blx	r3
 8004ebc:	4405      	add	r5, r0
 8004ebe:	b2ed      	uxtb	r5, r5
 8004ec0:	f884 605c 	strb.w	r6, [r4, #92]	; 0x5c
 8004ec4:	f884 505d 	strb.w	r5, [r4, #93]	; 0x5d
 8004ec8:	4639      	mov	r1, r7
 8004eca:	4620      	mov	r0, r4
 8004ecc:	f7ff ffae 	bl	8004e2c <u8g2_font_get_glyph_data>
 8004ed0:	b120      	cbz	r0, 8004edc <u8g2_DrawGlyph+0x3e>
 8004ed2:	4601      	mov	r1, r0
 8004ed4:	4620      	mov	r0, r4
 8004ed6:	f7ff ff0b 	bl	8004cf0 <u8g2_font_decode_glyph>
 8004eda:	b2c0      	uxtb	r0, r0
 8004edc:	bdf8      	pop	{r3, r4, r5, r6, r7, pc}
 8004ede:	6d43      	ldr	r3, [r0, #84]	; 0x54
 8004ee0:	4798      	blx	r3
 8004ee2:	1a36      	subs	r6, r6, r0
 8004ee4:	b2f6      	uxtb	r6, r6
 8004ee6:	e7eb      	b.n	8004ec0 <u8g2_DrawGlyph+0x22>
 8004ee8:	6d43      	ldr	r3, [r0, #84]	; 0x54
 8004eea:	4798      	blx	r3
 8004eec:	1a2d      	subs	r5, r5, r0
 8004eee:	e7e6      	b.n	8004ebe <u8g2_DrawGlyph+0x20>
 8004ef0:	6d43      	ldr	r3, [r0, #84]	; 0x54
 8004ef2:	4798      	blx	r3
 8004ef4:	4406      	add	r6, r0
 8004ef6:	e7f5      	b.n	8004ee4 <u8g2_DrawGlyph+0x46>

08004ef8 <u8g2_draw_string>:
 8004ef8:	e92d 47f0 	stmdb	sp!, {r4, r5, r6, r7, r8, r9, sl, lr}
 8004efc:	461e      	mov	r6, r3
 8004efe:	4607      	mov	r7, r0
 8004f00:	460c      	mov	r4, r1
 8004f02:	4615      	mov	r5, r2
 8004f04:	f04f 0a00 	mov.w	sl, #0
 8004f08:	f000 fa09 	bl	800531e <u8x8_utf8_init>
 8004f0c:	f64f 78ff 	movw	r8, #65535	; 0xffff
 8004f10:	f64f 79fe 	movw	r9, #65534	; 0xfffe
 8004f14:	3e01      	subs	r6, #1
 8004f16:	687b      	ldr	r3, [r7, #4]
 8004f18:	f816 1f01 	ldrb.w	r1, [r6, #1]!
 8004f1c:	4638      	mov	r0, r7
 8004f1e:	4798      	blx	r3
 8004f20:	4540      	cmp	r0, r8
 8004f22:	4603      	mov	r3, r0
 8004f24:	d01b      	beq.n	8004f5e <u8g2_draw_string+0x66>
 8004f26:	4548      	cmp	r0, r9
 8004f28:	d0f5      	beq.n	8004f16 <u8g2_draw_string+0x1e>
 8004f2a:	462a      	mov	r2, r5
 8004f2c:	4621      	mov	r1, r4
 8004f2e:	4638      	mov	r0, r7
 8004f30:	f7ff ffb5 	bl	8004e9e <u8g2_DrawGlyph>
 8004f34:	f897 3066 	ldrb.w	r3, [r7, #102]	; 0x66
 8004f38:	2b03      	cmp	r3, #3
 8004f3a:	d805      	bhi.n	8004f48 <u8g2_draw_string+0x50>
 8004f3c:	e8df f003 	tbb	[pc, r3]
 8004f40:	0d0b0802 	.word	0x0d0b0802
 8004f44:	4404      	add	r4, r0
 8004f46:	b2e4      	uxtb	r4, r4
 8004f48:	4450      	add	r0, sl
 8004f4a:	fa5f fa80 	uxtb.w	sl, r0
 8004f4e:	e7e2      	b.n	8004f16 <u8g2_draw_string+0x1e>
 8004f50:	4405      	add	r5, r0
 8004f52:	b2ed      	uxtb	r5, r5
 8004f54:	e7f8      	b.n	8004f48 <u8g2_draw_string+0x50>
 8004f56:	1a24      	subs	r4, r4, r0
 8004f58:	e7f5      	b.n	8004f46 <u8g2_draw_string+0x4e>
 8004f5a:	1a2d      	subs	r5, r5, r0
 8004f5c:	e7f9      	b.n	8004f52 <u8g2_draw_string+0x5a>
 8004f5e:	4650      	mov	r0, sl
 8004f60:	e8bd 87f0 	ldmia.w	sp!, {r4, r5, r6, r7, r8, r9, sl, pc}

08004f64 <u8g2_DrawStr>:
 8004f64:	b410      	push	{r4}
 8004f66:	4c02      	ldr	r4, [pc, #8]	; (8004f70 <u8g2_DrawStr+0xc>)
 8004f68:	6044      	str	r4, [r0, #4]
 8004f6a:	bc10      	pop	{r4}
 8004f6c:	f7ff bfc4 	b.w	8004ef8 <u8g2_draw_string>
 8004f70:	0800530f 	.word	0x0800530f

08004f74 <u8g2_UpdateRefHeight>:
 8004f74:	6d03      	ldr	r3, [r0, #80]	; 0x50
 8004f76:	b510      	push	{r4, lr}
 8004f78:	b333      	cbz	r3, 8004fc8 <u8g2_UpdateRefHeight+0x54>
 8004f7a:	f990 4075 	ldrsb.w	r4, [r0, #117]	; 0x75
 8004f7e:	f990 1076 	ldrsb.w	r1, [r0, #118]	; 0x76
 8004f82:	f890 3081 	ldrb.w	r3, [r0, #129]	; 0x81
 8004f86:	f880 4082 	strb.w	r4, [r0, #130]	; 0x82
 8004f8a:	f880 1083 	strb.w	r1, [r0, #131]	; 0x83
 8004f8e:	b1db      	cbz	r3, 8004fc8 <u8g2_UpdateRefHeight+0x54>
 8004f90:	2b01      	cmp	r3, #1
 8004f92:	d10c      	bne.n	8004fae <u8g2_UpdateRefHeight+0x3a>
 8004f94:	f990 3077 	ldrsb.w	r3, [r0, #119]	; 0x77
 8004f98:	429c      	cmp	r4, r3
 8004f9a:	bfb8      	it	lt
 8004f9c:	f880 3082 	strblt.w	r3, [r0, #130]	; 0x82
 8004fa0:	f990 3078 	ldrsb.w	r3, [r0, #120]	; 0x78
 8004fa4:	4299      	cmp	r1, r3
 8004fa6:	dd0f      	ble.n	8004fc8 <u8g2_UpdateRefHeight+0x54>
 8004fa8:	f880 3083 	strb.w	r3, [r0, #131]	; 0x83
 8004fac:	bd10      	pop	{r4, pc}
 8004fae:	f990 2074 	ldrsb.w	r2, [r0, #116]	; 0x74
 8004fb2:	f990 3072 	ldrsb.w	r3, [r0, #114]	; 0x72
 8004fb6:	4413      	add	r3, r2
 8004fb8:	429c      	cmp	r4, r3
 8004fba:	bfb8      	it	lt
 8004fbc:	f880 3082 	strblt.w	r3, [r0, #130]	; 0x82
 8004fc0:	4291      	cmp	r1, r2
 8004fc2:	bfc8      	it	gt
 8004fc4:	f880 2083 	strbgt.w	r2, [r0, #131]	; 0x83
 8004fc8:	bd10      	pop	{r4, pc}
	...

08004fcc <u8g2_SetFontPosBaseline>:
 8004fcc:	4b01      	ldr	r3, [pc, #4]	; (8004fd4 <u8g2_SetFontPosBaseline+0x8>)
 8004fce:	6543      	str	r3, [r0, #84]	; 0x54
 8004fd0:	4770      	bx	lr
 8004fd2:	bf00      	nop
 8004fd4:	08004b53 	.word	0x08004b53

08004fd8 <u8g2_SetFont>:
 8004fd8:	6d02      	ldr	r2, [r0, #80]	; 0x50
 8004fda:	b510      	push	{r4, lr}
 8004fdc:	428a      	cmp	r2, r1
 8004fde:	4604      	mov	r4, r0
 8004fe0:	d008      	beq.n	8004ff4 <u8g2_SetFont+0x1c>
 8004fe2:	6521      	str	r1, [r4, #80]	; 0x50
 8004fe4:	3068      	adds	r0, #104	; 0x68
 8004fe6:	f7ff fdb6 	bl	8004b56 <u8g2_read_font_info>
 8004fea:	4620      	mov	r0, r4
 8004fec:	e8bd 4010 	ldmia.w	sp!, {r4, lr}
 8004ff0:	f7ff bfc0 	b.w	8004f74 <u8g2_UpdateRefHeight>
 8004ff4:	bd10      	pop	{r4, pc}

08004ff6 <u8g2_draw_hv_line_2dir>:
 8004ff6:	b470      	push	{r4, r5, r6}
 8004ff8:	f890 4040 	ldrb.w	r4, [r0, #64]	; 0x40
 8004ffc:	f89d 600c 	ldrb.w	r6, [sp, #12]
 8005000:	1b12      	subs	r2, r2, r4
 8005002:	6b04      	ldr	r4, [r0, #48]	; 0x30
 8005004:	9603      	str	r6, [sp, #12]
 8005006:	46a4      	mov	ip, r4
 8005008:	bc70      	pop	{r4, r5, r6}
 800500a:	b2d2      	uxtb	r2, r2
 800500c:	4760      	bx	ip

0800500e <u8g2_DrawHVLine>:
 800500e:	b470      	push	{r4, r5, r6}
 8005010:	f890 4080 	ldrb.w	r4, [r0, #128]	; 0x80
 8005014:	f89d 500c 	ldrb.w	r5, [sp, #12]
 8005018:	2c00      	cmp	r4, #0
 800501a:	d03a      	beq.n	8005092 <u8g2_DrawHVLine+0x84>
 800501c:	2b00      	cmp	r3, #0
 800501e:	d038      	beq.n	8005092 <u8g2_DrawHVLine+0x84>
 8005020:	2b01      	cmp	r3, #1
 8005022:	d904      	bls.n	800502e <u8g2_DrawHVLine+0x20>
 8005024:	2d02      	cmp	r5, #2
 8005026:	d12b      	bne.n	8005080 <u8g2_DrawHVLine+0x72>
 8005028:	3101      	adds	r1, #1
 800502a:	1ac9      	subs	r1, r1, r3
 800502c:	b2c9      	uxtb	r1, r1
 800502e:	f015 0501 	ands.w	r5, r5, #1
 8005032:	d130      	bne.n	8005096 <u8g2_DrawHVLine+0x88>
 8005034:	f890 4047 	ldrb.w	r4, [r0, #71]	; 0x47
 8005038:	4294      	cmp	r4, r2
 800503a:	d82a      	bhi.n	8005092 <u8g2_DrawHVLine+0x84>
 800503c:	f890 4048 	ldrb.w	r4, [r0, #72]	; 0x48
 8005040:	4294      	cmp	r4, r2
 8005042:	d926      	bls.n	8005092 <u8g2_DrawHVLine+0x84>
 8005044:	440b      	add	r3, r1
 8005046:	b2db      	uxtb	r3, r3
 8005048:	428b      	cmp	r3, r1
 800504a:	f890 6045 	ldrb.w	r6, [r0, #69]	; 0x45
 800504e:	f890 4046 	ldrb.w	r4, [r0, #70]	; 0x46
 8005052:	d21c      	bcs.n	800508e <u8g2_DrawHVLine+0x80>
 8005054:	428c      	cmp	r4, r1
 8005056:	d919      	bls.n	800508c <u8g2_DrawHVLine+0x7e>
 8005058:	1e63      	subs	r3, r4, #1
 800505a:	b2db      	uxtb	r3, r3
 800505c:	429e      	cmp	r6, r3
 800505e:	d218      	bcs.n	8005092 <u8g2_DrawHVLine+0x84>
 8005060:	42b1      	cmp	r1, r6
 8005062:	bf38      	it	cc
 8005064:	4631      	movcc	r1, r6
 8005066:	429c      	cmp	r4, r3
 8005068:	bf94      	ite	ls
 800506a:	ebc1 0404 	rsbls	r4, r1, r4
 800506e:	ebc1 0403 	rsbhi	r4, r1, r3
 8005072:	b2e3      	uxtb	r3, r4
 8005074:	6b44      	ldr	r4, [r0, #52]	; 0x34
 8005076:	9503      	str	r5, [sp, #12]
 8005078:	68a4      	ldr	r4, [r4, #8]
 800507a:	46a4      	mov	ip, r4
 800507c:	bc70      	pop	{r4, r5, r6}
 800507e:	4760      	bx	ip
 8005080:	2d03      	cmp	r5, #3
 8005082:	bf02      	ittt	eq
 8005084:	3201      	addeq	r2, #1
 8005086:	1ad2      	subeq	r2, r2, r3
 8005088:	b2d2      	uxtbeq	r2, r2
 800508a:	e7d0      	b.n	800502e <u8g2_DrawHVLine+0x20>
 800508c:	4631      	mov	r1, r6
 800508e:	428c      	cmp	r4, r1
 8005090:	d8e4      	bhi.n	800505c <u8g2_DrawHVLine+0x4e>
 8005092:	bc70      	pop	{r4, r5, r6}
 8005094:	4770      	bx	lr
 8005096:	f890 4045 	ldrb.w	r4, [r0, #69]	; 0x45
 800509a:	428c      	cmp	r4, r1
 800509c:	d8f9      	bhi.n	8005092 <u8g2_DrawHVLine+0x84>
 800509e:	f890 4046 	ldrb.w	r4, [r0, #70]	; 0x46
 80050a2:	428c      	cmp	r4, r1
 80050a4:	d9f5      	bls.n	8005092 <u8g2_DrawHVLine+0x84>
 80050a6:	4413      	add	r3, r2
 80050a8:	b2db      	uxtb	r3, r3
 80050aa:	4293      	cmp	r3, r2
 80050ac:	f890 6047 	ldrb.w	r6, [r0, #71]	; 0x47
 80050b0:	f890 4048 	ldrb.w	r4, [r0, #72]	; 0x48
 80050b4:	d210      	bcs.n	80050d8 <u8g2_DrawHVLine+0xca>
 80050b6:	4294      	cmp	r4, r2
 80050b8:	d90d      	bls.n	80050d6 <u8g2_DrawHVLine+0xc8>
 80050ba:	1e63      	subs	r3, r4, #1
 80050bc:	b2db      	uxtb	r3, r3
 80050be:	429e      	cmp	r6, r3
 80050c0:	d2e7      	bcs.n	8005092 <u8g2_DrawHVLine+0x84>
 80050c2:	42b2      	cmp	r2, r6
 80050c4:	bf38      	it	cc
 80050c6:	4632      	movcc	r2, r6
 80050c8:	429c      	cmp	r4, r3
 80050ca:	bf94      	ite	ls
 80050cc:	ebc2 0404 	rsbls	r4, r2, r4
 80050d0:	ebc2 0403 	rsbhi	r4, r2, r3
 80050d4:	e7cd      	b.n	8005072 <u8g2_DrawHVLine+0x64>
 80050d6:	4632      	mov	r2, r6
 80050d8:	4294      	cmp	r4, r2
 80050da:	d9da      	bls.n	8005092 <u8g2_DrawHVLine+0x84>
 80050dc:	e7ef      	b.n	80050be <u8g2_DrawHVLine+0xb0>

080050de <u8g2_is_intersection_decision_tree>:
 80050de:	428a      	cmp	r2, r1
 80050e0:	d206      	bcs.n	80050f0 <u8g2_is_intersection_decision_tree+0x12>
 80050e2:	4283      	cmp	r3, r0
 80050e4:	d808      	bhi.n	80050f8 <u8g2_is_intersection_decision_tree+0x1a>
 80050e6:	429a      	cmp	r2, r3
 80050e8:	bf94      	ite	ls
 80050ea:	2000      	movls	r0, #0
 80050ec:	2001      	movhi	r0, #1
 80050ee:	4770      	bx	lr
 80050f0:	4283      	cmp	r3, r0
 80050f2:	d8f8      	bhi.n	80050e6 <u8g2_is_intersection_decision_tree+0x8>
 80050f4:	2000      	movs	r0, #0
 80050f6:	4770      	bx	lr
 80050f8:	2001      	movs	r0, #1
 80050fa:	4770      	bx	lr

080050fc <u8g2_IsIntersection>:
 80050fc:	b570      	push	{r4, r5, r6, lr}
 80050fe:	4604      	mov	r4, r0
 8005100:	460d      	mov	r5, r1
 8005102:	461e      	mov	r6, r3
 8005104:	f890 1048 	ldrb.w	r1, [r0, #72]	; 0x48
 8005108:	f89d 3010 	ldrb.w	r3, [sp, #16]
 800510c:	f890 0047 	ldrb.w	r0, [r0, #71]	; 0x47
 8005110:	f7ff ffe5 	bl	80050de <u8g2_is_intersection_decision_tree>
 8005114:	b148      	cbz	r0, 800512a <u8g2_IsIntersection+0x2e>
 8005116:	4633      	mov	r3, r6
 8005118:	462a      	mov	r2, r5
 800511a:	f894 1046 	ldrb.w	r1, [r4, #70]	; 0x46
 800511e:	f894 0045 	ldrb.w	r0, [r4, #69]	; 0x45
 8005122:	e8bd 4070 	ldmia.w	sp!, {r4, r5, r6, lr}
 8005126:	f7ff bfda 	b.w	80050de <u8g2_is_intersection_decision_tree>
 800512a:	bd70      	pop	{r4, r5, r6, pc}

0800512c <u8g2_ll_hvline_vertical_top_lsb>:
 800512c:	b5f0      	push	{r4, r5, r6, r7, lr}
 800512e:	2401      	movs	r4, #1
 8005130:	f890 5086 	ldrb.w	r5, [r0, #134]	; 0x86
 8005134:	f002 0607 	and.w	r6, r2, #7
 8005138:	40b4      	lsls	r4, r6
 800513a:	2d01      	cmp	r5, #1
 800513c:	f89d 7014 	ldrb.w	r7, [sp, #20]
 8005140:	b2e4      	uxtb	r4, r4
 8005142:	d817      	bhi.n	8005174 <u8g2_ll_hvline_vertical_top_lsb+0x48>
 8005144:	4625      	mov	r5, r4
 8005146:	d017      	beq.n	8005178 <u8g2_ll_hvline_vertical_top_lsb+0x4c>
 8005148:	f002 0ef8 	and.w	lr, r2, #248	; 0xf8
 800514c:	6802      	ldr	r2, [r0, #0]
 800514e:	f892 c010 	ldrb.w	ip, [r2, #16]
 8005152:	6b82      	ldr	r2, [r0, #56]	; 0x38
 8005154:	fb0c 110e 	mla	r1, ip, lr, r1
 8005158:	4411      	add	r1, r2
 800515a:	b97f      	cbnz	r7, 800517c <u8g2_ll_hvline_vertical_top_lsb+0x50>
 800515c:	3b01      	subs	r3, #1
 800515e:	b2db      	uxtb	r3, r3
 8005160:	3301      	adds	r3, #1
 8005162:	440b      	add	r3, r1
 8005164:	780a      	ldrb	r2, [r1, #0]
 8005166:	432a      	orrs	r2, r5
 8005168:	4062      	eors	r2, r4
 800516a:	f801 2b01 	strb.w	r2, [r1], #1
 800516e:	4299      	cmp	r1, r3
 8005170:	d1f8      	bne.n	8005164 <u8g2_ll_hvline_vertical_top_lsb+0x38>
 8005172:	bdf0      	pop	{r4, r5, r6, r7, pc}
 8005174:	2500      	movs	r5, #0
 8005176:	e7e7      	b.n	8005148 <u8g2_ll_hvline_vertical_top_lsb+0x1c>
 8005178:	2400      	movs	r4, #0
 800517a:	e7e5      	b.n	8005148 <u8g2_ll_hvline_vertical_top_lsb+0x1c>
 800517c:	780a      	ldrb	r2, [r1, #0]
 800517e:	3601      	adds	r6, #1
 8005180:	432a      	orrs	r2, r5
 8005182:	4062      	eors	r2, r4
 8005184:	3b01      	subs	r3, #1
 8005186:	f016 0607 	ands.w	r6, r6, #7
 800518a:	700a      	strb	r2, [r1, #0]
 800518c:	b2db      	uxtb	r3, r3
 800518e:	d10c      	bne.n	80051aa <u8g2_ll_hvline_vertical_top_lsb+0x7e>
 8005190:	f890 203e 	ldrb.w	r2, [r0, #62]	; 0x3e
 8005194:	4411      	add	r1, r2
 8005196:	f890 2086 	ldrb.w	r2, [r0, #134]	; 0x86
 800519a:	2a01      	cmp	r2, #1
 800519c:	d80a      	bhi.n	80051b4 <u8g2_ll_hvline_vertical_top_lsb+0x88>
 800519e:	d00b      	beq.n	80051b8 <u8g2_ll_hvline_vertical_top_lsb+0x8c>
 80051a0:	2401      	movs	r4, #1
 80051a2:	4625      	mov	r5, r4
 80051a4:	2b00      	cmp	r3, #0
 80051a6:	d1e9      	bne.n	800517c <u8g2_ll_hvline_vertical_top_lsb+0x50>
 80051a8:	bdf0      	pop	{r4, r5, r6, r7, pc}
 80051aa:	006d      	lsls	r5, r5, #1
 80051ac:	0064      	lsls	r4, r4, #1
 80051ae:	b2ed      	uxtb	r5, r5
 80051b0:	b2e4      	uxtb	r4, r4
 80051b2:	e7f7      	b.n	80051a4 <u8g2_ll_hvline_vertical_top_lsb+0x78>
 80051b4:	2401      	movs	r4, #1
 80051b6:	e7f5      	b.n	80051a4 <u8g2_ll_hvline_vertical_top_lsb+0x78>
 80051b8:	4615      	mov	r5, r2
 80051ba:	e7f3      	b.n	80051a4 <u8g2_ll_hvline_vertical_top_lsb+0x78>

080051bc <u8g2_update_dimension_common>:
 80051bc:	b570      	push	{r4, r5, r6, lr}
 80051be:	f890 403c 	ldrb.w	r4, [r0, #60]	; 0x3c
 80051c2:	6801      	ldr	r1, [r0, #0]
 80051c4:	00e3      	lsls	r3, r4, #3
 80051c6:	f880 303f 	strb.w	r3, [r0, #63]	; 0x3f
 80051ca:	7c0a      	ldrb	r2, [r1, #16]
 80051cc:	f890 503d 	ldrb.w	r5, [r0, #61]	; 0x3d
 80051d0:	2a1f      	cmp	r2, #31
 80051d2:	bf28      	it	cs
 80051d4:	221f      	movcs	r2, #31
 80051d6:	00eb      	lsls	r3, r5, #3
 80051d8:	b2db      	uxtb	r3, r3
 80051da:	00d2      	lsls	r2, r2, #3
 80051dc:	f880 3040 	strb.w	r3, [r0, #64]	; 0x40
 80051e0:	f880 203e 	strb.w	r2, [r0, #62]	; 0x3e
 80051e4:	7c4a      	ldrb	r2, [r1, #17]
 80051e6:	1966      	adds	r6, r4, r5
 80051e8:	4296      	cmp	r6, r2
 80051ea:	bfc4      	itt	gt
 80051ec:	1b54      	subgt	r4, r2, r5
 80051ee:	b2e4      	uxtbgt	r4, r4
 80051f0:	f880 3041 	strb.w	r3, [r0, #65]	; 0x41
 80051f4:	eb03 03c4 	add.w	r3, r3, r4, lsl #3
 80051f8:	f880 3042 	strb.w	r3, [r0, #66]	; 0x42
 80051fc:	23f0      	movs	r3, #240	; 0xf0
 80051fe:	f880 3043 	strb.w	r3, [r0, #67]	; 0x43
 8005202:	8a8b      	ldrh	r3, [r1, #20]
 8005204:	2bf0      	cmp	r3, #240	; 0xf0
 8005206:	bf98      	it	ls
 8005208:	f880 3043 	strbls.w	r3, [r0, #67]	; 0x43
 800520c:	8acb      	ldrh	r3, [r1, #22]
 800520e:	f880 3044 	strb.w	r3, [r0, #68]	; 0x44
 8005212:	bd70      	pop	{r4, r5, r6, pc}

08005214 <u8g2_draw_l90_r0>:
 8005214:	b410      	push	{r4}
 8005216:	f89d 4004 	ldrb.w	r4, [sp, #4]
 800521a:	9401      	str	r4, [sp, #4]
 800521c:	bc10      	pop	{r4}
 800521e:	f7ff beea 	b.w	8004ff6 <u8g2_draw_hv_line_2dir>

08005222 <u8g2_apply_clip_window>:
 8005222:	b537      	push	{r0, r1, r2, r4, r5, lr}
 8005224:	f890 504c 	ldrb.w	r5, [r0, #76]	; 0x4c
 8005228:	f890 304a 	ldrb.w	r3, [r0, #74]	; 0x4a
 800522c:	f890 204b 	ldrb.w	r2, [r0, #75]	; 0x4b
 8005230:	f890 1049 	ldrb.w	r1, [r0, #73]	; 0x49
 8005234:	9500      	str	r5, [sp, #0]
 8005236:	4604      	mov	r4, r0
 8005238:	f7ff ff60 	bl	80050fc <u8g2_IsIntersection>
 800523c:	b918      	cbnz	r0, 8005246 <u8g2_apply_clip_window+0x24>
 800523e:	f884 0080 	strb.w	r0, [r4, #128]	; 0x80
 8005242:	b003      	add	sp, #12
 8005244:	bd30      	pop	{r4, r5, pc}
 8005246:	2301      	movs	r3, #1
 8005248:	f894 2045 	ldrb.w	r2, [r4, #69]	; 0x45
 800524c:	f884 3080 	strb.w	r3, [r4, #128]	; 0x80
 8005250:	f894 3049 	ldrb.w	r3, [r4, #73]	; 0x49
 8005254:	429a      	cmp	r2, r3
 8005256:	bf38      	it	cc
 8005258:	f884 3045 	strbcc.w	r3, [r4, #69]	; 0x45
 800525c:	f894 2046 	ldrb.w	r2, [r4, #70]	; 0x46
 8005260:	f894 304a 	ldrb.w	r3, [r4, #74]	; 0x4a
 8005264:	429a      	cmp	r2, r3
 8005266:	bf88      	it	hi
 8005268:	f884 3046 	strbhi.w	r3, [r4, #70]	; 0x46
 800526c:	f894 2047 	ldrb.w	r2, [r4, #71]	; 0x47
 8005270:	f894 304b 	ldrb.w	r3, [r4, #75]	; 0x4b
 8005274:	429a      	cmp	r2, r3
 8005276:	bf38      	it	cc
 8005278:	f884 3047 	strbcc.w	r3, [r4, #71]	; 0x47
 800527c:	f894 2048 	ldrb.w	r2, [r4, #72]	; 0x48
 8005280:	f894 304c 	ldrb.w	r3, [r4, #76]	; 0x4c
 8005284:	429a      	cmp	r2, r3
 8005286:	bf88      	it	hi
 8005288:	f884 3048 	strbhi.w	r3, [r4, #72]	; 0x48
 800528c:	e7d9      	b.n	8005242 <u8g2_apply_clip_window+0x20>

0800528e <u8g2_update_page_win_r0>:
 800528e:	2200      	movs	r2, #0
 8005290:	f880 2045 	strb.w	r2, [r0, #69]	; 0x45
 8005294:	f890 203e 	ldrb.w	r2, [r0, #62]	; 0x3e
 8005298:	f880 2046 	strb.w	r2, [r0, #70]	; 0x46
 800529c:	f890 2041 	ldrb.w	r2, [r0, #65]	; 0x41
 80052a0:	f880 2047 	strb.w	r2, [r0, #71]	; 0x47
 80052a4:	f890 2042 	ldrb.w	r2, [r0, #66]	; 0x42
 80052a8:	f880 2048 	strb.w	r2, [r0, #72]	; 0x48
 80052ac:	f7ff bfb9 	b.w	8005222 <u8g2_apply_clip_window>

080052b0 <u8g2_update_dimension_r0>:
 80052b0:	f7ff bf84 	b.w	80051bc <u8g2_update_dimension_common>

080052b4 <u8g2_SetMaxClipWindow>:
 80052b4:	2200      	movs	r2, #0
 80052b6:	f880 2049 	strb.w	r2, [r0, #73]	; 0x49
 80052ba:	f880 204b 	strb.w	r2, [r0, #75]	; 0x4b
 80052be:	22ff      	movs	r2, #255	; 0xff
 80052c0:	6b43      	ldr	r3, [r0, #52]	; 0x34
 80052c2:	f880 204a 	strb.w	r2, [r0, #74]	; 0x4a
 80052c6:	f880 204c 	strb.w	r2, [r0, #76]	; 0x4c
 80052ca:	685b      	ldr	r3, [r3, #4]
 80052cc:	4718      	bx	r3

080052ce <u8g2_SetupBuffer>:
 80052ce:	b570      	push	{r4, r5, r6, lr}
 80052d0:	2500      	movs	r5, #0
 80052d2:	6303      	str	r3, [r0, #48]	; 0x30
 80052d4:	2301      	movs	r3, #1
 80052d6:	4604      	mov	r4, r0
 80052d8:	9e04      	ldr	r6, [sp, #16]
 80052da:	f880 203c 	strb.w	r2, [r0, #60]	; 0x3c
 80052de:	f880 503d 	strb.w	r5, [r0, #61]	; 0x3d
 80052e2:	f880 5063 	strb.w	r5, [r0, #99]	; 0x63
 80052e6:	f880 5085 	strb.w	r5, [r0, #133]	; 0x85
 80052ea:	f880 3086 	strb.w	r3, [r0, #134]	; 0x86
 80052ee:	f880 3087 	strb.w	r3, [r0, #135]	; 0x87
 80052f2:	6381      	str	r1, [r0, #56]	; 0x38
 80052f4:	6833      	ldr	r3, [r6, #0]
 80052f6:	6505      	str	r5, [r0, #80]	; 0x50
 80052f8:	6346      	str	r6, [r0, #52]	; 0x34
 80052fa:	4798      	blx	r3
 80052fc:	4620      	mov	r0, r4
 80052fe:	f7ff ffd9 	bl	80052b4 <u8g2_SetMaxClipWindow>
 8005302:	4620      	mov	r0, r4
 8005304:	f7ff fe62 	bl	8004fcc <u8g2_SetFontPosBaseline>
 8005308:	f884 5066 	strb.w	r5, [r4, #102]	; 0x66
 800530c:	bd70      	pop	{r4, r5, r6, pc}

0800530e <u8x8_ascii_next>:
 800530e:	b119      	cbz	r1, 8005318 <u8x8_ascii_next+0xa>
 8005310:	290a      	cmp	r1, #10
 8005312:	d001      	beq.n	8005318 <u8x8_ascii_next+0xa>
 8005314:	b288      	uxth	r0, r1
 8005316:	4770      	bx	lr
 8005318:	f64f 70ff 	movw	r0, #65535	; 0xffff
 800531c:	4770      	bx	lr

0800531e <u8x8_utf8_init>:
 800531e:	2300      	movs	r3, #0
 8005320:	f880 3027 	strb.w	r3, [r0, #39]	; 0x27
 8005324:	4770      	bx	lr

08005326 <u8x8_byte_SendBytes>:
 8005326:	b410      	push	{r4}
 8005328:	6904      	ldr	r4, [r0, #16]
 800532a:	4613      	mov	r3, r2
 800532c:	46a4      	mov	ip, r4
 800532e:	460a      	mov	r2, r1
 8005330:	bc10      	pop	{r4}
 8005332:	2117      	movs	r1, #23
 8005334:	4760      	bx	ip

08005336 <u8x8_byte_SendByte>:
 8005336:	b507      	push	{r0, r1, r2, lr}
 8005338:	aa02      	add	r2, sp, #8
 800533a:	f802 1d01 	strb.w	r1, [r2, #-1]!
 800533e:	2101      	movs	r1, #1
 8005340:	f7ff fff1 	bl	8005326 <u8x8_byte_SendBytes>
 8005344:	b003      	add	sp, #12
 8005346:	f85d fb04 	ldr.w	pc, [sp], #4

0800534a <u8x8_byte_StartTransfer>:
 800534a:	2300      	movs	r3, #0
 800534c:	b410      	push	{r4}
 800534e:	6904      	ldr	r4, [r0, #16]
 8005350:	461a      	mov	r2, r3
 8005352:	46a4      	mov	ip, r4
 8005354:	2118      	movs	r1, #24
 8005356:	bc10      	pop	{r4}
 8005358:	4760      	bx	ip

0800535a <u8x8_byte_EndTransfer>:
 800535a:	2300      	movs	r3, #0
 800535c:	b410      	push	{r4}
 800535e:	6904      	ldr	r4, [r0, #16]
 8005360:	461a      	mov	r2, r3
 8005362:	46a4      	mov	ip, r4
 8005364:	2119      	movs	r1, #25
 8005366:	bc10      	pop	{r4}
 8005368:	4760      	bx	ip

0800536a <u8x8_i2c_data_transfer>:
 800536a:	b5f8      	push	{r3, r4, r5, r6, r7, lr}
 800536c:	4604      	mov	r4, r0
 800536e:	4617      	mov	r7, r2
 8005370:	460e      	mov	r6, r1
 8005372:	f7ff ffea 	bl	800534a <u8x8_byte_StartTransfer>
 8005376:	2140      	movs	r1, #64	; 0x40
 8005378:	4620      	mov	r0, r4
 800537a:	f7ff ffdc 	bl	8005336 <u8x8_byte_SendByte>
 800537e:	6925      	ldr	r5, [r4, #16]
 8005380:	463b      	mov	r3, r7
 8005382:	4632      	mov	r2, r6
 8005384:	4620      	mov	r0, r4
 8005386:	2117      	movs	r1, #23
 8005388:	47a8      	blx	r5
 800538a:	4620      	mov	r0, r4
 800538c:	e8bd 40f8 	ldmia.w	sp!, {r3, r4, r5, r6, r7, lr}
 8005390:	f7ff bfe3 	b.w	800535a <u8x8_byte_EndTransfer>

08005394 <u8x8_cad_SendCmd>:
 8005394:	b410      	push	{r4}
 8005396:	68c4      	ldr	r4, [r0, #12]
 8005398:	460a      	mov	r2, r1
 800539a:	46a4      	mov	ip, r4
 800539c:	2300      	movs	r3, #0
 800539e:	2115      	movs	r1, #21
 80053a0:	bc10      	pop	{r4}
 80053a2:	4760      	bx	ip

080053a4 <u8x8_cad_SendArg>:
 80053a4:	b410      	push	{r4}
 80053a6:	68c4      	ldr	r4, [r0, #12]
 80053a8:	460a      	mov	r2, r1
 80053aa:	46a4      	mov	ip, r4
 80053ac:	2300      	movs	r3, #0
 80053ae:	2116      	movs	r1, #22
 80053b0:	bc10      	pop	{r4}
 80053b2:	4760      	bx	ip

080053b4 <u8x8_cad_SendData>:
 80053b4:	b410      	push	{r4}
 80053b6:	68c4      	ldr	r4, [r0, #12]
 80053b8:	4613      	mov	r3, r2
 80053ba:	46a4      	mov	ip, r4
 80053bc:	460a      	mov	r2, r1
 80053be:	bc10      	pop	{r4}
 80053c0:	2117      	movs	r1, #23
 80053c2:	4760      	bx	ip

080053c4 <u8x8_cad_StartTransfer>:
 80053c4:	2300      	movs	r3, #0
 80053c6:	b410      	push	{r4}
 80053c8:	68c4      	ldr	r4, [r0, #12]
 80053ca:	461a      	mov	r2, r3
 80053cc:	46a4      	mov	ip, r4
 80053ce:	2118      	movs	r1, #24
 80053d0:	bc10      	pop	{r4}
 80053d2:	4760      	bx	ip

080053d4 <u8x8_cad_EndTransfer>:
 80053d4:	2300      	movs	r3, #0
 80053d6:	b410      	push	{r4}
 80053d8:	68c4      	ldr	r4, [r0, #12]
 80053da:	461a      	mov	r2, r3
 80053dc:	46a4      	mov	ip, r4
 80053de:	2119      	movs	r1, #25
 80053e0:	bc10      	pop	{r4}
 80053e2:	4760      	bx	ip

080053e4 <u8x8_cad_SendSequence>:
 80053e4:	b573      	push	{r0, r1, r4, r5, r6, lr}
 80053e6:	4605      	mov	r5, r0
 80053e8:	460c      	mov	r4, r1
 80053ea:	7821      	ldrb	r1, [r4, #0]
 80053ec:	2917      	cmp	r1, #23
 80053ee:	d019      	beq.n	8005424 <u8x8_cad_SendSequence+0x40>
 80053f0:	d803      	bhi.n	80053fa <u8x8_cad_SendSequence+0x16>
 80053f2:	2915      	cmp	r1, #21
 80053f4:	d20d      	bcs.n	8005412 <u8x8_cad_SendSequence+0x2e>
 80053f6:	b002      	add	sp, #8
 80053f8:	bd70      	pop	{r4, r5, r6, pc}
 80053fa:	2919      	cmp	r1, #25
 80053fc:	d91c      	bls.n	8005438 <u8x8_cad_SendSequence+0x54>
 80053fe:	29fe      	cmp	r1, #254	; 0xfe
 8005400:	d1f9      	bne.n	80053f6 <u8x8_cad_SendSequence+0x12>
 8005402:	7862      	ldrb	r2, [r4, #1]
 8005404:	2129      	movs	r1, #41	; 0x29
 8005406:	4628      	mov	r0, r5
 8005408:	f88d 2007 	strb.w	r2, [sp, #7]
 800540c:	f000 f940 	bl	8005690 <u8x8_gpio_call>
 8005410:	e006      	b.n	8005420 <u8x8_cad_SendSequence+0x3c>
 8005412:	7862      	ldrb	r2, [r4, #1]
 8005414:	68ee      	ldr	r6, [r5, #12]
 8005416:	f88d 2007 	strb.w	r2, [sp, #7]
 800541a:	2300      	movs	r3, #0
 800541c:	4628      	mov	r0, r5
 800541e:	47b0      	blx	r6
 8005420:	3402      	adds	r4, #2
 8005422:	e7e2      	b.n	80053ea <u8x8_cad_SendSequence+0x6>
 8005424:	7863      	ldrb	r3, [r4, #1]
 8005426:	f10d 0207 	add.w	r2, sp, #7
 800542a:	2101      	movs	r1, #1
 800542c:	4628      	mov	r0, r5
 800542e:	f88d 3007 	strb.w	r3, [sp, #7]
 8005432:	f7ff ffbf 	bl	80053b4 <u8x8_cad_SendData>
 8005436:	e7f3      	b.n	8005420 <u8x8_cad_SendSequence+0x3c>
 8005438:	2300      	movs	r3, #0
 800543a:	68ee      	ldr	r6, [r5, #12]
 800543c:	461a      	mov	r2, r3
 800543e:	4628      	mov	r0, r5
 8005440:	3401      	adds	r4, #1
 8005442:	47b0      	blx	r6
 8005444:	e7d1      	b.n	80053ea <u8x8_cad_SendSequence+0x6>

08005446 <u8x8_cad_ssd13xx_i2c>:
 8005446:	3914      	subs	r1, #20
 8005448:	b570      	push	{r4, r5, r6, lr}
 800544a:	4604      	mov	r4, r0
 800544c:	4615      	mov	r5, r2
 800544e:	2905      	cmp	r1, #5
 8005450:	d832      	bhi.n	80054b8 <u8x8_cad_ssd13xx_i2c+0x72>
 8005452:	e8df f001 	tbb	[pc, r1]
 8005456:	0c23      	.short	0x0c23
 8005458:	1919030c 	.word	0x1919030c
 800545c:	461e      	mov	r6, r3
 800545e:	2d18      	cmp	r5, #24
 8005460:	4632      	mov	r2, r6
 8005462:	d813      	bhi.n	800548c <u8x8_cad_ssd13xx_i2c+0x46>
 8005464:	4629      	mov	r1, r5
 8005466:	4620      	mov	r0, r4
 8005468:	f7ff ff7f 	bl	800536a <u8x8_i2c_data_transfer>
 800546c:	e00c      	b.n	8005488 <u8x8_cad_ssd13xx_i2c+0x42>
 800546e:	f7ff ff6c 	bl	800534a <u8x8_byte_StartTransfer>
 8005472:	2100      	movs	r1, #0
 8005474:	4620      	mov	r0, r4
 8005476:	f7ff ff5e 	bl	8005336 <u8x8_byte_SendByte>
 800547a:	4629      	mov	r1, r5
 800547c:	4620      	mov	r0, r4
 800547e:	f7ff ff5a 	bl	8005336 <u8x8_byte_SendByte>
 8005482:	4620      	mov	r0, r4
 8005484:	f7ff ff69 	bl	800535a <u8x8_byte_EndTransfer>
 8005488:	2001      	movs	r0, #1
 800548a:	bd70      	pop	{r4, r5, r6, pc}
 800548c:	2118      	movs	r1, #24
 800548e:	4620      	mov	r0, r4
 8005490:	3d18      	subs	r5, #24
 8005492:	f7ff ff6a 	bl	800536a <u8x8_i2c_data_transfer>
 8005496:	b2ed      	uxtb	r5, r5
 8005498:	3618      	adds	r6, #24
 800549a:	e7e0      	b.n	800545e <u8x8_cad_ssd13xx_i2c+0x18>
 800549c:	f890 2024 	ldrb.w	r2, [r0, #36]	; 0x24
 80054a0:	6906      	ldr	r6, [r0, #16]
 80054a2:	2aff      	cmp	r2, #255	; 0xff
 80054a4:	bf04      	itt	eq
 80054a6:	2278      	moveq	r2, #120	; 0x78
 80054a8:	f880 2024 	strbeq.w	r2, [r0, #36]	; 0x24
 80054ac:	46b4      	mov	ip, r6
 80054ae:	462a      	mov	r2, r5
 80054b0:	e8bd 4070 	ldmia.w	sp!, {r4, r5, r6, lr}
 80054b4:	2114      	movs	r1, #20
 80054b6:	4760      	bx	ip
 80054b8:	2000      	movs	r0, #0
 80054ba:	bd70      	pop	{r4, r5, r6, pc}

080054bc <u8x8_d_ssd1306_sh1106_generic>:
 80054bc:	390b      	subs	r1, #11
 80054be:	b5f8      	push	{r3, r4, r5, r6, r7, lr}
 80054c0:	4604      	mov	r4, r0
 80054c2:	4615      	mov	r5, r2
 80054c4:	461f      	mov	r7, r3
 80054c6:	2904      	cmp	r1, #4
 80054c8:	d855      	bhi.n	8005576 <u8x8_d_ssd1306_sh1106_generic+0xba>
 80054ca:	e8df f001 	tbb	[pc, r1]
 80054ce:	5403      	.short	0x5403
 80054d0:	1b0c      	.short	0x1b0c
 80054d2:	29          	.byte	0x29
 80054d3:	00          	.byte	0x00
 80054d4:	b92a      	cbnz	r2, 80054e2 <u8x8_d_ssd1306_sh1106_generic+0x26>
 80054d6:	4929      	ldr	r1, [pc, #164]	; (800557c <u8x8_d_ssd1306_sh1106_generic+0xc0>)
 80054d8:	4620      	mov	r0, r4
 80054da:	f7ff ff83 	bl	80053e4 <u8x8_cad_SendSequence>
 80054de:	2001      	movs	r0, #1
 80054e0:	bdf8      	pop	{r3, r4, r5, r6, r7, pc}
 80054e2:	4927      	ldr	r1, [pc, #156]	; (8005580 <u8x8_d_ssd1306_sh1106_generic+0xc4>)
 80054e4:	e7f8      	b.n	80054d8 <u8x8_d_ssd1306_sh1106_generic+0x1c>
 80054e6:	b93a      	cbnz	r2, 80054f8 <u8x8_d_ssd1306_sh1106_generic+0x3c>
 80054e8:	4926      	ldr	r1, [pc, #152]	; (8005584 <u8x8_d_ssd1306_sh1106_generic+0xc8>)
 80054ea:	f7ff ff7b 	bl	80053e4 <u8x8_cad_SendSequence>
 80054ee:	6823      	ldr	r3, [r4, #0]
 80054f0:	7c9b      	ldrb	r3, [r3, #18]
 80054f2:	f884 3022 	strb.w	r3, [r4, #34]	; 0x22
 80054f6:	e7f2      	b.n	80054de <u8x8_d_ssd1306_sh1106_generic+0x22>
 80054f8:	4923      	ldr	r1, [pc, #140]	; (8005588 <u8x8_d_ssd1306_sh1106_generic+0xcc>)
 80054fa:	f7ff ff73 	bl	80053e4 <u8x8_cad_SendSequence>
 80054fe:	6823      	ldr	r3, [r4, #0]
 8005500:	7cdb      	ldrb	r3, [r3, #19]
 8005502:	e7f6      	b.n	80054f2 <u8x8_d_ssd1306_sh1106_generic+0x36>
 8005504:	f7ff ff5e 	bl	80053c4 <u8x8_cad_StartTransfer>
 8005508:	2181      	movs	r1, #129	; 0x81
 800550a:	4620      	mov	r0, r4
 800550c:	f7ff ff42 	bl	8005394 <u8x8_cad_SendCmd>
 8005510:	4629      	mov	r1, r5
 8005512:	4620      	mov	r0, r4
 8005514:	f7ff ff46 	bl	80053a4 <u8x8_cad_SendArg>
 8005518:	4620      	mov	r0, r4
 800551a:	f7ff ff5b 	bl	80053d4 <u8x8_cad_EndTransfer>
 800551e:	e7de      	b.n	80054de <u8x8_d_ssd1306_sh1106_generic+0x22>
 8005520:	f7ff ff50 	bl	80053c4 <u8x8_cad_StartTransfer>
 8005524:	797b      	ldrb	r3, [r7, #5]
 8005526:	f894 6022 	ldrb.w	r6, [r4, #34]	; 0x22
 800552a:	2140      	movs	r1, #64	; 0x40
 800552c:	eb06 06c3 	add.w	r6, r6, r3, lsl #3
 8005530:	f006 06ff 	and.w	r6, r6, #255	; 0xff
 8005534:	4620      	mov	r0, r4
 8005536:	f7ff ff2d 	bl	8005394 <u8x8_cad_SendCmd>
 800553a:	0931      	lsrs	r1, r6, #4
 800553c:	f041 0110 	orr.w	r1, r1, #16
 8005540:	4620      	mov	r0, r4
 8005542:	f7ff ff27 	bl	8005394 <u8x8_cad_SendCmd>
 8005546:	f006 010f 	and.w	r1, r6, #15
 800554a:	4620      	mov	r0, r4
 800554c:	f7ff ff2a 	bl	80053a4 <u8x8_cad_SendArg>
 8005550:	79b9      	ldrb	r1, [r7, #6]
 8005552:	4620      	mov	r0, r4
 8005554:	f041 01b0 	orr.w	r1, r1, #176	; 0xb0
 8005558:	f7ff ff24 	bl	80053a4 <u8x8_cad_SendArg>
 800555c:	7939      	ldrb	r1, [r7, #4]
 800555e:	683a      	ldr	r2, [r7, #0]
 8005560:	00c9      	lsls	r1, r1, #3
 8005562:	f001 01f8 	and.w	r1, r1, #248	; 0xf8
 8005566:	4620      	mov	r0, r4
 8005568:	3d01      	subs	r5, #1
 800556a:	f7ff ff23 	bl	80053b4 <u8x8_cad_SendData>
 800556e:	f015 05ff 	ands.w	r5, r5, #255	; 0xff
 8005572:	d1f3      	bne.n	800555c <u8x8_d_ssd1306_sh1106_generic+0xa0>
 8005574:	e7d0      	b.n	8005518 <u8x8_d_ssd1306_sh1106_generic+0x5c>
 8005576:	2000      	movs	r0, #0
 8005578:	bdf8      	pop	{r3, r4, r5, r6, r7, pc}
 800557a:	bf00      	nop
 800557c:	0800821f 	.word	0x0800821f
 8005580:	08008224 	.word	0x08008224
 8005584:	080081dc 	.word	0x080081dc
 8005588:	080081e3 	.word	0x080081e3

0800558c <u8x8_d_ssd1306_128x64_noname>:
 800558c:	b538      	push	{r3, r4, r5, lr}
 800558e:	4604      	mov	r4, r0
 8005590:	460d      	mov	r5, r1
 8005592:	f7ff ff93 	bl	80054bc <u8x8_d_ssd1306_sh1106_generic>
 8005596:	b950      	cbnz	r0, 80055ae <u8x8_d_ssd1306_128x64_noname+0x22>
 8005598:	2d09      	cmp	r5, #9
 800559a:	d00a      	beq.n	80055b2 <u8x8_d_ssd1306_128x64_noname+0x26>
 800559c:	2d0a      	cmp	r5, #10
 800559e:	d107      	bne.n	80055b0 <u8x8_d_ssd1306_128x64_noname+0x24>
 80055a0:	4620      	mov	r0, r4
 80055a2:	f000 f814 	bl	80055ce <u8x8_d_helper_display_init>
 80055a6:	4905      	ldr	r1, [pc, #20]	; (80055bc <u8x8_d_ssd1306_128x64_noname+0x30>)
 80055a8:	4620      	mov	r0, r4
 80055aa:	f7ff ff1b 	bl	80053e4 <u8x8_cad_SendSequence>
 80055ae:	2001      	movs	r0, #1
 80055b0:	bd38      	pop	{r3, r4, r5, pc}
 80055b2:	4903      	ldr	r1, [pc, #12]	; (80055c0 <u8x8_d_ssd1306_128x64_noname+0x34>)
 80055b4:	4620      	mov	r0, r4
 80055b6:	f000 f805 	bl	80055c4 <u8x8_d_helper_display_setup_memory>
 80055ba:	e7f8      	b.n	80055ae <u8x8_d_ssd1306_128x64_noname+0x22>
 80055bc:	080081ea 	.word	0x080081ea
 80055c0:	0800822c 	.word	0x0800822c

080055c4 <u8x8_d_helper_display_setup_memory>:
 80055c4:	6001      	str	r1, [r0, #0]
 80055c6:	7c8b      	ldrb	r3, [r1, #18]
 80055c8:	f880 3022 	strb.w	r3, [r0, #34]	; 0x22
 80055cc:	4770      	bx	lr

080055ce <u8x8_d_helper_display_init>:
 80055ce:	b538      	push	{r3, r4, r5, lr}
 80055d0:	2300      	movs	r3, #0
 80055d2:	6945      	ldr	r5, [r0, #20]
 80055d4:	461a      	mov	r2, r3
 80055d6:	2128      	movs	r1, #40	; 0x28
 80055d8:	4604      	mov	r4, r0
 80055da:	47a8      	blx	r5
 80055dc:	2300      	movs	r3, #0
 80055de:	68e5      	ldr	r5, [r4, #12]
 80055e0:	461a      	mov	r2, r3
 80055e2:	2114      	movs	r1, #20
 80055e4:	4620      	mov	r0, r4
 80055e6:	47a8      	blx	r5
 80055e8:	4620      	mov	r0, r4
 80055ea:	2201      	movs	r2, #1
 80055ec:	214b      	movs	r1, #75	; 0x4b
 80055ee:	f000 f84f 	bl	8005690 <u8x8_gpio_call>
 80055f2:	6823      	ldr	r3, [r4, #0]
 80055f4:	4620      	mov	r0, r4
 80055f6:	791a      	ldrb	r2, [r3, #4]
 80055f8:	2129      	movs	r1, #41	; 0x29
 80055fa:	f000 f849 	bl	8005690 <u8x8_gpio_call>
 80055fe:	4620      	mov	r0, r4
 8005600:	2200      	movs	r2, #0
 8005602:	214b      	movs	r1, #75	; 0x4b
 8005604:	f000 f844 	bl	8005690 <u8x8_gpio_call>
 8005608:	6823      	ldr	r3, [r4, #0]
 800560a:	4620      	mov	r0, r4
 800560c:	791a      	ldrb	r2, [r3, #4]
 800560e:	2129      	movs	r1, #41	; 0x29
 8005610:	f000 f83e 	bl	8005690 <u8x8_gpio_call>
 8005614:	4620      	mov	r0, r4
 8005616:	2201      	movs	r2, #1
 8005618:	214b      	movs	r1, #75	; 0x4b
 800561a:	f000 f839 	bl	8005690 <u8x8_gpio_call>
 800561e:	6823      	ldr	r3, [r4, #0]
 8005620:	4620      	mov	r0, r4
 8005622:	795a      	ldrb	r2, [r3, #5]
 8005624:	2129      	movs	r1, #41	; 0x29
 8005626:	e8bd 4038 	ldmia.w	sp!, {r3, r4, r5, lr}
 800562a:	f000 b831 	b.w	8005690 <u8x8_gpio_call>

0800562e <u8x8_DrawTile>:
 800562e:	b513      	push	{r0, r1, r4, lr}
 8005630:	f88d 2006 	strb.w	r2, [sp, #6]
 8005634:	9a04      	ldr	r2, [sp, #16]
 8005636:	f88d 3004 	strb.w	r3, [sp, #4]
 800563a:	ab02      	add	r3, sp, #8
 800563c:	f88d 1005 	strb.w	r1, [sp, #5]
 8005640:	f843 2d08 	str.w	r2, [r3, #-8]!
 8005644:	6884      	ldr	r4, [r0, #8]
 8005646:	2201      	movs	r2, #1
 8005648:	210f      	movs	r1, #15
 800564a:	47a0      	blx	r4
 800564c:	b002      	add	sp, #8
 800564e:	bd10      	pop	{r4, pc}

08005650 <u8x8_SetupMemory>:
 8005650:	2300      	movs	r3, #0
 8005652:	b410      	push	{r4}
 8005654:	6884      	ldr	r4, [r0, #8]
 8005656:	461a      	mov	r2, r3
 8005658:	46a4      	mov	ip, r4
 800565a:	2109      	movs	r1, #9
 800565c:	bc10      	pop	{r4}
 800565e:	4760      	bx	ip

08005660 <u8x8_InitDisplay>:
 8005660:	2300      	movs	r3, #0
 8005662:	b410      	push	{r4}
 8005664:	6884      	ldr	r4, [r0, #8]
 8005666:	461a      	mov	r2, r3
 8005668:	46a4      	mov	ip, r4
 800566a:	210a      	movs	r1, #10
 800566c:	bc10      	pop	{r4}
 800566e:	4760      	bx	ip

08005670 <u8x8_SetPowerSave>:
 8005670:	b410      	push	{r4}
 8005672:	6884      	ldr	r4, [r0, #8]
 8005674:	460a      	mov	r2, r1
 8005676:	46a4      	mov	ip, r4
 8005678:	2300      	movs	r3, #0
 800567a:	210b      	movs	r1, #11
 800567c:	bc10      	pop	{r4}
 800567e:	4760      	bx	ip

08005680 <u8x8_RefreshDisplay>:
 8005680:	2300      	movs	r3, #0
 8005682:	b410      	push	{r4}
 8005684:	6884      	ldr	r4, [r0, #8]
 8005686:	461a      	mov	r2, r3
 8005688:	46a4      	mov	ip, r4
 800568a:	2110      	movs	r1, #16
 800568c:	bc10      	pop	{r4}
 800568e:	4760      	bx	ip

08005690 <u8x8_gpio_call>:
 8005690:	b410      	push	{r4}
 8005692:	6944      	ldr	r4, [r0, #20]
 8005694:	2300      	movs	r3, #0
 8005696:	46a4      	mov	ip, r4
 8005698:	bc10      	pop	{r4}
 800569a:	4760      	bx	ip

0800569c <u8x8_dummy_cb>:
 800569c:	2000      	movs	r0, #0
 800569e:	4770      	bx	lr

080056a0 <u8x8_SetupDefaults>:
 80056a0:	2300      	movs	r3, #0
 80056a2:	6003      	str	r3, [r0, #0]
 80056a4:	f880 3023 	strb.w	r3, [r0, #35]	; 0x23
 80056a8:	f880 3026 	strb.w	r3, [r0, #38]	; 0x26
 80056ac:	f880 3027 	strb.w	r3, [r0, #39]	; 0x27
 80056b0:	23ff      	movs	r3, #255	; 0xff
 80056b2:	4a05      	ldr	r2, [pc, #20]	; (80056c8 <u8x8_SetupDefaults+0x28>)
 80056b4:	f880 3024 	strb.w	r3, [r0, #36]	; 0x24
 80056b8:	6082      	str	r2, [r0, #8]
 80056ba:	60c2      	str	r2, [r0, #12]
 80056bc:	6102      	str	r2, [r0, #16]
 80056be:	6142      	str	r2, [r0, #20]
 80056c0:	f880 3029 	strb.w	r3, [r0, #41]	; 0x29
 80056c4:	4770      	bx	lr
 80056c6:	bf00      	nop
 80056c8:	0800569d 	.word	0x0800569d

080056cc <u8x8_Setup>:
 80056cc:	b5f8      	push	{r3, r4, r5, r6, r7, lr}
 80056ce:	9d06      	ldr	r5, [sp, #24]
 80056d0:	4617      	mov	r7, r2
 80056d2:	461e      	mov	r6, r3
 80056d4:	f7ff ffe4 	bl	80056a0 <u8x8_SetupDefaults>
 80056d8:	60c7      	str	r7, [r0, #12]
 80056da:	6106      	str	r6, [r0, #16]
 80056dc:	6145      	str	r5, [r0, #20]
 80056de:	6081      	str	r1, [r0, #8]
 80056e0:	e8bd 40f8 	ldmia.w	sp!, {r3, r4, r5, r6, r7, lr}
 80056e4:	f7ff bfb4 	b.w	8005650 <u8x8_SetupMemory>

080056e8 <u8x8_gpio_and_delay_mine>:
 80056e8:	2001      	movs	r0, #1
 80056ea:	4770      	bx	lr

080056ec <u8x8_byte_stm32f103_hw_i2c>:
 80056ec:	b5f7      	push	{r0, r1, r2, r4, r5, r6, r7, lr}
 80056ee:	3914      	subs	r1, #20
 80056f0:	290c      	cmp	r1, #12
 80056f2:	d83c      	bhi.n	800576e <u8x8_byte_stm32f103_hw_i2c+0x82>
 80056f4:	e8df f001 	tbb	[pc, r1]
 80056f8:	073b3b0c 	.word	0x073b3b0c
 80056fc:	3b3b2622 	.word	0x3b3b2622
 8005700:	3b3b3b3b 	.word	0x3b3b3b3b
 8005704:	0c          	.byte	0x0c
 8005705:	00          	.byte	0x00
 8005706:	481b      	ldr	r0, [pc, #108]	; (8005774 <u8x8_byte_stm32f103_hw_i2c+0x88>)
 8005708:	7807      	ldrb	r7, [r0, #0]
 800570a:	18bc      	adds	r4, r7, r2
 800570c:	2c20      	cmp	r4, #32
 800570e:	dd10      	ble.n	8005732 <u8x8_byte_stm32f103_hw_i2c+0x46>
 8005710:	2001      	movs	r0, #1
 8005712:	b003      	add	sp, #12
 8005714:	bdf0      	pop	{r4, r5, r6, r7, pc}
 8005716:	5c5d      	ldrb	r5, [r3, r1]
 8005718:	3101      	adds	r1, #1
 800571a:	f80e 5006 	strb.w	r5, [lr, r6]
 800571e:	2501      	movs	r5, #1
 8005720:	187e      	adds	r6, r7, r1
 8005722:	4291      	cmp	r1, r2
 8005724:	b2f6      	uxtb	r6, r6
 8005726:	dbf6      	blt.n	8005716 <u8x8_byte_stm32f103_hw_i2c+0x2a>
 8005728:	b2e4      	uxtb	r4, r4
 800572a:	2d00      	cmp	r5, #0
 800572c:	d0f0      	beq.n	8005710 <u8x8_byte_stm32f103_hw_i2c+0x24>
 800572e:	7004      	strb	r4, [r0, #0]
 8005730:	e7ee      	b.n	8005710 <u8x8_byte_stm32f103_hw_i2c+0x24>
 8005732:	2500      	movs	r5, #0
 8005734:	f8df e044 	ldr.w	lr, [pc, #68]	; 800577c <u8x8_byte_stm32f103_hw_i2c+0x90>
 8005738:	4629      	mov	r1, r5
 800573a:	e7f1      	b.n	8005720 <u8x8_byte_stm32f103_hw_i2c+0x34>
 800573c:	2200      	movs	r2, #0
 800573e:	4b0d      	ldr	r3, [pc, #52]	; (8005774 <u8x8_byte_stm32f103_hw_i2c+0x88>)
 8005740:	701a      	strb	r2, [r3, #0]
 8005742:	e7e5      	b.n	8005710 <u8x8_byte_stm32f103_hw_i2c+0x24>
 8005744:	4c0c      	ldr	r4, [pc, #48]	; (8005778 <u8x8_byte_stm32f103_hw_i2c+0x8c>)
 8005746:	4620      	mov	r0, r4
 8005748:	f7fd f8ea 	bl	8002920 <HAL_I2C_GetState>
 800574c:	2820      	cmp	r0, #32
 800574e:	d1fa      	bne.n	8005746 <u8x8_byte_stm32f103_hw_i2c+0x5a>
 8005750:	220a      	movs	r2, #10
 8005752:	4c08      	ldr	r4, [pc, #32]	; (8005774 <u8x8_byte_stm32f103_hw_i2c+0x88>)
 8005754:	2178      	movs	r1, #120	; 0x78
 8005756:	7823      	ldrb	r3, [r4, #0]
 8005758:	4807      	ldr	r0, [pc, #28]	; (8005778 <u8x8_byte_stm32f103_hw_i2c+0x8c>)
 800575a:	9200      	str	r2, [sp, #0]
 800575c:	4a07      	ldr	r2, [pc, #28]	; (800577c <u8x8_byte_stm32f103_hw_i2c+0x90>)
 800575e:	f7fc fe39 	bl	80023d4 <HAL_I2C_Master_Transmit>
 8005762:	4a07      	ldr	r2, [pc, #28]	; (8005780 <u8x8_byte_stm32f103_hw_i2c+0x94>)
 8005764:	7823      	ldrb	r3, [r4, #0]
 8005766:	6811      	ldr	r1, [r2, #0]
 8005768:	440b      	add	r3, r1
 800576a:	6013      	str	r3, [r2, #0]
 800576c:	e7d0      	b.n	8005710 <u8x8_byte_stm32f103_hw_i2c+0x24>
 800576e:	2000      	movs	r0, #0
 8005770:	e7cf      	b.n	8005712 <u8x8_byte_stm32f103_hw_i2c+0x26>
 8005772:	bf00      	nop
 8005774:	20000120 	.word	0x20000120
 8005778:	20000204 	.word	0x20000204
 800577c:	200001b0 	.word	0x200001b0
 8005780:	2000011c 	.word	0x2000011c

08005784 <move_throttle.part.2>:
 8005784:	b538      	push	{r3, r4, r5, lr}
 8005786:	2400      	movs	r4, #0
 8005788:	f04f 4380 	mov.w	r3, #1073741824	; 0x40000000
 800578c:	4d07      	ldr	r5, [pc, #28]	; (80057ac <move_throttle.part.2+0x28>)
 800578e:	4622      	mov	r2, r4
 8005790:	4628      	mov	r0, r5
 8005792:	635c      	str	r4, [r3, #52]	; 0x34
 8005794:	f44f 7180 	mov.w	r1, #256	; 0x100
 8005798:	f7fc fb3c 	bl	8001e14 <HAL_GPIO_WritePin>
 800579c:	4622      	mov	r2, r4
 800579e:	4628      	mov	r0, r5
 80057a0:	e8bd 4038 	ldmia.w	sp!, {r3, r4, r5, lr}
 80057a4:	f44f 7100 	mov.w	r1, #512	; 0x200
 80057a8:	f7fc bb34 	b.w	8001e14 <HAL_GPIO_WritePin>
 80057ac:	40010c00 	.word	0x40010c00

080057b0 <reverse>:
 80057b0:	4603      	mov	r3, r0
 80057b2:	b510      	push	{r4, lr}
 80057b4:	3901      	subs	r1, #1
 80057b6:	4401      	add	r1, r0
 80057b8:	1a1a      	subs	r2, r3, r0
 80057ba:	1a0c      	subs	r4, r1, r0
 80057bc:	42a2      	cmp	r2, r4
 80057be:	db00      	blt.n	80057c2 <reverse+0x12>
 80057c0:	bd10      	pop	{r4, pc}
 80057c2:	781a      	ldrb	r2, [r3, #0]
 80057c4:	780c      	ldrb	r4, [r1, #0]
 80057c6:	f803 4b01 	strb.w	r4, [r3], #1
 80057ca:	f801 2901 	strb.w	r2, [r1], #-1
 80057ce:	e7f3      	b.n	80057b8 <reverse+0x8>

080057d0 <intToStr>:
 80057d0:	b538      	push	{r3, r4, r5, lr}
 80057d2:	460d      	mov	r5, r1
 80057d4:	460b      	mov	r3, r1
 80057d6:	210a      	movs	r1, #10
 80057d8:	1b5c      	subs	r4, r3, r5
 80057da:	b958      	cbnz	r0, 80057f4 <intToStr+0x24>
 80057dc:	2130      	movs	r1, #48	; 0x30
 80057de:	192b      	adds	r3, r5, r4
 80057e0:	4294      	cmp	r4, r2
 80057e2:	db10      	blt.n	8005806 <intToStr+0x36>
 80057e4:	4628      	mov	r0, r5
 80057e6:	4621      	mov	r1, r4
 80057e8:	f7ff ffe2 	bl	80057b0 <reverse>
 80057ec:	2300      	movs	r3, #0
 80057ee:	552b      	strb	r3, [r5, r4]
 80057f0:	4620      	mov	r0, r4
 80057f2:	bd38      	pop	{r3, r4, r5, pc}
 80057f4:	fb90 f4f1 	sdiv	r4, r0, r1
 80057f8:	fb01 0014 	mls	r0, r1, r4, r0
 80057fc:	3030      	adds	r0, #48	; 0x30
 80057fe:	f803 0b01 	strb.w	r0, [r3], #1
 8005802:	4620      	mov	r0, r4
 8005804:	e7e8      	b.n	80057d8 <intToStr+0x8>
 8005806:	3401      	adds	r4, #1
 8005808:	f803 1b01 	strb.w	r1, [r3], #1
 800580c:	e7e8      	b.n	80057e0 <intToStr+0x10>
	...

08005810 <ftoa>:
 8005810:	e92d 47f0 	stmdb	sp!, {r4, r5, r6, r7, r8, r9, sl, lr}
 8005814:	460c      	mov	r4, r1
 8005816:	4616      	mov	r6, r2
 8005818:	4607      	mov	r7, r0
 800581a:	f7fb fc4d 	bl	80010b8 <__aeabi_f2iz>
 800581e:	2200      	movs	r2, #0
 8005820:	4621      	mov	r1, r4
 8005822:	4682      	mov	sl, r0
 8005824:	f7ff ffd4 	bl	80057d0 <intToStr>
 8005828:	4605      	mov	r5, r0
 800582a:	b32e      	cbz	r6, 8005878 <ftoa+0x68>
 800582c:	232e      	movs	r3, #46	; 0x2e
 800582e:	5423      	strb	r3, [r4, r0]
 8005830:	4630      	mov	r0, r6
 8005832:	f7fa fddf 	bl	80003f4 <__aeabi_i2d>
 8005836:	4602      	mov	r2, r0
 8005838:	460b      	mov	r3, r1
 800583a:	2000      	movs	r0, #0
 800583c:	490f      	ldr	r1, [pc, #60]	; (800587c <ftoa+0x6c>)
 800583e:	f001 f9b5 	bl	8006bac <pow>
 8005842:	4680      	mov	r8, r0
 8005844:	4650      	mov	r0, sl
 8005846:	4689      	mov	r9, r1
 8005848:	f7fb fa1c 	bl	8000c84 <__aeabi_i2f>
 800584c:	4601      	mov	r1, r0
 800584e:	4638      	mov	r0, r7
 8005850:	f7fb f962 	bl	8000b18 <__aeabi_fsub>
 8005854:	f7fa fde0 	bl	8000418 <__aeabi_f2d>
 8005858:	4642      	mov	r2, r8
 800585a:	464b      	mov	r3, r9
 800585c:	f7fa fe30 	bl	80004c0 <__aeabi_dmul>
 8005860:	3501      	adds	r5, #1
 8005862:	f7fb f905 	bl	8000a70 <__aeabi_d2f>
 8005866:	442c      	add	r4, r5
 8005868:	f7fb fc26 	bl	80010b8 <__aeabi_f2iz>
 800586c:	4632      	mov	r2, r6
 800586e:	4621      	mov	r1, r4
 8005870:	e8bd 47f0 	ldmia.w	sp!, {r4, r5, r6, r7, r8, r9, sl, lr}
 8005874:	f7ff bfac 	b.w	80057d0 <intToStr>
 8005878:	e8bd 87f0 	ldmia.w	sp!, {r4, r5, r6, r7, r8, r9, sl, pc}
 800587c:	40240000 	.word	0x40240000

08005880 <SaveToEEPROM>:
 8005880:	b530      	push	{r4, r5, lr}
 8005882:	4c0c      	ldr	r4, [pc, #48]	; (80058b4 <SaveToEEPROM+0x34>)
 8005884:	b085      	sub	sp, #20
 8005886:	7822      	ldrb	r2, [r4, #0]
 8005888:	b992      	cbnz	r2, 80058b0 <SaveToEEPROM+0x30>
 800588a:	490b      	ldr	r1, [pc, #44]	; (80058b8 <SaveToEEPROM+0x38>)
 800588c:	4b0b      	ldr	r3, [pc, #44]	; (80058bc <SaveToEEPROM+0x3c>)
 800588e:	6988      	ldr	r0, [r1, #24]
 8005890:	2501      	movs	r5, #1
 8005892:	6018      	str	r0, [r3, #0]
 8005894:	69c8      	ldr	r0, [r1, #28]
 8005896:	6a09      	ldr	r1, [r1, #32]
 8005898:	6058      	str	r0, [r3, #4]
 800589a:	6099      	str	r1, [r3, #8]
 800589c:	210c      	movs	r1, #12
 800589e:	9300      	str	r3, [sp, #0]
 80058a0:	9101      	str	r1, [sp, #4]
 80058a2:	9502      	str	r5, [sp, #8]
 80058a4:	2310      	movs	r3, #16
 80058a6:	21a0      	movs	r1, #160	; 0xa0
 80058a8:	4805      	ldr	r0, [pc, #20]	; (80058c0 <SaveToEEPROM+0x40>)
 80058aa:	f7fc fe69 	bl	8002580 <HAL_I2C_Mem_Write>
 80058ae:	7025      	strb	r5, [r4, #0]
 80058b0:	b005      	add	sp, #20
 80058b2:	bd30      	pop	{r4, r5, pc}
 80058b4:	20000117 	.word	0x20000117
 80058b8:	200002c0 	.word	0x200002c0
 80058bc:	2000025c 	.word	0x2000025c
 80058c0:	20000204 	.word	0x20000204

080058c4 <move_throttle>:
 80058c4:	2802      	cmp	r0, #2
 80058c6:	b510      	push	{r4, lr}
 80058c8:	4604      	mov	r4, r0
 80058ca:	d103      	bne.n	80058d4 <move_throttle+0x10>
 80058cc:	e8bd 4010 	ldmia.w	sp!, {r4, lr}
 80058d0:	f7ff bf58 	b.w	8005784 <move_throttle.part.2>
 80058d4:	b988      	cbnz	r0, 80058fa <move_throttle+0x36>
 80058d6:	2201      	movs	r2, #1
 80058d8:	f44f 7180 	mov.w	r1, #256	; 0x100
 80058dc:	4809      	ldr	r0, [pc, #36]	; (8005904 <move_throttle+0x40>)
 80058de:	f7fc fa99 	bl	8001e14 <HAL_GPIO_WritePin>
 80058e2:	4622      	mov	r2, r4
 80058e4:	f44f 7100 	mov.w	r1, #512	; 0x200
 80058e8:	4806      	ldr	r0, [pc, #24]	; (8005904 <move_throttle+0x40>)
 80058ea:	f7fc fa93 	bl	8001e14 <HAL_GPIO_WritePin>
 80058ee:	f44f 72e1 	mov.w	r2, #450	; 0x1c2
 80058f2:	f04f 4380 	mov.w	r3, #1073741824	; 0x40000000
 80058f6:	635a      	str	r2, [r3, #52]	; 0x34
 80058f8:	bd10      	pop	{r4, pc}
 80058fa:	2801      	cmp	r0, #1
 80058fc:	d1fc      	bne.n	80058f8 <move_throttle+0x34>
 80058fe:	2200      	movs	r2, #0
 8005900:	e7ea      	b.n	80058d8 <move_throttle+0x14>
 8005902:	bf00      	nop
 8005904:	40010c00 	.word	0x40010c00

08005908 <disarm>:
 8005908:	b538      	push	{r3, r4, r5, lr}
 800590a:	2400      	movs	r4, #0
 800590c:	4d0a      	ldr	r5, [pc, #40]	; (8005938 <disarm+0x30>)
 800590e:	4b0b      	ldr	r3, [pc, #44]	; (800593c <disarm+0x34>)
 8005910:	4622      	mov	r2, r4
 8005912:	4628      	mov	r0, r5
 8005914:	f44f 6180 	mov.w	r1, #1024	; 0x400
 8005918:	701c      	strb	r4, [r3, #0]
 800591a:	f7fc fa7b 	bl	8001e14 <HAL_GPIO_WritePin>
 800591e:	4628      	mov	r0, r5
 8005920:	4622      	mov	r2, r4
 8005922:	f44f 4100 	mov.w	r1, #32768	; 0x8000
 8005926:	f7fc fa75 	bl	8001e14 <HAL_GPIO_WritePin>
 800592a:	f7ff ff2b 	bl	8005784 <move_throttle.part.2>
 800592e:	e8bd 4038 	ldmia.w	sp!, {r3, r4, r5, lr}
 8005932:	4803      	ldr	r0, [pc, #12]	; (8005940 <disarm+0x38>)
 8005934:	f7fb bc05 	b.w	8001142 <arm_pid_reset_f32>
 8005938:	40010c00 	.word	0x40010c00
 800593c:	200001ec 	.word	0x200001ec
 8005940:	200002c0 	.word	0x200002c0
 8005944:	00000000 	.word	0x00000000

08005948 <arm>:
 8005948:	b538      	push	{r3, r4, r5, lr}
 800594a:	4c13      	ldr	r4, [pc, #76]	; (8005998 <arm+0x50>)
 800594c:	4d13      	ldr	r5, [pc, #76]	; (800599c <arm+0x54>)
 800594e:	6820      	ldr	r0, [r4, #0]
 8005950:	f7fb fbb2 	bl	80010b8 <__aeabi_f2iz>
 8005954:	f7fa fd4e 	bl	80003f4 <__aeabi_i2d>
 8005958:	a30d      	add	r3, pc, #52	; (adr r3, 8005990 <arm+0x48>)
 800595a:	e9d3 2300 	ldrd	r2, r3, [r3]
 800595e:	f7fa fbfd 	bl	800015c <__adddf3>
 8005962:	f7fb f885 	bl	8000a70 <__aeabi_d2f>
 8005966:	6060      	str	r0, [r4, #4]
 8005968:	2401      	movs	r4, #1
 800596a:	4b0d      	ldr	r3, [pc, #52]	; (80059a0 <arm+0x58>)
 800596c:	4622      	mov	r2, r4
 800596e:	f44f 6180 	mov.w	r1, #1024	; 0x400
 8005972:	4628      	mov	r0, r5
 8005974:	701c      	strb	r4, [r3, #0]
 8005976:	f7fc fa4d 	bl	8001e14 <HAL_GPIO_WritePin>
 800597a:	4622      	mov	r2, r4
 800597c:	f44f 4100 	mov.w	r1, #32768	; 0x8000
 8005980:	4628      	mov	r0, r5
 8005982:	f7fc fa47 	bl	8001e14 <HAL_GPIO_WritePin>
 8005986:	4b07      	ldr	r3, [pc, #28]	; (80059a4 <arm+0x5c>)
 8005988:	881b      	ldrh	r3, [r3, #0]
 800598a:	bd38      	pop	{r3, r4, r5, pc}
 800598c:	f3af 8000 	nop.w
 8005990:	9999999a 	.word	0x9999999a
 8005994:	3fb99999 	.word	0x3fb99999
 8005998:	200002ac 	.word	0x200002ac
 800599c:	40010c00 	.word	0x40010c00
 80059a0:	200001ec 	.word	0x200001ec
 80059a4:	20000122 	.word	0x20000122

080059a8 <GetButtonNumberByValue>:
 80059a8:	2300      	movs	r3, #0
 80059aa:	b530      	push	{r4, r5, lr}
 80059ac:	4c08      	ldr	r4, [pc, #32]	; (80059d0 <GetButtonNumberByValue+0x28>)
 80059ae:	f834 2013 	ldrh.w	r2, [r4, r3, lsl #1]
 80059b2:	b2d9      	uxtb	r1, r3
 80059b4:	f102 0541 	add.w	r5, r2, #65	; 0x41
 80059b8:	42a8      	cmp	r0, r5
 80059ba:	dc02      	bgt.n	80059c2 <GetButtonNumberByValue+0x1a>
 80059bc:	3a41      	subs	r2, #65	; 0x41
 80059be:	4290      	cmp	r0, r2
 80059c0:	da03      	bge.n	80059ca <GetButtonNumberByValue+0x22>
 80059c2:	3301      	adds	r3, #1
 80059c4:	2b05      	cmp	r3, #5
 80059c6:	d1f2      	bne.n	80059ae <GetButtonNumberByValue+0x6>
 80059c8:	4619      	mov	r1, r3
 80059ca:	4608      	mov	r0, r1
 80059cc:	bd30      	pop	{r4, r5, pc}
 80059ce:	bf00      	nop
 80059d0:	0800826e 	.word	0x0800826e

080059d4 <readADC>:
 80059d4:	b538      	push	{r3, r4, r5, lr}
 80059d6:	4c10      	ldr	r4, [pc, #64]	; (8005a18 <readADC+0x44>)
 80059d8:	4d10      	ldr	r5, [pc, #64]	; (8005a1c <readADC+0x48>)
 80059da:	4620      	mov	r0, r4
 80059dc:	f7fb fde4 	bl	80015a8 <HAL_ADCEx_InjectedStart>
 80059e0:	2164      	movs	r1, #100	; 0x64
 80059e2:	4620      	mov	r0, r4
 80059e4:	f7fb fbfa 	bl	80011dc <HAL_ADC_PollForConversion>
 80059e8:	2101      	movs	r1, #1
 80059ea:	4620      	mov	r0, r4
 80059ec:	f7fb fe7c 	bl	80016e8 <HAL_ADCEx_InjectedGetValue>
 80059f0:	b280      	uxth	r0, r0
 80059f2:	8028      	strh	r0, [r5, #0]
 80059f4:	2102      	movs	r1, #2
 80059f6:	4620      	mov	r0, r4
 80059f8:	f7fb fe76 	bl	80016e8 <HAL_ADCEx_InjectedGetValue>
 80059fc:	b280      	uxth	r0, r0
 80059fe:	8068      	strh	r0, [r5, #2]
 8005a00:	2103      	movs	r1, #3
 8005a02:	4620      	mov	r0, r4
 8005a04:	f7fb fe70 	bl	80016e8 <HAL_ADCEx_InjectedGetValue>
 8005a08:	b280      	uxth	r0, r0
 8005a0a:	80a8      	strh	r0, [r5, #4]
 8005a0c:	4620      	mov	r0, r4
 8005a0e:	e8bd 4038 	ldmia.w	sp!, {r3, r4, r5, lr}
 8005a12:	f7fb be2f 	b.w	8001674 <HAL_ADCEx_InjectedStop>
 8005a16:	bf00      	nop
 8005a18:	20000278 	.word	0x20000278
 8005a1c:	200003a4 	.word	0x200003a4

08005a20 <readGPIO>:
 8005a20:	b508      	push	{r3, lr}
 8005a22:	2108      	movs	r1, #8
 8005a24:	4817      	ldr	r0, [pc, #92]	; (8005a84 <readGPIO+0x64>)
 8005a26:	f7fc f9e3 	bl	8001df0 <HAL_GPIO_ReadPin>
 8005a2a:	2801      	cmp	r0, #1
 8005a2c:	bf18      	it	ne
 8005a2e:	2200      	movne	r2, #0
 8005a30:	4b15      	ldr	r3, [pc, #84]	; (8005a88 <readGPIO+0x68>)
 8005a32:	f44f 7180 	mov.w	r1, #256	; 0x100
 8005a36:	bf08      	it	eq
 8005a38:	7018      	strbeq	r0, [r3, #0]
 8005a3a:	4812      	ldr	r0, [pc, #72]	; (8005a84 <readGPIO+0x64>)
 8005a3c:	bf18      	it	ne
 8005a3e:	701a      	strbne	r2, [r3, #0]
 8005a40:	f7fc f9d6 	bl	8001df0 <HAL_GPIO_ReadPin>
 8005a44:	2801      	cmp	r0, #1
 8005a46:	bf18      	it	ne
 8005a48:	2200      	movne	r2, #0
 8005a4a:	4b10      	ldr	r3, [pc, #64]	; (8005a8c <readGPIO+0x6c>)
 8005a4c:	f44f 4180 	mov.w	r1, #16384	; 0x4000
 8005a50:	bf08      	it	eq
 8005a52:	7018      	strbeq	r0, [r3, #0]
 8005a54:	480e      	ldr	r0, [pc, #56]	; (8005a90 <readGPIO+0x70>)
 8005a56:	bf18      	it	ne
 8005a58:	701a      	strbne	r2, [r3, #0]
 8005a5a:	f7fc f9c9 	bl	8001df0 <HAL_GPIO_ReadPin>
 8005a5e:	2801      	cmp	r0, #1
 8005a60:	bf14      	ite	ne
 8005a62:	2201      	movne	r2, #1
 8005a64:	2200      	moveq	r2, #0
 8005a66:	4b0b      	ldr	r3, [pc, #44]	; (8005a94 <readGPIO+0x74>)
 8005a68:	f44f 5180 	mov.w	r1, #4096	; 0x1000
 8005a6c:	4808      	ldr	r0, [pc, #32]	; (8005a90 <readGPIO+0x70>)
 8005a6e:	701a      	strb	r2, [r3, #0]
 8005a70:	f7fc f9be 	bl	8001df0 <HAL_GPIO_ReadPin>
 8005a74:	2801      	cmp	r0, #1
 8005a76:	bf18      	it	ne
 8005a78:	2200      	movne	r2, #0
 8005a7a:	4b07      	ldr	r3, [pc, #28]	; (8005a98 <readGPIO+0x78>)
 8005a7c:	bf0c      	ite	eq
 8005a7e:	7018      	strbeq	r0, [r3, #0]
 8005a80:	701a      	strbne	r2, [r3, #0]
 8005a82:	bd08      	pop	{r3, pc}
 8005a84:	40010800 	.word	0x40010800
 8005a88:	20000118 	.word	0x20000118
 8005a8c:	20000114 	.word	0x20000114
 8005a90:	40010c00 	.word	0x40010c00
 8005a94:	20000008 	.word	0x20000008
 8005a98:	20000115 	.word	0x20000115
 8005a9c:	00000000 	.word	0x00000000

08005aa0 <AdjustValue>:
 8005aa0:	2801      	cmp	r0, #1
 8005aa2:	b510      	push	{r4, lr}
 8005aa4:	d011      	beq.n	8005aca <AdjustValue+0x2a>
 8005aa6:	d302      	bcc.n	8005aae <AdjustValue+0xe>
 8005aa8:	2802      	cmp	r0, #2
 8005aaa:	d024      	beq.n	8005af6 <AdjustValue+0x56>
 8005aac:	bd10      	pop	{r4, pc}
 8005aae:	4c20      	ldr	r4, [pc, #128]	; (8005b30 <AdjustValue+0x90>)
 8005ab0:	69a0      	ldr	r0, [r4, #24]
 8005ab2:	b929      	cbnz	r1, 8005ac0 <AdjustValue+0x20>
 8005ab4:	f04f 517e 	mov.w	r1, #1065353216	; 0x3f800000
 8005ab8:	f7fb f830 	bl	8000b1c <__addsf3>
 8005abc:	61a0      	str	r0, [r4, #24]
 8005abe:	bd10      	pop	{r4, pc}
 8005ac0:	f04f 517e 	mov.w	r1, #1065353216	; 0x3f800000
 8005ac4:	f7fb f828 	bl	8000b18 <__aeabi_fsub>
 8005ac8:	e7f8      	b.n	8005abc <AdjustValue+0x1c>
 8005aca:	4c19      	ldr	r4, [pc, #100]	; (8005b30 <AdjustValue+0x90>)
 8005acc:	69e0      	ldr	r0, [r4, #28]
 8005ace:	b951      	cbnz	r1, 8005ae6 <AdjustValue+0x46>
 8005ad0:	f7fa fca2 	bl	8000418 <__aeabi_f2d>
 8005ad4:	a314      	add	r3, pc, #80	; (adr r3, 8005b28 <AdjustValue+0x88>)
 8005ad6:	e9d3 2300 	ldrd	r2, r3, [r3]
 8005ada:	f7fa fb3f 	bl	800015c <__adddf3>
 8005ade:	f7fa ffc7 	bl	8000a70 <__aeabi_d2f>
 8005ae2:	61e0      	str	r0, [r4, #28]
 8005ae4:	bd10      	pop	{r4, pc}
 8005ae6:	f7fa fc97 	bl	8000418 <__aeabi_f2d>
 8005aea:	a30f      	add	r3, pc, #60	; (adr r3, 8005b28 <AdjustValue+0x88>)
 8005aec:	e9d3 2300 	ldrd	r2, r3, [r3]
 8005af0:	f7fa fb32 	bl	8000158 <__aeabi_dsub>
 8005af4:	e7f3      	b.n	8005ade <AdjustValue+0x3e>
 8005af6:	4c0e      	ldr	r4, [pc, #56]	; (8005b30 <AdjustValue+0x90>)
 8005af8:	6a20      	ldr	r0, [r4, #32]
 8005afa:	b951      	cbnz	r1, 8005b12 <AdjustValue+0x72>
 8005afc:	f7fa fc8c 	bl	8000418 <__aeabi_f2d>
 8005b00:	a309      	add	r3, pc, #36	; (adr r3, 8005b28 <AdjustValue+0x88>)
 8005b02:	e9d3 2300 	ldrd	r2, r3, [r3]
 8005b06:	f7fa fb29 	bl	800015c <__adddf3>
 8005b0a:	f7fa ffb1 	bl	8000a70 <__aeabi_d2f>
 8005b0e:	6220      	str	r0, [r4, #32]
 8005b10:	bd10      	pop	{r4, pc}
 8005b12:	f7fa fc81 	bl	8000418 <__aeabi_f2d>
 8005b16:	a304      	add	r3, pc, #16	; (adr r3, 8005b28 <AdjustValue+0x88>)
 8005b18:	e9d3 2300 	ldrd	r2, r3, [r3]
 8005b1c:	f7fa fb1c 	bl	8000158 <__aeabi_dsub>
 8005b20:	e7f3      	b.n	8005b0a <AdjustValue+0x6a>
 8005b22:	bf00      	nop
 8005b24:	f3af 8000 	nop.w
 8005b28:	47ae147b 	.word	0x47ae147b
 8005b2c:	3f847ae1 	.word	0x3f847ae1
 8005b30:	200002c0 	.word	0x200002c0

08005b34 <ReadCruiseSwitch>:
 8005b34:	b538      	push	{r3, r4, r5, lr}
 8005b36:	4b5e      	ldr	r3, [pc, #376]	; (8005cb0 <ReadCruiseSwitch+0x17c>)
 8005b38:	4c5e      	ldr	r4, [pc, #376]	; (8005cb4 <ReadCruiseSwitch+0x180>)
 8005b3a:	8898      	ldrh	r0, [r3, #4]
 8005b3c:	b280      	uxth	r0, r0
 8005b3e:	f7ff ff33 	bl	80059a8 <GetButtonNumberByValue>
 8005b42:	4b5d      	ldr	r3, [pc, #372]	; (8005cb8 <ReadCruiseSwitch+0x184>)
 8005b44:	7018      	strb	r0, [r3, #0]
 8005b46:	7821      	ldrb	r1, [r4, #0]
 8005b48:	781a      	ldrb	r2, [r3, #0]
 8005b4a:	4291      	cmp	r1, r2
 8005b4c:	d108      	bne.n	8005b60 <ReadCruiseSwitch+0x2c>
 8005b4e:	781a      	ldrb	r2, [r3, #0]
 8005b50:	2a05      	cmp	r2, #5
 8005b52:	d005      	beq.n	8005b60 <ReadCruiseSwitch+0x2c>
 8005b54:	781a      	ldrb	r2, [r3, #0]
 8005b56:	4859      	ldr	r0, [pc, #356]	; (8005cbc <ReadCruiseSwitch+0x188>)
 8005b58:	b2d2      	uxtb	r2, r2
 8005b5a:	5c81      	ldrb	r1, [r0, r2]
 8005b5c:	3101      	adds	r1, #1
 8005b5e:	5481      	strb	r1, [r0, r2]
 8005b60:	7821      	ldrb	r1, [r4, #0]
 8005b62:	781a      	ldrb	r2, [r3, #0]
 8005b64:	4291      	cmp	r1, r2
 8005b66:	f000 809e 	beq.w	8005ca6 <ReadCruiseSwitch+0x172>
 8005b6a:	781a      	ldrb	r2, [r3, #0]
 8005b6c:	2a05      	cmp	r2, #5
 8005b6e:	f040 809a 	bne.w	8005ca6 <ReadCruiseSwitch+0x172>
 8005b72:	7822      	ldrb	r2, [r4, #0]
 8005b74:	2a05      	cmp	r2, #5
 8005b76:	d812      	bhi.n	8005b9e <ReadCruiseSwitch+0x6a>
 8005b78:	e8df f002 	tbb	[pc, r2]
 8005b7c:	78583203 	.word	0x78583203
 8005b80:	9511      	.short	0x9511
 8005b82:	7821      	ldrb	r1, [r4, #0]
 8005b84:	4d4d      	ldr	r5, [pc, #308]	; (8005cbc <ReadCruiseSwitch+0x188>)
 8005b86:	4a4e      	ldr	r2, [pc, #312]	; (8005cc0 <ReadCruiseSwitch+0x18c>)
 8005b88:	5c69      	ldrb	r1, [r5, r1]
 8005b8a:	2914      	cmp	r1, #20
 8005b8c:	d909      	bls.n	8005ba2 <ReadCruiseSwitch+0x6e>
 8005b8e:	7813      	ldrb	r3, [r2, #0]
 8005b90:	b90b      	cbnz	r3, 8005b96 <ReadCruiseSwitch+0x62>
 8005b92:	f7ff fe75 	bl	8005880 <SaveToEEPROM>
 8005b96:	2200      	movs	r2, #0
 8005b98:	7823      	ldrb	r3, [r4, #0]
 8005b9a:	b2db      	uxtb	r3, r3
 8005b9c:	54ea      	strb	r2, [r5, r3]
 8005b9e:	7820      	ldrb	r0, [r4, #0]
 8005ba0:	bd38      	pop	{r3, r4, r5, pc}
 8005ba2:	781b      	ldrb	r3, [r3, #0]
 8005ba4:	b2db      	uxtb	r3, r3
 8005ba6:	7023      	strb	r3, [r4, #0]
 8005ba8:	4b46      	ldr	r3, [pc, #280]	; (8005cc4 <ReadCruiseSwitch+0x190>)
 8005baa:	781b      	ldrb	r3, [r3, #0]
 8005bac:	b12b      	cbz	r3, 8005bba <ReadCruiseSwitch+0x86>
 8005bae:	7813      	ldrb	r3, [r2, #0]
 8005bb0:	2b01      	cmp	r3, #1
 8005bb2:	d108      	bne.n	8005bc6 <ReadCruiseSwitch+0x92>
 8005bb4:	f7ff fea8 	bl	8005908 <disarm>
 8005bb8:	e7f1      	b.n	8005b9e <ReadCruiseSwitch+0x6a>
 8005bba:	7813      	ldrb	r3, [r2, #0]
 8005bbc:	2b01      	cmp	r3, #1
 8005bbe:	d102      	bne.n	8005bc6 <ReadCruiseSwitch+0x92>
 8005bc0:	f7ff fec2 	bl	8005948 <arm>
 8005bc4:	e7eb      	b.n	8005b9e <ReadCruiseSwitch+0x6a>
 8005bc6:	7813      	ldrb	r3, [r2, #0]
 8005bc8:	f003 01ff 	and.w	r1, r3, #255	; 0xff
 8005bcc:	2b00      	cmp	r3, #0
 8005bce:	d1e6      	bne.n	8005b9e <ReadCruiseSwitch+0x6a>
 8005bd0:	4a3d      	ldr	r2, [pc, #244]	; (8005cc8 <ReadCruiseSwitch+0x194>)
 8005bd2:	7813      	ldrb	r3, [r2, #0]
 8005bd4:	2b02      	cmp	r3, #2
 8005bd6:	bf1a      	itte	ne
 8005bd8:	3301      	addne	r3, #1
 8005bda:	7013      	strbne	r3, [r2, #0]
 8005bdc:	7011      	strbeq	r1, [r2, #0]
 8005bde:	e7de      	b.n	8005b9e <ReadCruiseSwitch+0x6a>
 8005be0:	7822      	ldrb	r2, [r4, #0]
 8005be2:	4936      	ldr	r1, [pc, #216]	; (8005cbc <ReadCruiseSwitch+0x188>)
 8005be4:	5c8a      	ldrb	r2, [r1, r2]
 8005be6:	2a14      	cmp	r2, #20
 8005be8:	bf84      	itt	hi
 8005bea:	2000      	movhi	r0, #0
 8005bec:	7822      	ldrbhi	r2, [r4, #0]
 8005bee:	781b      	ldrb	r3, [r3, #0]
 8005bf0:	bf88      	it	hi
 8005bf2:	b2d2      	uxtbhi	r2, r2
 8005bf4:	b2db      	uxtb	r3, r3
 8005bf6:	7023      	strb	r3, [r4, #0]
 8005bf8:	4b32      	ldr	r3, [pc, #200]	; (8005cc4 <ReadCruiseSwitch+0x190>)
 8005bfa:	bf88      	it	hi
 8005bfc:	5488      	strbhi	r0, [r1, r2]
 8005bfe:	781a      	ldrb	r2, [r3, #0]
 8005c00:	4b2f      	ldr	r3, [pc, #188]	; (8005cc0 <ReadCruiseSwitch+0x18c>)
 8005c02:	b14a      	cbz	r2, 8005c18 <ReadCruiseSwitch+0xe4>
 8005c04:	781a      	ldrb	r2, [r3, #0]
 8005c06:	2a01      	cmp	r2, #1
 8005c08:	d106      	bne.n	8005c18 <ReadCruiseSwitch+0xe4>
 8005c0a:	4d30      	ldr	r5, [pc, #192]	; (8005ccc <ReadCruiseSwitch+0x198>)
 8005c0c:	4930      	ldr	r1, [pc, #192]	; (8005cd0 <ReadCruiseSwitch+0x19c>)
 8005c0e:	6868      	ldr	r0, [r5, #4]
 8005c10:	f7fa ff84 	bl	8000b1c <__addsf3>
 8005c14:	6068      	str	r0, [r5, #4]
 8005c16:	e7c2      	b.n	8005b9e <ReadCruiseSwitch+0x6a>
 8005c18:	781b      	ldrb	r3, [r3, #0]
 8005c1a:	f003 01ff 	and.w	r1, r3, #255	; 0xff
 8005c1e:	2b00      	cmp	r3, #0
 8005c20:	d1bd      	bne.n	8005b9e <ReadCruiseSwitch+0x6a>
 8005c22:	4b29      	ldr	r3, [pc, #164]	; (8005cc8 <ReadCruiseSwitch+0x194>)
 8005c24:	7818      	ldrb	r0, [r3, #0]
 8005c26:	f7ff ff3b 	bl	8005aa0 <AdjustValue>
 8005c2a:	e7b8      	b.n	8005b9e <ReadCruiseSwitch+0x6a>
 8005c2c:	7822      	ldrb	r2, [r4, #0]
 8005c2e:	4923      	ldr	r1, [pc, #140]	; (8005cbc <ReadCruiseSwitch+0x188>)
 8005c30:	5c8a      	ldrb	r2, [r1, r2]
 8005c32:	2a14      	cmp	r2, #20
 8005c34:	bf84      	itt	hi
 8005c36:	2000      	movhi	r0, #0
 8005c38:	7822      	ldrbhi	r2, [r4, #0]
 8005c3a:	781b      	ldrb	r3, [r3, #0]
 8005c3c:	bf88      	it	hi
 8005c3e:	b2d2      	uxtbhi	r2, r2
 8005c40:	b2db      	uxtb	r3, r3
 8005c42:	7023      	strb	r3, [r4, #0]
 8005c44:	4b1f      	ldr	r3, [pc, #124]	; (8005cc4 <ReadCruiseSwitch+0x190>)
 8005c46:	bf88      	it	hi
 8005c48:	5488      	strbhi	r0, [r1, r2]
 8005c4a:	781a      	ldrb	r2, [r3, #0]
 8005c4c:	4b1c      	ldr	r3, [pc, #112]	; (8005cc0 <ReadCruiseSwitch+0x18c>)
 8005c4e:	b142      	cbz	r2, 8005c62 <ReadCruiseSwitch+0x12e>
 8005c50:	781a      	ldrb	r2, [r3, #0]
 8005c52:	2a01      	cmp	r2, #1
 8005c54:	d105      	bne.n	8005c62 <ReadCruiseSwitch+0x12e>
 8005c56:	4d1d      	ldr	r5, [pc, #116]	; (8005ccc <ReadCruiseSwitch+0x198>)
 8005c58:	491d      	ldr	r1, [pc, #116]	; (8005cd0 <ReadCruiseSwitch+0x19c>)
 8005c5a:	6868      	ldr	r0, [r5, #4]
 8005c5c:	f7fa ff5c 	bl	8000b18 <__aeabi_fsub>
 8005c60:	e7d8      	b.n	8005c14 <ReadCruiseSwitch+0xe0>
 8005c62:	781b      	ldrb	r3, [r3, #0]
 8005c64:	2b00      	cmp	r3, #0
 8005c66:	d19a      	bne.n	8005b9e <ReadCruiseSwitch+0x6a>
 8005c68:	2101      	movs	r1, #1
 8005c6a:	e7da      	b.n	8005c22 <ReadCruiseSwitch+0xee>
 8005c6c:	7821      	ldrb	r1, [r4, #0]
 8005c6e:	4a13      	ldr	r2, [pc, #76]	; (8005cbc <ReadCruiseSwitch+0x188>)
 8005c70:	5c51      	ldrb	r1, [r2, r1]
 8005c72:	2914      	cmp	r1, #20
 8005c74:	d904      	bls.n	8005c80 <ReadCruiseSwitch+0x14c>
 8005c76:	2100      	movs	r1, #0
 8005c78:	7823      	ldrb	r3, [r4, #0]
 8005c7a:	b2db      	uxtb	r3, r3
 8005c7c:	54d1      	strb	r1, [r2, r3]
 8005c7e:	e78e      	b.n	8005b9e <ReadCruiseSwitch+0x6a>
 8005c80:	781b      	ldrb	r3, [r3, #0]
 8005c82:	4a0f      	ldr	r2, [pc, #60]	; (8005cc0 <ReadCruiseSwitch+0x18c>)
 8005c84:	b2db      	uxtb	r3, r3
 8005c86:	7023      	strb	r3, [r4, #0]
 8005c88:	7813      	ldrb	r3, [r2, #0]
 8005c8a:	f44f 5100 	mov.w	r1, #8192	; 0x2000
 8005c8e:	3301      	adds	r3, #1
 8005c90:	b2db      	uxtb	r3, r3
 8005c92:	7013      	strb	r3, [r2, #0]
 8005c94:	7813      	ldrb	r3, [r2, #0]
 8005c96:	480f      	ldr	r0, [pc, #60]	; (8005cd4 <ReadCruiseSwitch+0x1a0>)
 8005c98:	2b02      	cmp	r3, #2
 8005c9a:	bf04      	itt	eq
 8005c9c:	2300      	moveq	r3, #0
 8005c9e:	7013      	strbeq	r3, [r2, #0]
 8005ca0:	f7fc f8d2 	bl	8001e48 <HAL_GPIO_TogglePin>
 8005ca4:	e77b      	b.n	8005b9e <ReadCruiseSwitch+0x6a>
 8005ca6:	781b      	ldrb	r3, [r3, #0]
 8005ca8:	b2db      	uxtb	r3, r3
 8005caa:	7023      	strb	r3, [r4, #0]
 8005cac:	e777      	b.n	8005b9e <ReadCruiseSwitch+0x6a>
 8005cae:	bf00      	nop
 8005cb0:	200003a4 	.word	0x200003a4
 8005cb4:	2000000a 	.word	0x2000000a
 8005cb8:	20000009 	.word	0x20000009
 8005cbc:	20000268 	.word	0x20000268
 8005cc0:	2000000b 	.word	0x2000000b
 8005cc4:	200001ec 	.word	0x200001ec
 8005cc8:	20000116 	.word	0x20000116
 8005ccc:	200002ac 	.word	0x200002ac
 8005cd0:	41200000 	.word	0x41200000
 8005cd4:	40011000 	.word	0x40011000

08005cd8 <HAL_GPIO_EXTI_Callback>:
 8005cd8:	f5b0 6f00 	cmp.w	r0, #2048	; 0x800
 8005cdc:	d105      	bne.n	8005cea <HAL_GPIO_EXTI_Callback+0x12>
 8005cde:	4a04      	ldr	r2, [pc, #16]	; (8005cf0 <HAL_GPIO_EXTI_Callback+0x18>)
 8005ce0:	8813      	ldrh	r3, [r2, #0]
 8005ce2:	3301      	adds	r3, #1
 8005ce4:	b29b      	uxth	r3, r3
 8005ce6:	8013      	strh	r3, [r2, #0]
 8005ce8:	4770      	bx	lr
 8005cea:	bf00      	nop
 8005cec:	4770      	bx	lr
 8005cee:	bf00      	nop
 8005cf0:	20000124 	.word	0x20000124

08005cf4 <CalculateSPEED>:
 8005cf4:	b5f8      	push	{r3, r4, r5, r6, r7, lr}
 8005cf6:	4c17      	ldr	r4, [pc, #92]	; (8005d54 <CalculateSPEED+0x60>)
 8005cf8:	8a63      	ldrh	r3, [r4, #18]
 8005cfa:	68e0      	ldr	r0, [r4, #12]
 8005cfc:	4626      	mov	r6, r4
 8005cfe:	fbb0 f0f3 	udiv	r0, r0, r3
 8005d02:	f7fa ffbb 	bl	8000c7c <__aeabi_ui2f>
 8005d06:	2300      	movs	r3, #0
 8005d08:	60a0      	str	r0, [r4, #8]
 8005d0a:	60e3      	str	r3, [r4, #12]
 8005d0c:	8263      	strh	r3, [r4, #18]
 8005d0e:	4912      	ldr	r1, [pc, #72]	; (8005d58 <CalculateSPEED+0x64>)
 8005d10:	4605      	mov	r5, r0
 8005d12:	f7fb f9c7 	bl	80010a4 <__aeabi_fcmpgt>
 8005d16:	b928      	cbnz	r0, 8005d24 <CalculateSPEED+0x30>
 8005d18:	4910      	ldr	r1, [pc, #64]	; (8005d5c <CalculateSPEED+0x68>)
 8005d1a:	4628      	mov	r0, r5
 8005d1c:	f7fb f9a4 	bl	8001068 <__aeabi_fcmplt>
 8005d20:	4607      	mov	r7, r0
 8005d22:	b128      	cbz	r0, 8005d30 <CalculateSPEED+0x3c>
 8005d24:	2301      	movs	r3, #1
 8005d26:	7433      	strb	r3, [r6, #16]
 8005d28:	2300      	movs	r3, #0
 8005d2a:	60b3      	str	r3, [r6, #8]
 8005d2c:	6033      	str	r3, [r6, #0]
 8005d2e:	bdf8      	pop	{r3, r4, r5, r6, r7, pc}
 8005d30:	4628      	mov	r0, r5
 8005d32:	f7fa fb71 	bl	8000418 <__aeabi_f2d>
 8005d36:	2200      	movs	r2, #0
 8005d38:	4b09      	ldr	r3, [pc, #36]	; (8005d60 <CalculateSPEED+0x6c>)
 8005d3a:	f7fa fceb 	bl	8000714 <__aeabi_ddiv>
 8005d3e:	4602      	mov	r2, r0
 8005d40:	460b      	mov	r3, r1
 8005d42:	2000      	movs	r0, #0
 8005d44:	4907      	ldr	r1, [pc, #28]	; (8005d64 <CalculateSPEED+0x70>)
 8005d46:	f7fa fce5 	bl	8000714 <__aeabi_ddiv>
 8005d4a:	f7fa fe91 	bl	8000a70 <__aeabi_d2f>
 8005d4e:	7427      	strb	r7, [r4, #16]
 8005d50:	6020      	str	r0, [r4, #0]
 8005d52:	bdf8      	pop	{r3, r4, r5, r6, r7, pc}
 8005d54:	200002ac 	.word	0x200002ac
 8005d58:	48927c00 	.word	0x48927c00
 8005d5c:	447a0000 	.word	0x447a0000
 8005d60:	408f4000 	.word	0x408f4000
 8005d64:	4082c000 	.word	0x4082c000

08005d68 <CalculateRPM>:
 8005d68:	4908      	ldr	r1, [pc, #32]	; (8005d8c <CalculateRPM+0x24>)
 8005d6a:	880b      	ldrh	r3, [r1, #0]
 8005d6c:	b29b      	uxth	r3, r3
 8005d6e:	2b0a      	cmp	r3, #10
 8005d70:	d10b      	bne.n	8005d8a <CalculateRPM+0x22>
 8005d72:	4a07      	ldr	r2, [pc, #28]	; (8005d90 <CalculateRPM+0x28>)
 8005d74:	4807      	ldr	r0, [pc, #28]	; (8005d94 <CalculateRPM+0x2c>)
 8005d76:	8813      	ldrh	r3, [r2, #0]
 8005d78:	b29b      	uxth	r3, r3
 8005d7a:	eb03 0383 	add.w	r3, r3, r3, lsl #2
 8005d7e:	00db      	lsls	r3, r3, #3
 8005d80:	b29b      	uxth	r3, r3
 8005d82:	8003      	strh	r3, [r0, #0]
 8005d84:	2300      	movs	r3, #0
 8005d86:	800b      	strh	r3, [r1, #0]
 8005d88:	8013      	strh	r3, [r2, #0]
 8005d8a:	4770      	bx	lr
 8005d8c:	2000026c 	.word	0x2000026c
 8005d90:	20000124 	.word	0x20000124
 8005d94:	20000122 	.word	0x20000122

08005d98 <HAL_TIM_PeriodElapsedCallback>:
 8005d98:	6802      	ldr	r2, [r0, #0]
 8005d9a:	4b3c      	ldr	r3, [pc, #240]	; (8005e8c <HAL_TIM_PeriodElapsedCallback+0xf4>)
 8005d9c:	e92d 47f0 	stmdb	sp!, {r4, r5, r6, r7, r8, r9, sl, lr}
 8005da0:	429a      	cmp	r2, r3
 8005da2:	4606      	mov	r6, r0
 8005da4:	d15e      	bne.n	8005e64 <HAL_TIM_PeriodElapsedCallback+0xcc>
 8005da6:	f7ff fe3b 	bl	8005a20 <readGPIO>
 8005daa:	4b39      	ldr	r3, [pc, #228]	; (8005e90 <HAL_TIM_PeriodElapsedCallback+0xf8>)
 8005dac:	4c39      	ldr	r4, [pc, #228]	; (8005e94 <HAL_TIM_PeriodElapsedCallback+0xfc>)
 8005dae:	881b      	ldrh	r3, [r3, #0]
 8005db0:	f7ff fe10 	bl	80059d4 <readADC>
 8005db4:	f7ff febe 	bl	8005b34 <ReadCruiseSwitch>
 8005db8:	4a37      	ldr	r2, [pc, #220]	; (8005e98 <HAL_TIM_PeriodElapsedCallback+0x100>)
 8005dba:	8813      	ldrh	r3, [r2, #0]
 8005dbc:	3301      	adds	r3, #1
 8005dbe:	b29b      	uxth	r3, r3
 8005dc0:	8013      	strh	r3, [r2, #0]
 8005dc2:	4a36      	ldr	r2, [pc, #216]	; (8005e9c <HAL_TIM_PeriodElapsedCallback+0x104>)
 8005dc4:	8813      	ldrh	r3, [r2, #0]
 8005dc6:	3301      	adds	r3, #1
 8005dc8:	b29b      	uxth	r3, r3
 8005dca:	8013      	strh	r3, [r2, #0]
 8005dcc:	7d23      	ldrb	r3, [r4, #20]
 8005dce:	7822      	ldrb	r2, [r4, #0]
 8005dd0:	3301      	adds	r3, #1
 8005dd2:	b2db      	uxtb	r3, r3
 8005dd4:	7523      	strb	r3, [r4, #20]
 8005dd6:	2a00      	cmp	r2, #0
 8005dd8:	d042      	beq.n	8005e60 <HAL_TIM_PeriodElapsedCallback+0xc8>
 8005dda:	2b05      	cmp	r3, #5
 8005ddc:	d140      	bne.n	8005e60 <HAL_TIM_PeriodElapsedCallback+0xc8>
 8005dde:	2700      	movs	r7, #0
 8005de0:	7527      	strb	r7, [r4, #20]
 8005de2:	f7ff ff87 	bl	8005cf4 <CalculateSPEED>
 8005de6:	4b2e      	ldr	r3, [pc, #184]	; (8005ea0 <HAL_TIM_PeriodElapsedCallback+0x108>)
 8005de8:	4d2e      	ldr	r5, [pc, #184]	; (8005ea4 <HAL_TIM_PeriodElapsedCallback+0x10c>)
 8005dea:	6859      	ldr	r1, [r3, #4]
 8005dec:	6818      	ldr	r0, [r3, #0]
 8005dee:	f7fa fe93 	bl	8000b18 <__aeabi_fsub>
 8005df2:	4b2d      	ldr	r3, [pc, #180]	; (8005ea8 <HAL_TIM_PeriodElapsedCallback+0x110>)
 8005df4:	6829      	ldr	r1, [r5, #0]
 8005df6:	6018      	str	r0, [r3, #0]
 8005df8:	f8d3 8000 	ldr.w	r8, [r3]
 8005dfc:	f8d5 900c 	ldr.w	r9, [r5, #12]
 8005e00:	4640      	mov	r0, r8
 8005e02:	f7fa ff93 	bl	8000d2c <__aeabi_fmul>
 8005e06:	6869      	ldr	r1, [r5, #4]
 8005e08:	4682      	mov	sl, r0
 8005e0a:	4648      	mov	r0, r9
 8005e0c:	f7fa ff8e 	bl	8000d2c <__aeabi_fmul>
 8005e10:	4601      	mov	r1, r0
 8005e12:	4650      	mov	r0, sl
 8005e14:	f7fa fe82 	bl	8000b1c <__addsf3>
 8005e18:	6929      	ldr	r1, [r5, #16]
 8005e1a:	4682      	mov	sl, r0
 8005e1c:	68a8      	ldr	r0, [r5, #8]
 8005e1e:	f7fa ff85 	bl	8000d2c <__aeabi_fmul>
 8005e22:	4601      	mov	r1, r0
 8005e24:	4650      	mov	r0, sl
 8005e26:	f7fa fe79 	bl	8000b1c <__addsf3>
 8005e2a:	6969      	ldr	r1, [r5, #20]
 8005e2c:	f7fa fe76 	bl	8000b1c <__addsf3>
 8005e30:	f8c5 9010 	str.w	r9, [r5, #16]
 8005e34:	f8c5 800c 	str.w	r8, [r5, #12]
 8005e38:	6168      	str	r0, [r5, #20]
 8005e3a:	f7fb f93d 	bl	80010b8 <__aeabi_f2iz>
 8005e3e:	42b8      	cmp	r0, r7
 8005e40:	6120      	str	r0, [r4, #16]
 8005e42:	d11a      	bne.n	8005e7a <HAL_TIM_PeriodElapsedCallback+0xe2>
 8005e44:	2302      	movs	r3, #2
 8005e46:	7320      	strb	r0, [r4, #12]
 8005e48:	7363      	strb	r3, [r4, #13]
 8005e4a:	f994 300c 	ldrsb.w	r3, [r4, #12]
 8005e4e:	2b14      	cmp	r3, #20
 8005e50:	bfc4      	itt	gt
 8005e52:	2314      	movgt	r3, #20
 8005e54:	7323      	strbgt	r3, [r4, #12]
 8005e56:	2301      	movs	r3, #1
 8005e58:	7063      	strb	r3, [r4, #1]
 8005e5a:	f7fb f9b9 	bl	80011d0 <HAL_GetTick>
 8005e5e:	6060      	str	r0, [r4, #4]
 8005e60:	f7ff ff82 	bl	8005d68 <CalculateRPM>
 8005e64:	6832      	ldr	r2, [r6, #0]
 8005e66:	4b11      	ldr	r3, [pc, #68]	; (8005eac <HAL_TIM_PeriodElapsedCallback+0x114>)
 8005e68:	429a      	cmp	r2, r3
 8005e6a:	d104      	bne.n	8005e76 <HAL_TIM_PeriodElapsedCallback+0xde>
 8005e6c:	2201      	movs	r2, #1
 8005e6e:	4b0c      	ldr	r3, [pc, #48]	; (8005ea0 <HAL_TIM_PeriodElapsedCallback+0x108>)
 8005e70:	741a      	strb	r2, [r3, #16]
 8005e72:	2200      	movs	r2, #0
 8005e74:	60da      	str	r2, [r3, #12]
 8005e76:	e8bd 87f0 	ldmia.w	sp!, {r4, r5, r6, r7, r8, r9, sl, pc}
 8005e7a:	da03      	bge.n	8005e84 <HAL_TIM_PeriodElapsedCallback+0xec>
 8005e7c:	4240      	negs	r0, r0
 8005e7e:	7320      	strb	r0, [r4, #12]
 8005e80:	2301      	movs	r3, #1
 8005e82:	e7e1      	b.n	8005e48 <HAL_TIM_PeriodElapsedCallback+0xb0>
 8005e84:	7320      	strb	r0, [r4, #12]
 8005e86:	7367      	strb	r7, [r4, #13]
 8005e88:	e7df      	b.n	8005e4a <HAL_TIM_PeriodElapsedCallback+0xb2>
 8005e8a:	bf00      	nop
 8005e8c:	40012c00 	.word	0x40012c00
 8005e90:	20000122 	.word	0x20000122
 8005e94:	200001ec 	.word	0x200001ec
 8005e98:	20000126 	.word	0x20000126
 8005e9c:	2000026c 	.word	0x2000026c
 8005ea0:	200002ac 	.word	0x200002ac
 8005ea4:	200002c0 	.word	0x200002c0
 8005ea8:	200001e8 	.word	0x200001e8
 8005eac:	40000400 	.word	0x40000400

08005eb0 <HAL_TIM_IC_CaptureCallback>:
 8005eb0:	b508      	push	{r3, lr}
 8005eb2:	7f03      	ldrb	r3, [r0, #28]
 8005eb4:	2b01      	cmp	r3, #1
 8005eb6:	d104      	bne.n	8005ec2 <HAL_TIM_IC_CaptureCallback+0x12>
 8005eb8:	2200      	movs	r2, #0
 8005eba:	4b0b      	ldr	r3, [pc, #44]	; (8005ee8 <HAL_TIM_IC_CaptureCallback+0x38>)
 8005ebc:	681b      	ldr	r3, [r3, #0]
 8005ebe:	625a      	str	r2, [r3, #36]	; 0x24
 8005ec0:	bd08      	pop	{r3, pc}
 8005ec2:	2b02      	cmp	r3, #2
 8005ec4:	d10e      	bne.n	8005ee4 <HAL_TIM_IC_CaptureCallback+0x34>
 8005ec6:	2104      	movs	r1, #4
 8005ec8:	f7fd ff66 	bl	8003d98 <HAL_TIM_ReadCapturedValue>
 8005ecc:	4b07      	ldr	r3, [pc, #28]	; (8005eec <HAL_TIM_IC_CaptureCallback+0x3c>)
 8005ece:	6018      	str	r0, [r3, #0]
 8005ed0:	200a      	movs	r0, #10
 8005ed2:	681a      	ldr	r2, [r3, #0]
 8005ed4:	4b06      	ldr	r3, [pc, #24]	; (8005ef0 <HAL_TIM_IC_CaptureCallback+0x40>)
 8005ed6:	68d9      	ldr	r1, [r3, #12]
 8005ed8:	fb00 1202 	mla	r2, r0, r2, r1
 8005edc:	60da      	str	r2, [r3, #12]
 8005ede:	8a5a      	ldrh	r2, [r3, #18]
 8005ee0:	3201      	adds	r2, #1
 8005ee2:	825a      	strh	r2, [r3, #18]
 8005ee4:	bd08      	pop	{r3, pc}
 8005ee6:	bf00      	nop
 8005ee8:	20000324 	.word	0x20000324
 8005eec:	20000258 	.word	0x20000258
 8005ef0:	200002ac 	.word	0x200002ac
 8005ef4:	00000000 	.word	0x00000000

08005ef8 <showpage>:
 8005ef8:	e92d 43f0 	stmdb	sp!, {r4, r5, r6, r7, r8, r9, lr}
 8005efc:	b085      	sub	sp, #20
 8005efe:	b120      	cbz	r0, 8005f0a <showpage+0x12>
 8005f00:	2801      	cmp	r0, #1
 8005f02:	d04f      	beq.n	8005fa4 <showpage+0xac>
 8005f04:	b005      	add	sp, #20
 8005f06:	e8bd 83f0 	ldmia.w	sp!, {r4, r5, r6, r7, r8, r9, pc}
 8005f0a:	4895      	ldr	r0, [pc, #596]	; (8006160 <showpage+0x268>)
 8005f0c:	f7fe fdad 	bl	8004a6a <u8g2_FirstPage>
 8005f10:	4c93      	ldr	r4, [pc, #588]	; (8006160 <showpage+0x268>)
 8005f12:	4994      	ldr	r1, [pc, #592]	; (8006164 <showpage+0x26c>)
 8005f14:	4620      	mov	r0, r4
 8005f16:	f7ff f85f 	bl	8004fd8 <u8g2_SetFont>
 8005f1a:	4b93      	ldr	r3, [pc, #588]	; (8006168 <showpage+0x270>)
 8005f1c:	2208      	movs	r2, #8
 8005f1e:	2100      	movs	r1, #0
 8005f20:	4620      	mov	r0, r4
 8005f22:	f7ff f81f 	bl	8004f64 <u8g2_DrawStr>
 8005f26:	4b91      	ldr	r3, [pc, #580]	; (800616c <showpage+0x274>)
 8005f28:	2210      	movs	r2, #16
 8005f2a:	2100      	movs	r1, #0
 8005f2c:	4620      	mov	r0, r4
 8005f2e:	f7ff f819 	bl	8004f64 <u8g2_DrawStr>
 8005f32:	4b8f      	ldr	r3, [pc, #572]	; (8006170 <showpage+0x278>)
 8005f34:	2218      	movs	r2, #24
 8005f36:	2100      	movs	r1, #0
 8005f38:	4620      	mov	r0, r4
 8005f3a:	f7ff f813 	bl	8004f64 <u8g2_DrawStr>
 8005f3e:	4b8d      	ldr	r3, [pc, #564]	; (8006174 <showpage+0x27c>)
 8005f40:	4d8d      	ldr	r5, [pc, #564]	; (8006178 <showpage+0x280>)
 8005f42:	781a      	ldrb	r2, [r3, #0]
 8005f44:	2109      	movs	r1, #9
 8005f46:	3201      	adds	r2, #1
 8005f48:	00d2      	lsls	r2, r2, #3
 8005f4a:	4b8c      	ldr	r3, [pc, #560]	; (800617c <showpage+0x284>)
 8005f4c:	f002 02f8 	and.w	r2, r2, #248	; 0xf8
 8005f50:	4620      	mov	r0, r4
 8005f52:	f7ff f807 	bl	8004f64 <u8g2_DrawStr>
 8005f56:	2203      	movs	r2, #3
 8005f58:	a902      	add	r1, sp, #8
 8005f5a:	69a8      	ldr	r0, [r5, #24]
 8005f5c:	f7ff fc58 	bl	8005810 <ftoa>
 8005f60:	ab02      	add	r3, sp, #8
 8005f62:	2208      	movs	r2, #8
 8005f64:	211b      	movs	r1, #27
 8005f66:	4620      	mov	r0, r4
 8005f68:	f7fe fffc 	bl	8004f64 <u8g2_DrawStr>
 8005f6c:	2203      	movs	r2, #3
 8005f6e:	a902      	add	r1, sp, #8
 8005f70:	69e8      	ldr	r0, [r5, #28]
 8005f72:	f7ff fc4d 	bl	8005810 <ftoa>
 8005f76:	ab02      	add	r3, sp, #8
 8005f78:	2210      	movs	r2, #16
 8005f7a:	211b      	movs	r1, #27
 8005f7c:	4620      	mov	r0, r4
 8005f7e:	f7fe fff1 	bl	8004f64 <u8g2_DrawStr>
 8005f82:	2203      	movs	r2, #3
 8005f84:	a902      	add	r1, sp, #8
 8005f86:	6a28      	ldr	r0, [r5, #32]
 8005f88:	f7ff fc42 	bl	8005810 <ftoa>
 8005f8c:	ab02      	add	r3, sp, #8
 8005f8e:	2218      	movs	r2, #24
 8005f90:	211b      	movs	r1, #27
 8005f92:	4620      	mov	r0, r4
 8005f94:	f7fe ffe6 	bl	8004f64 <u8g2_DrawStr>
 8005f98:	4620      	mov	r0, r4
 8005f9a:	f7fe fd73 	bl	8004a84 <u8g2_NextPage>
 8005f9e:	2800      	cmp	r0, #0
 8005fa0:	d1b7      	bne.n	8005f12 <showpage+0x1a>
 8005fa2:	e7af      	b.n	8005f04 <showpage+0xc>
 8005fa4:	2200      	movs	r2, #0
 8005fa6:	f20f 19b0 	addw	r9, pc, #432	; 0x1b0
 8005faa:	e9d9 8900 	ldrd	r8, r9, [r9]
 8005fae:	4b74      	ldr	r3, [pc, #464]	; (8006180 <showpage+0x288>)
 8005fb0:	486b      	ldr	r0, [pc, #428]	; (8006160 <showpage+0x268>)
 8005fb2:	701a      	strb	r2, [r3, #0]
 8005fb4:	2508      	movs	r5, #8
 8005fb6:	f7fe fd58 	bl	8004a6a <u8g2_FirstPage>
 8005fba:	270a      	movs	r7, #10
 8005fbc:	4c68      	ldr	r4, [pc, #416]	; (8006160 <showpage+0x268>)
 8005fbe:	4969      	ldr	r1, [pc, #420]	; (8006164 <showpage+0x26c>)
 8005fc0:	4620      	mov	r0, r4
 8005fc2:	f7ff f809 	bl	8004fd8 <u8g2_SetFont>
 8005fc6:	4b6f      	ldr	r3, [pc, #444]	; (8006184 <showpage+0x28c>)
 8005fc8:	2208      	movs	r2, #8
 8005fca:	2100      	movs	r1, #0
 8005fcc:	4620      	mov	r0, r4
 8005fce:	f7fe ffc9 	bl	8004f64 <u8g2_DrawStr>
 8005fd2:	4b6d      	ldr	r3, [pc, #436]	; (8006188 <showpage+0x290>)
 8005fd4:	2210      	movs	r2, #16
 8005fd6:	2100      	movs	r1, #0
 8005fd8:	4620      	mov	r0, r4
 8005fda:	f7fe ffc3 	bl	8004f64 <u8g2_DrawStr>
 8005fde:	4b6b      	ldr	r3, [pc, #428]	; (800618c <showpage+0x294>)
 8005fe0:	2218      	movs	r2, #24
 8005fe2:	2100      	movs	r1, #0
 8005fe4:	4620      	mov	r0, r4
 8005fe6:	f7fe ffbd 	bl	8004f64 <u8g2_DrawStr>
 8005fea:	4b69      	ldr	r3, [pc, #420]	; (8006190 <showpage+0x298>)
 8005fec:	2220      	movs	r2, #32
 8005fee:	2100      	movs	r1, #0
 8005ff0:	4620      	mov	r0, r4
 8005ff2:	f7fe ffb7 	bl	8004f64 <u8g2_DrawStr>
 8005ff6:	4b67      	ldr	r3, [pc, #412]	; (8006194 <showpage+0x29c>)
 8005ff8:	2228      	movs	r2, #40	; 0x28
 8005ffa:	2100      	movs	r1, #0
 8005ffc:	4620      	mov	r0, r4
 8005ffe:	f7fe ffb1 	bl	8004f64 <u8g2_DrawStr>
 8006002:	4b65      	ldr	r3, [pc, #404]	; (8006198 <showpage+0x2a0>)
 8006004:	2230      	movs	r2, #48	; 0x30
 8006006:	2100      	movs	r1, #0
 8006008:	4620      	mov	r0, r4
 800600a:	f7fe ffab 	bl	8004f64 <u8g2_DrawStr>
 800600e:	4b63      	ldr	r3, [pc, #396]	; (800619c <showpage+0x2a4>)
 8006010:	2238      	movs	r2, #56	; 0x38
 8006012:	2100      	movs	r1, #0
 8006014:	4620      	mov	r0, r4
 8006016:	f7fe ffa5 	bl	8004f64 <u8g2_DrawStr>
 800601a:	4b61      	ldr	r3, [pc, #388]	; (80061a0 <showpage+0x2a8>)
 800601c:	2240      	movs	r2, #64	; 0x40
 800601e:	2100      	movs	r1, #0
 8006020:	4620      	mov	r0, r4
 8006022:	f7fe ff9f 	bl	8004f64 <u8g2_DrawStr>
 8006026:	4b5f      	ldr	r3, [pc, #380]	; (80061a4 <showpage+0x2ac>)
 8006028:	2230      	movs	r2, #48	; 0x30
 800602a:	212d      	movs	r1, #45	; 0x2d
 800602c:	4620      	mov	r0, r4
 800602e:	f7fe ff99 	bl	8004f64 <u8g2_DrawStr>
 8006032:	4b5d      	ldr	r3, [pc, #372]	; (80061a8 <showpage+0x2b0>)
 8006034:	220a      	movs	r2, #10
 8006036:	a902      	add	r1, sp, #8
 8006038:	6918      	ldr	r0, [r3, #16]
 800603a:	4e5c      	ldr	r6, [pc, #368]	; (80061ac <showpage+0x2b4>)
 800603c:	f000 fd6c 	bl	8006b18 <itoa>
 8006040:	ab02      	add	r3, sp, #8
 8006042:	2208      	movs	r2, #8
 8006044:	211b      	movs	r1, #27
 8006046:	4620      	mov	r0, r4
 8006048:	f7fe ff8c 	bl	8004f64 <u8g2_DrawStr>
 800604c:	6830      	ldr	r0, [r6, #0]
 800604e:	f7fa f9e3 	bl	8000418 <__aeabi_f2d>
 8006052:	464b      	mov	r3, r9
 8006054:	4642      	mov	r2, r8
 8006056:	f7fa f881 	bl	800015c <__adddf3>
 800605a:	f7fa fce1 	bl	8000a20 <__aeabi_d2iz>
 800605e:	220a      	movs	r2, #10
 8006060:	a902      	add	r1, sp, #8
 8006062:	f000 fd59 	bl	8006b18 <itoa>
 8006066:	ab02      	add	r3, sp, #8
 8006068:	2210      	movs	r2, #16
 800606a:	211b      	movs	r1, #27
 800606c:	4620      	mov	r0, r4
 800606e:	f7fe ff79 	bl	8004f64 <u8g2_DrawStr>
 8006072:	6870      	ldr	r0, [r6, #4]
 8006074:	f7fb f820 	bl	80010b8 <__aeabi_f2iz>
 8006078:	220a      	movs	r2, #10
 800607a:	a902      	add	r1, sp, #8
 800607c:	f000 fd4c 	bl	8006b18 <itoa>
 8006080:	ab02      	add	r3, sp, #8
 8006082:	2218      	movs	r2, #24
 8006084:	211b      	movs	r1, #27
 8006086:	4620      	mov	r0, r4
 8006088:	f7fe ff6c 	bl	8004f64 <u8g2_DrawStr>
 800608c:	4b48      	ldr	r3, [pc, #288]	; (80061b0 <showpage+0x2b8>)
 800608e:	220a      	movs	r2, #10
 8006090:	6818      	ldr	r0, [r3, #0]
 8006092:	a902      	add	r1, sp, #8
 8006094:	4378      	muls	r0, r7
 8006096:	f000 fd3f 	bl	8006b18 <itoa>
 800609a:	ab02      	add	r3, sp, #8
 800609c:	2220      	movs	r2, #32
 800609e:	211b      	movs	r1, #27
 80060a0:	4620      	mov	r0, r4
 80060a2:	f7fe ff5f 	bl	8004f64 <u8g2_DrawStr>
 80060a6:	4b43      	ldr	r3, [pc, #268]	; (80061b4 <showpage+0x2bc>)
 80060a8:	220a      	movs	r2, #10
 80060aa:	8818      	ldrh	r0, [r3, #0]
 80060ac:	a902      	add	r1, sp, #8
 80060ae:	b280      	uxth	r0, r0
 80060b0:	f000 fd32 	bl	8006b18 <itoa>
 80060b4:	ab02      	add	r3, sp, #8
 80060b6:	2228      	movs	r2, #40	; 0x28
 80060b8:	211b      	movs	r1, #27
 80060ba:	4620      	mov	r0, r4
 80060bc:	f7fe ff52 	bl	8004f64 <u8g2_DrawStr>
 80060c0:	4b3d      	ldr	r3, [pc, #244]	; (80061b8 <showpage+0x2c0>)
 80060c2:	781b      	ldrb	r3, [r3, #0]
 80060c4:	9500      	str	r5, [sp, #0]
 80060c6:	b353      	cbz	r3, 800611e <showpage+0x226>
 80060c8:	2309      	movs	r3, #9
 80060ca:	2228      	movs	r2, #40	; 0x28
 80060cc:	211b      	movs	r1, #27
 80060ce:	4620      	mov	r0, r4
 80060d0:	f7fe fc2e 	bl	8004930 <u8g2_DrawBox>
 80060d4:	4b39      	ldr	r3, [pc, #228]	; (80061bc <showpage+0x2c4>)
 80060d6:	781b      	ldrb	r3, [r3, #0]
 80060d8:	9500      	str	r5, [sp, #0]
 80060da:	b33b      	cbz	r3, 800612c <showpage+0x234>
 80060dc:	2309      	movs	r3, #9
 80060de:	2230      	movs	r2, #48	; 0x30
 80060e0:	211b      	movs	r1, #27
 80060e2:	4620      	mov	r0, r4
 80060e4:	f7fe fc24 	bl	8004930 <u8g2_DrawBox>
 80060e8:	4b35      	ldr	r3, [pc, #212]	; (80061c0 <showpage+0x2c8>)
 80060ea:	781b      	ldrb	r3, [r3, #0]
 80060ec:	9500      	str	r5, [sp, #0]
 80060ee:	b323      	cbz	r3, 800613a <showpage+0x242>
 80060f0:	2309      	movs	r3, #9
 80060f2:	2238      	movs	r2, #56	; 0x38
 80060f4:	211b      	movs	r1, #27
 80060f6:	4620      	mov	r0, r4
 80060f8:	f7fe fc1a 	bl	8004930 <u8g2_DrawBox>
 80060fc:	4b31      	ldr	r3, [pc, #196]	; (80061c4 <showpage+0x2cc>)
 80060fe:	781b      	ldrb	r3, [r3, #0]
 8006100:	9500      	str	r5, [sp, #0]
 8006102:	b30b      	cbz	r3, 8006148 <showpage+0x250>
 8006104:	2309      	movs	r3, #9
 8006106:	2228      	movs	r2, #40	; 0x28
 8006108:	2148      	movs	r1, #72	; 0x48
 800610a:	4620      	mov	r0, r4
 800610c:	f7fe fc10 	bl	8004930 <u8g2_DrawBox>
 8006110:	4620      	mov	r0, r4
 8006112:	f7fe fcb7 	bl	8004a84 <u8g2_NextPage>
 8006116:	2800      	cmp	r0, #0
 8006118:	f47f af51 	bne.w	8005fbe <showpage+0xc6>
 800611c:	e6f2      	b.n	8005f04 <showpage+0xc>
 800611e:	2309      	movs	r3, #9
 8006120:	2228      	movs	r2, #40	; 0x28
 8006122:	211b      	movs	r1, #27
 8006124:	4620      	mov	r0, r4
 8006126:	f7fe fc26 	bl	8004976 <u8g2_DrawFrame>
 800612a:	e7d3      	b.n	80060d4 <showpage+0x1dc>
 800612c:	2309      	movs	r3, #9
 800612e:	2230      	movs	r2, #48	; 0x30
 8006130:	211b      	movs	r1, #27
 8006132:	4620      	mov	r0, r4
 8006134:	f7fe fc1f 	bl	8004976 <u8g2_DrawFrame>
 8006138:	e7d6      	b.n	80060e8 <showpage+0x1f0>
 800613a:	2309      	movs	r3, #9
 800613c:	2238      	movs	r2, #56	; 0x38
 800613e:	211b      	movs	r1, #27
 8006140:	4620      	mov	r0, r4
 8006142:	f7fe fc18 	bl	8004976 <u8g2_DrawFrame>
 8006146:	e7d9      	b.n	80060fc <showpage+0x204>
 8006148:	2309      	movs	r3, #9
 800614a:	2228      	movs	r2, #40	; 0x28
 800614c:	2148      	movs	r1, #72	; 0x48
 800614e:	4620      	mov	r0, r4
 8006150:	f7fe fc11 	bl	8004976 <u8g2_DrawFrame>
 8006154:	e7dc      	b.n	8006110 <showpage+0x218>
 8006156:	bf00      	nop
 8006158:	9999999a 	.word	0x9999999a
 800615c:	3fb99999 	.word	0x3fb99999
 8006160:	20000128 	.word	0x20000128
 8006164:	08007e8d 	.word	0x08007e8d
 8006168:	08008257 	.word	0x08008257
 800616c:	08008244 	.word	0x08008244
 8006170:	0800824b 	.word	0x0800824b
 8006174:	20000116 	.word	0x20000116
 8006178:	200002c0 	.word	0x200002c0
 800617c:	08008246 	.word	0x08008246
 8006180:	20000117 	.word	0x20000117
 8006184:	08008249 	.word	0x08008249
 8006188:	0800824d 	.word	0x0800824d
 800618c:	08008251 	.word	0x08008251
 8006190:	08008255 	.word	0x08008255
 8006194:	08008259 	.word	0x08008259
 8006198:	0800825d 	.word	0x0800825d
 800619c:	08008261 	.word	0x08008261
 80061a0:	08008265 	.word	0x08008265
 80061a4:	08008269 	.word	0x08008269
 80061a8:	200001ec 	.word	0x200001ec
 80061ac:	200002ac 	.word	0x200002ac
 80061b0:	20000258 	.word	0x20000258
 80061b4:	20000122 	.word	0x20000122
 80061b8:	20000118 	.word	0x20000118
 80061bc:	20000008 	.word	0x20000008
 80061c0:	20000114 	.word	0x20000114
 80061c4:	20000115 	.word	0x20000115

080061c8 <SystemClock_Config>:
 80061c8:	2228      	movs	r2, #40	; 0x28
 80061ca:	b510      	push	{r4, lr}
 80061cc:	b094      	sub	sp, #80	; 0x50
 80061ce:	eb0d 0002 	add.w	r0, sp, r2
 80061d2:	2100      	movs	r1, #0
 80061d4:	f000 fca2 	bl	8006b1c <memset>
 80061d8:	2214      	movs	r2, #20
 80061da:	2100      	movs	r1, #0
 80061dc:	eb0d 0002 	add.w	r0, sp, r2
 80061e0:	f000 fc9c 	bl	8006b1c <memset>
 80061e4:	2100      	movs	r1, #0
 80061e6:	2210      	movs	r2, #16
 80061e8:	a801      	add	r0, sp, #4
 80061ea:	f000 fc97 	bl	8006b1c <memset>
 80061ee:	2305      	movs	r3, #5
 80061f0:	930a      	str	r3, [sp, #40]	; 0x28
 80061f2:	f44f 3380 	mov.w	r3, #65536	; 0x10000
 80061f6:	2201      	movs	r2, #1
 80061f8:	2402      	movs	r4, #2
 80061fa:	930b      	str	r3, [sp, #44]	; 0x2c
 80061fc:	9312      	str	r3, [sp, #72]	; 0x48
 80061fe:	f44f 13e0 	mov.w	r3, #1835008	; 0x1c0000
 8006202:	a80a      	add	r0, sp, #40	; 0x28
 8006204:	920d      	str	r2, [sp, #52]	; 0x34
 8006206:	920e      	str	r2, [sp, #56]	; 0x38
 8006208:	9313      	str	r3, [sp, #76]	; 0x4c
 800620a:	9411      	str	r4, [sp, #68]	; 0x44
 800620c:	f7fc fb92 	bl	8002934 <HAL_RCC_OscConfig>
 8006210:	230f      	movs	r3, #15
 8006212:	f44f 6280 	mov.w	r2, #1024	; 0x400
 8006216:	9305      	str	r3, [sp, #20]
 8006218:	2300      	movs	r3, #0
 800621a:	4621      	mov	r1, r4
 800621c:	a805      	add	r0, sp, #20
 800621e:	9208      	str	r2, [sp, #32]
 8006220:	9307      	str	r3, [sp, #28]
 8006222:	9309      	str	r3, [sp, #36]	; 0x24
 8006224:	9406      	str	r4, [sp, #24]
 8006226:	f7fc fdc9 	bl	8002dbc <HAL_RCC_ClockConfig>
 800622a:	2303      	movs	r3, #3
 800622c:	9301      	str	r3, [sp, #4]
 800622e:	f44f 7380 	mov.w	r3, #256	; 0x100
 8006232:	9302      	str	r3, [sp, #8]
 8006234:	f44f 4300 	mov.w	r3, #32768	; 0x8000
 8006238:	a801      	add	r0, sp, #4
 800623a:	9303      	str	r3, [sp, #12]
 800623c:	f7fc ff00 	bl	8003040 <HAL_RCCEx_PeriphCLKConfig>
 8006240:	f7fc fd7a 	bl	8002d38 <HAL_RCC_EnableCSS>
 8006244:	b014      	add	sp, #80	; 0x50
 8006246:	bd10      	pop	{r4, pc}

08006248 <main>:
 8006248:	e92d 4ff0 	stmdb	sp!, {r4, r5, r6, r7, r8, r9, sl, fp, lr}
 800624c:	2400      	movs	r4, #0
 800624e:	4dc1      	ldr	r5, [pc, #772]	; (8006554 <main+0x30c>)
 8006250:	b099      	sub	sp, #100	; 0x64
 8006252:	f7fa ff9f 	bl	8001194 <HAL_Init>
 8006256:	702c      	strb	r4, [r5, #0]
 8006258:	732c      	strb	r4, [r5, #12]
 800625a:	60ac      	str	r4, [r5, #8]
 800625c:	606c      	str	r4, [r5, #4]
 800625e:	706c      	strb	r4, [r5, #1]
 8006260:	752c      	strb	r4, [r5, #20]
 8006262:	f7ff ffb1 	bl	80061c8 <SystemClock_Config>
 8006266:	2210      	movs	r2, #16
 8006268:	4621      	mov	r1, r4
 800626a:	a810      	add	r0, sp, #64	; 0x40
 800626c:	f000 fc56 	bl	8006b1c <memset>
 8006270:	4bb9      	ldr	r3, [pc, #740]	; (8006558 <main+0x310>)
 8006272:	f44f 5100 	mov.w	r1, #8192	; 0x2000
 8006276:	699a      	ldr	r2, [r3, #24]
 8006278:	48b8      	ldr	r0, [pc, #736]	; (800655c <main+0x314>)
 800627a:	f042 0210 	orr.w	r2, r2, #16
 800627e:	619a      	str	r2, [r3, #24]
 8006280:	699a      	ldr	r2, [r3, #24]
 8006282:	2601      	movs	r6, #1
 8006284:	f002 0210 	and.w	r2, r2, #16
 8006288:	9206      	str	r2, [sp, #24]
 800628a:	9a06      	ldr	r2, [sp, #24]
 800628c:	699a      	ldr	r2, [r3, #24]
 800628e:	f04f 0a02 	mov.w	sl, #2
 8006292:	f042 0220 	orr.w	r2, r2, #32
 8006296:	619a      	str	r2, [r3, #24]
 8006298:	699a      	ldr	r2, [r3, #24]
 800629a:	2703      	movs	r7, #3
 800629c:	f002 0220 	and.w	r2, r2, #32
 80062a0:	9207      	str	r2, [sp, #28]
 80062a2:	9a07      	ldr	r2, [sp, #28]
 80062a4:	699a      	ldr	r2, [r3, #24]
 80062a6:	f04f 0908 	mov.w	r9, #8
 80062aa:	f042 0204 	orr.w	r2, r2, #4
 80062ae:	619a      	str	r2, [r3, #24]
 80062b0:	699a      	ldr	r2, [r3, #24]
 80062b2:	f44f 4b80 	mov.w	fp, #16384	; 0x4000
 80062b6:	f002 0204 	and.w	r2, r2, #4
 80062ba:	9208      	str	r2, [sp, #32]
 80062bc:	9a08      	ldr	r2, [sp, #32]
 80062be:	699a      	ldr	r2, [r3, #24]
 80062c0:	f04f 0828 	mov.w	r8, #40	; 0x28
 80062c4:	f042 0208 	orr.w	r2, r2, #8
 80062c8:	619a      	str	r2, [r3, #24]
 80062ca:	699b      	ldr	r3, [r3, #24]
 80062cc:	2201      	movs	r2, #1
 80062ce:	f003 0308 	and.w	r3, r3, #8
 80062d2:	9309      	str	r3, [sp, #36]	; 0x24
 80062d4:	9b09      	ldr	r3, [sp, #36]	; 0x24
 80062d6:	f7fb fd9d 	bl	8001e14 <HAL_GPIO_WritePin>
 80062da:	4622      	mov	r2, r4
 80062dc:	f24a 7104 	movw	r1, #42756	; 0xa704
 80062e0:	489f      	ldr	r0, [pc, #636]	; (8006560 <main+0x318>)
 80062e2:	f7fb fd97 	bl	8001e14 <HAL_GPIO_WritePin>
 80062e6:	f44f 5300 	mov.w	r3, #8192	; 0x2000
 80062ea:	a910      	add	r1, sp, #64	; 0x40
 80062ec:	489b      	ldr	r0, [pc, #620]	; (800655c <main+0x314>)
 80062ee:	9310      	str	r3, [sp, #64]	; 0x40
 80062f0:	9611      	str	r6, [sp, #68]	; 0x44
 80062f2:	9412      	str	r4, [sp, #72]	; 0x48
 80062f4:	f8cd a04c 	str.w	sl, [sp, #76]	; 0x4c
 80062f8:	f7fb fc0e 	bl	8001b18 <HAL_GPIO_Init>
 80062fc:	f649 6376 	movw	r3, #40566	; 0x9e76
 8006300:	a910      	add	r1, sp, #64	; 0x40
 8006302:	4898      	ldr	r0, [pc, #608]	; (8006564 <main+0x31c>)
 8006304:	9310      	str	r3, [sp, #64]	; 0x40
 8006306:	9711      	str	r7, [sp, #68]	; 0x44
 8006308:	f7fb fc06 	bl	8001b18 <HAL_GPIO_Init>
 800630c:	a910      	add	r1, sp, #64	; 0x40
 800630e:	4895      	ldr	r0, [pc, #596]	; (8006564 <main+0x31c>)
 8006310:	f8cd 9040 	str.w	r9, [sp, #64]	; 0x40
 8006314:	9411      	str	r4, [sp, #68]	; 0x44
 8006316:	f8cd a048 	str.w	sl, [sp, #72]	; 0x48
 800631a:	f7fb fbfd 	bl	8001b18 <HAL_GPIO_Init>
 800631e:	f24a 7304 	movw	r3, #42756	; 0xa704
 8006322:	a910      	add	r1, sp, #64	; 0x40
 8006324:	488e      	ldr	r0, [pc, #568]	; (8006560 <main+0x318>)
 8006326:	9310      	str	r3, [sp, #64]	; 0x40
 8006328:	9611      	str	r6, [sp, #68]	; 0x44
 800632a:	9412      	str	r4, [sp, #72]	; 0x48
 800632c:	f8cd a04c 	str.w	sl, [sp, #76]	; 0x4c
 8006330:	f7fb fbf2 	bl	8001b18 <HAL_GPIO_Init>
 8006334:	f44f 6300 	mov.w	r3, #2048	; 0x800
 8006338:	9310      	str	r3, [sp, #64]	; 0x40
 800633a:	4b8b      	ldr	r3, [pc, #556]	; (8006568 <main+0x320>)
 800633c:	a910      	add	r1, sp, #64	; 0x40
 800633e:	4888      	ldr	r0, [pc, #544]	; (8006560 <main+0x318>)
 8006340:	9311      	str	r3, [sp, #68]	; 0x44
 8006342:	f8cd a048 	str.w	sl, [sp, #72]	; 0x48
 8006346:	f7fb fbe7 	bl	8001b18 <HAL_GPIO_Init>
 800634a:	f44f 5380 	mov.w	r3, #4096	; 0x1000
 800634e:	a910      	add	r1, sp, #64	; 0x40
 8006350:	4883      	ldr	r0, [pc, #524]	; (8006560 <main+0x318>)
 8006352:	9310      	str	r3, [sp, #64]	; 0x40
 8006354:	9411      	str	r4, [sp, #68]	; 0x44
 8006356:	f8cd a048 	str.w	sl, [sp, #72]	; 0x48
 800635a:	f7fb fbdd 	bl	8001b18 <HAL_GPIO_Init>
 800635e:	a910      	add	r1, sp, #64	; 0x40
 8006360:	487f      	ldr	r0, [pc, #508]	; (8006560 <main+0x318>)
 8006362:	f8cd b040 	str.w	fp, [sp, #64]	; 0x40
 8006366:	9612      	str	r6, [sp, #72]	; 0x48
 8006368:	9411      	str	r4, [sp, #68]	; 0x44
 800636a:	f7fb fbd5 	bl	8001b18 <HAL_GPIO_Init>
 800636e:	f44f 7380 	mov.w	r3, #256	; 0x100
 8006372:	a910      	add	r1, sp, #64	; 0x40
 8006374:	487b      	ldr	r0, [pc, #492]	; (8006564 <main+0x31c>)
 8006376:	9310      	str	r3, [sp, #64]	; 0x40
 8006378:	9305      	str	r3, [sp, #20]
 800637a:	9612      	str	r6, [sp, #72]	; 0x48
 800637c:	9411      	str	r4, [sp, #68]	; 0x44
 800637e:	f7fb fbcb 	bl	8001b18 <HAL_GPIO_Init>
 8006382:	a910      	add	r1, sp, #64	; 0x40
 8006384:	4876      	ldr	r0, [pc, #472]	; (8006560 <main+0x318>)
 8006386:	f8cd 8040 	str.w	r8, [sp, #64]	; 0x40
 800638a:	9711      	str	r7, [sp, #68]	; 0x44
 800638c:	f7fb fbc4 	bl	8001b18 <HAL_GPIO_Init>
 8006390:	4622      	mov	r2, r4
 8006392:	4621      	mov	r1, r4
 8006394:	4640      	mov	r0, r8
 8006396:	f7fb fb33 	bl	8001a00 <HAL_NVIC_SetPriority>
 800639a:	4640      	mov	r0, r8
 800639c:	f7fb fb72 	bl	8001a84 <HAL_NVIC_EnableIRQ>
 80063a0:	4621      	mov	r1, r4
 80063a2:	2220      	movs	r2, #32
 80063a4:	a810      	add	r0, sp, #64	; 0x40
 80063a6:	f000 fbb9 	bl	8006b1c <memset>
 80063aa:	f8df 81e0 	ldr.w	r8, [pc, #480]	; 800658c <main+0x344>
 80063ae:	9b05      	ldr	r3, [sp, #20]
 80063b0:	4a6e      	ldr	r2, [pc, #440]	; (800656c <main+0x324>)
 80063b2:	f8c8 3008 	str.w	r3, [r8, #8]
 80063b6:	f44f 2360 	mov.w	r3, #917504	; 0xe0000
 80063ba:	4640      	mov	r0, r8
 80063bc:	f8c8 2000 	str.w	r2, [r8]
 80063c0:	f8c8 301c 	str.w	r3, [r8, #28]
 80063c4:	f8c8 6010 	str.w	r6, [r8, #16]
 80063c8:	f8c8 400c 	str.w	r4, [r8, #12]
 80063cc:	f8c8 4014 	str.w	r4, [r8, #20]
 80063d0:	f8c8 4004 	str.w	r4, [r8, #4]
 80063d4:	f7fb f80c 	bl	80013f0 <HAL_ADC_Init>
 80063d8:	2307      	movs	r3, #7
 80063da:	9310      	str	r3, [sp, #64]	; 0x40
 80063dc:	f44f 43e0 	mov.w	r3, #28672	; 0x7000
 80063e0:	a910      	add	r1, sp, #64	; 0x40
 80063e2:	4640      	mov	r0, r8
 80063e4:	9317      	str	r3, [sp, #92]	; 0x5c
 80063e6:	9611      	str	r6, [sp, #68]	; 0x44
 80063e8:	9714      	str	r7, [sp, #80]	; 0x50
 80063ea:	9412      	str	r4, [sp, #72]	; 0x48
 80063ec:	9416      	str	r4, [sp, #88]	; 0x58
 80063ee:	9415      	str	r4, [sp, #84]	; 0x54
 80063f0:	9413      	str	r4, [sp, #76]	; 0x4c
 80063f2:	f7fb f9a5 	bl	8001740 <HAL_ADCEx_InjectedConfigChannel>
 80063f6:	a910      	add	r1, sp, #64	; 0x40
 80063f8:	4640      	mov	r0, r8
 80063fa:	f8cd 9040 	str.w	r9, [sp, #64]	; 0x40
 80063fe:	f8cd a044 	str.w	sl, [sp, #68]	; 0x44
 8006402:	f7fb f99d 	bl	8001740 <HAL_ADCEx_InjectedConfigChannel>
 8006406:	2309      	movs	r3, #9
 8006408:	a910      	add	r1, sp, #64	; 0x40
 800640a:	4640      	mov	r0, r8
 800640c:	9310      	str	r3, [sp, #64]	; 0x40
 800640e:	9711      	str	r7, [sp, #68]	; 0x44
 8006410:	f7fb f996 	bl	8001740 <HAL_ADCEx_InjectedConfigChannel>
 8006414:	f04f 33ff 	mov.w	r3, #4294967295
 8006418:	f8df 8174 	ldr.w	r8, [pc, #372]	; 8006590 <main+0x348>
 800641c:	4a54      	ldr	r2, [pc, #336]	; (8006570 <main+0x328>)
 800641e:	4640      	mov	r0, r8
 8006420:	e888 000c 	stmia.w	r8, {r2, r3}
 8006424:	f8c8 4008 	str.w	r4, [r8, #8]
 8006428:	f8ad 4030 	strh.w	r4, [sp, #48]	; 0x30
 800642c:	f88d 4032 	strb.w	r4, [sp, #50]	; 0x32
 8006430:	9410      	str	r4, [sp, #64]	; 0x40
 8006432:	f7fd f925 	bl	8003680 <HAL_RTC_Init>
 8006436:	4632      	mov	r2, r6
 8006438:	a90c      	add	r1, sp, #48	; 0x30
 800643a:	4640      	mov	r0, r8
 800643c:	f88d 4030 	strb.w	r4, [sp, #48]	; 0x30
 8006440:	f88d 4031 	strb.w	r4, [sp, #49]	; 0x31
 8006444:	f88d 4032 	strb.w	r4, [sp, #50]	; 0x32
 8006448:	f7fc ffc6 	bl	80033d8 <HAL_RTC_SetTime>
 800644c:	4632      	mov	r2, r6
 800644e:	a910      	add	r1, sp, #64	; 0x40
 8006450:	4640      	mov	r0, r8
 8006452:	f88d 6040 	strb.w	r6, [sp, #64]	; 0x40
 8006456:	f88d 6041 	strb.w	r6, [sp, #65]	; 0x41
 800645a:	f88d 6042 	strb.w	r6, [sp, #66]	; 0x42
 800645e:	f88d 4043 	strb.w	r4, [sp, #67]	; 0x43
 8006462:	f7fd f84f 	bl	8003504 <HAL_RTC_SetDate>
 8006466:	2210      	movs	r2, #16
 8006468:	4621      	mov	r1, r4
 800646a:	a810      	add	r0, sp, #64	; 0x40
 800646c:	f000 fb56 	bl	8006b1c <memset>
 8006470:	2377      	movs	r3, #119	; 0x77
 8006472:	f8df 9120 	ldr.w	r9, [pc, #288]	; 8006594 <main+0x34c>
 8006476:	493f      	ldr	r1, [pc, #252]	; (8006574 <main+0x32c>)
 8006478:	4648      	mov	r0, r9
 800647a:	e889 000a 	stmia.w	r9, {r1, r3}
 800647e:	f64e 235f 	movw	r3, #59999	; 0xea5f
 8006482:	940c      	str	r4, [sp, #48]	; 0x30
 8006484:	f8c9 300c 	str.w	r3, [r9, #12]
 8006488:	940d      	str	r4, [sp, #52]	; 0x34
 800648a:	f8c9 4008 	str.w	r4, [r9, #8]
 800648e:	f8c9 4010 	str.w	r4, [r9, #16]
 8006492:	f8c9 4014 	str.w	r4, [r9, #20]
 8006496:	f8c9 4018 	str.w	r4, [r9, #24]
 800649a:	f7fd fdd7 	bl	800404c <HAL_TIM_Base_Init>
 800649e:	f44f 5380 	mov.w	r3, #4096	; 0x1000
 80064a2:	a910      	add	r1, sp, #64	; 0x40
 80064a4:	4648      	mov	r0, r9
 80064a6:	9310      	str	r3, [sp, #64]	; 0x40
 80064a8:	f7fd fa56 	bl	8003958 <HAL_TIM_ConfigClockSource>
 80064ac:	a90c      	add	r1, sp, #48	; 0x30
 80064ae:	4648      	mov	r0, r9
 80064b0:	940c      	str	r4, [sp, #48]	; 0x30
 80064b2:	940d      	str	r4, [sp, #52]	; 0x34
 80064b4:	f7fe f9ec 	bl	8004890 <HAL_TIMEx_MasterConfigSynchronization>
 80064b8:	4b2f      	ldr	r3, [pc, #188]	; (8006578 <main+0x330>)
 80064ba:	4830      	ldr	r0, [pc, #192]	; (800657c <main+0x334>)
 80064bc:	f8df 80d8 	ldr.w	r8, [pc, #216]	; 8006598 <main+0x350>
 80064c0:	6003      	str	r3, [r0, #0]
 80064c2:	f7fb fb0b 	bl	8001adc <HAL_CRC_Init>
 80064c6:	221c      	movs	r2, #28
 80064c8:	4621      	mov	r1, r4
 80064ca:	a810      	add	r0, sp, #64	; 0x40
 80064cc:	940c      	str	r4, [sp, #48]	; 0x30
 80064ce:	940d      	str	r4, [sp, #52]	; 0x34
 80064d0:	f000 fb24 	bl	8006b1c <memset>
 80064d4:	f04f 4380 	mov.w	r3, #1073741824	; 0x40000000
 80064d8:	e888 0088 	stmia.w	r8, {r3, r7}
 80064dc:	f240 3383 	movw	r3, #899	; 0x383
 80064e0:	4640      	mov	r0, r8
 80064e2:	f8c8 300c 	str.w	r3, [r8, #12]
 80064e6:	f8c8 4008 	str.w	r4, [r8, #8]
 80064ea:	f8c8 4010 	str.w	r4, [r8, #16]
 80064ee:	f8c8 4018 	str.w	r4, [r8, #24]
 80064f2:	f7fd fdff 	bl	80040f4 <HAL_TIM_PWM_Init>
 80064f6:	a90c      	add	r1, sp, #48	; 0x30
 80064f8:	4640      	mov	r0, r8
 80064fa:	940c      	str	r4, [sp, #48]	; 0x30
 80064fc:	940d      	str	r4, [sp, #52]	; 0x34
 80064fe:	f7fe f9c7 	bl	8004890 <HAL_TIMEx_MasterConfigSynchronization>
 8006502:	2360      	movs	r3, #96	; 0x60
 8006504:	4622      	mov	r2, r4
 8006506:	a910      	add	r1, sp, #64	; 0x40
 8006508:	4640      	mov	r0, r8
 800650a:	9310      	str	r3, [sp, #64]	; 0x40
 800650c:	9411      	str	r4, [sp, #68]	; 0x44
 800650e:	9412      	str	r4, [sp, #72]	; 0x48
 8006510:	9414      	str	r4, [sp, #80]	; 0x50
 8006512:	f7fd feed 	bl	80042f0 <HAL_TIM_PWM_ConfigChannel>
 8006516:	4640      	mov	r0, r8
 8006518:	f000 fa2e 	bl	8006978 <HAL_TIM_MspPostInit>
 800651c:	4f18      	ldr	r7, [pc, #96]	; (8006580 <main+0x338>)
 800651e:	4b19      	ldr	r3, [pc, #100]	; (8006584 <main+0x33c>)
 8006520:	4819      	ldr	r0, [pc, #100]	; (8006588 <main+0x340>)
 8006522:	f8c7 b010 	str.w	fp, [r7, #16]
 8006526:	e887 0009 	stmia.w	r7, {r0, r3}
 800652a:	4638      	mov	r0, r7
 800652c:	60bc      	str	r4, [r7, #8]
 800652e:	60fc      	str	r4, [r7, #12]
 8006530:	617c      	str	r4, [r7, #20]
 8006532:	61bc      	str	r4, [r7, #24]
 8006534:	61fc      	str	r4, [r7, #28]
 8006536:	623c      	str	r4, [r7, #32]
 8006538:	f7fb fe6c 	bl	8002214 <HAL_I2C_Init>
 800653c:	2210      	movs	r2, #16
 800653e:	4621      	mov	r1, r4
 8006540:	a80c      	add	r0, sp, #48	; 0x30
 8006542:	f000 faeb 	bl	8006b1c <memset>
 8006546:	4621      	mov	r1, r4
 8006548:	2210      	movs	r2, #16
 800654a:	a810      	add	r0, sp, #64	; 0x40
 800654c:	940a      	str	r4, [sp, #40]	; 0x28
 800654e:	940b      	str	r4, [sp, #44]	; 0x2c
 8006550:	e024      	b.n	800659c <main+0x354>
 8006552:	bf00      	nop
 8006554:	200001ec 	.word	0x200001ec
 8006558:	40021000 	.word	0x40021000
 800655c:	40011000 	.word	0x40011000
 8006560:	40010c00 	.word	0x40010c00
 8006564:	40010800 	.word	0x40010800
 8006568:	10110000 	.word	0x10110000
 800656c:	40012400 	.word	0x40012400
 8006570:	40002800 	.word	0x40002800
 8006574:	40012c00 	.word	0x40012c00
 8006578:	40023000 	.word	0x40023000
 800657c:	20000270 	.word	0x20000270
 8006580:	20000204 	.word	0x20000204
 8006584:	000186a0 	.word	0x000186a0
 8006588:	40005400 	.word	0x40005400
 800658c:	20000278 	.word	0x20000278
 8006590:	200001d4 	.word	0x200001d4
 8006594:	20000364 	.word	0x20000364
 8006598:	200002e4 	.word	0x200002e4
 800659c:	f000 fabe 	bl	8006b1c <memset>
 80065a0:	f240 2ecf 	movw	lr, #719	; 0x2cf
 80065a4:	f8df b150 	ldr.w	fp, [pc, #336]	; 80066f8 <main+0x4b0>
 80065a8:	4a4a      	ldr	r2, [pc, #296]	; (80066d4 <main+0x48c>)
 80065aa:	4658      	mov	r0, fp
 80065ac:	e88b 4004 	stmia.w	fp, {r2, lr}
 80065b0:	f64f 72ff 	movw	r2, #65535	; 0xffff
 80065b4:	f8cb 4008 	str.w	r4, [fp, #8]
 80065b8:	f8cb 200c 	str.w	r2, [fp, #12]
 80065bc:	f8cb 4010 	str.w	r4, [fp, #16]
 80065c0:	f8cb 4018 	str.w	r4, [fp, #24]
 80065c4:	f7fd fd42 	bl	800404c <HAL_TIM_Base_Init>
 80065c8:	f44f 5380 	mov.w	r3, #4096	; 0x1000
 80065cc:	a90c      	add	r1, sp, #48	; 0x30
 80065ce:	4658      	mov	r0, fp
 80065d0:	930c      	str	r3, [sp, #48]	; 0x30
 80065d2:	f7fd f9c1 	bl	8003958 <HAL_TIM_ConfigClockSource>
 80065d6:	4658      	mov	r0, fp
 80065d8:	f7fd fde4 	bl	80041a4 <HAL_TIM_IC_Init>
 80065dc:	a90a      	add	r1, sp, #40	; 0x28
 80065de:	4658      	mov	r0, fp
 80065e0:	940a      	str	r4, [sp, #40]	; 0x28
 80065e2:	940b      	str	r4, [sp, #44]	; 0x2c
 80065e4:	f7fe f954 	bl	8004890 <HAL_TIMEx_MasterConfigSynchronization>
 80065e8:	4622      	mov	r2, r4
 80065ea:	a910      	add	r1, sp, #64	; 0x40
 80065ec:	4658      	mov	r0, fp
 80065ee:	9611      	str	r6, [sp, #68]	; 0x44
 80065f0:	9410      	str	r4, [sp, #64]	; 0x40
 80065f2:	9412      	str	r4, [sp, #72]	; 0x48
 80065f4:	9413      	str	r4, [sp, #76]	; 0x4c
 80065f6:	f7fd ff8d 	bl	8004514 <HAL_TIM_IC_ConfigChannel>
 80065fa:	2204      	movs	r2, #4
 80065fc:	a910      	add	r1, sp, #64	; 0x40
 80065fe:	4658      	mov	r0, fp
 8006600:	f8cd a040 	str.w	sl, [sp, #64]	; 0x40
 8006604:	f8cd a044 	str.w	sl, [sp, #68]	; 0x44
 8006608:	f7fd ff84 	bl	8004514 <HAL_TIM_IC_ConfigChannel>
 800660c:	4648      	mov	r0, r9
 800660e:	f7fd f97b 	bl	8003908 <HAL_TIM_Base_Start_IT>
 8006612:	4621      	mov	r1, r4
 8006614:	4658      	mov	r0, fp
 8006616:	f7fe f8ed 	bl	80047f4 <HAL_TIM_IC_Start_IT>
 800661a:	2104      	movs	r1, #4
 800661c:	4658      	mov	r0, fp
 800661e:	f7fe f8e9 	bl	80047f4 <HAL_TIM_IC_Start_IT>
 8006622:	4621      	mov	r1, r4
 8006624:	4640      	mov	r0, r8
 8006626:	f7fe f8b3 	bl	8004790 <HAL_TIM_PWM_Start>
 800662a:	4b2b      	ldr	r3, [pc, #172]	; (80066d8 <main+0x490>)
 800662c:	4a2b      	ldr	r2, [pc, #172]	; (80066dc <main+0x494>)
 800662e:	492c      	ldr	r1, [pc, #176]	; (80066e0 <main+0x498>)
 8006630:	482c      	ldr	r0, [pc, #176]	; (80066e4 <main+0x49c>)
 8006632:	f7fe fa4d 	bl	8004ad0 <u8g2_Setup_ssd1306_i2c_128x64_noname_1>
 8006636:	482b      	ldr	r0, [pc, #172]	; (80066e4 <main+0x49c>)
 8006638:	f7ff f812 	bl	8005660 <u8x8_InitDisplay>
 800663c:	4621      	mov	r1, r4
 800663e:	4829      	ldr	r0, [pc, #164]	; (80066e4 <main+0x49c>)
 8006640:	f7ff f816 	bl	8005670 <u8x8_SetPowerSave>
 8006644:	2300      	movs	r3, #0
 8006646:	f8df 80b4 	ldr.w	r8, [pc, #180]	; 80066fc <main+0x4b4>
 800664a:	4622      	mov	r2, r4
 800664c:	f8c8 3000 	str.w	r3, [r8]
 8006650:	f8c8 3004 	str.w	r3, [r8, #4]
 8006654:	f8c8 3008 	str.w	r3, [r8, #8]
 8006658:	230c      	movs	r3, #12
 800665a:	9602      	str	r6, [sp, #8]
 800665c:	9301      	str	r3, [sp, #4]
 800665e:	21a0      	movs	r1, #160	; 0xa0
 8006660:	2310      	movs	r3, #16
 8006662:	f8cd 8000 	str.w	r8, [sp]
 8006666:	4638      	mov	r0, r7
 8006668:	f7fc f82e 	bl	80026c8 <HAL_I2C_Mem_Read>
 800666c:	481e      	ldr	r0, [pc, #120]	; (80066e8 <main+0x4a0>)
 800666e:	f8d8 3000 	ldr.w	r3, [r8]
 8006672:	4631      	mov	r1, r6
 8006674:	6183      	str	r3, [r0, #24]
 8006676:	f8d8 3004 	ldr.w	r3, [r8, #4]
 800667a:	4e1c      	ldr	r6, [pc, #112]	; (80066ec <main+0x4a4>)
 800667c:	61c3      	str	r3, [r0, #28]
 800667e:	f8d8 3008 	ldr.w	r3, [r8, #8]
 8006682:	6203      	str	r3, [r0, #32]
 8006684:	f7fa fd3e 	bl	8001104 <arm_pid_init_f32>
 8006688:	4b19      	ldr	r3, [pc, #100]	; (80066f0 <main+0x4a8>)
 800668a:	701c      	strb	r4, [r3, #0]
 800668c:	705c      	strb	r4, [r3, #1]
 800668e:	709c      	strb	r4, [r3, #2]
 8006690:	70dc      	strb	r4, [r3, #3]
 8006692:	782b      	ldrb	r3, [r5, #0]
 8006694:	b183      	cbz	r3, 80066b8 <main+0x470>
 8006696:	786b      	ldrb	r3, [r5, #1]
 8006698:	b173      	cbz	r3, 80066b8 <main+0x470>
 800669a:	f7fa fd99 	bl	80011d0 <HAL_GetTick>
 800669e:	f995 300c 	ldrsb.w	r3, [r5, #12]
 80066a2:	686a      	ldr	r2, [r5, #4]
 80066a4:	2b00      	cmp	r3, #0
 80066a6:	bfb8      	it	lt
 80066a8:	425b      	neglt	r3, r3
 80066aa:	4413      	add	r3, r2
 80066ac:	4298      	cmp	r0, r3
 80066ae:	60a8      	str	r0, [r5, #8]
 80066b0:	d80c      	bhi.n	80066cc <main+0x484>
 80066b2:	7b68      	ldrb	r0, [r5, #13]
 80066b4:	f7ff f906 	bl	80058c4 <move_throttle>
 80066b8:	8833      	ldrh	r3, [r6, #0]
 80066ba:	b29b      	uxth	r3, r3
 80066bc:	2b03      	cmp	r3, #3
 80066be:	d9e8      	bls.n	8006692 <main+0x44a>
 80066c0:	4b0c      	ldr	r3, [pc, #48]	; (80066f4 <main+0x4ac>)
 80066c2:	7818      	ldrb	r0, [r3, #0]
 80066c4:	f7ff fc18 	bl	8005ef8 <showpage>
 80066c8:	8034      	strh	r4, [r6, #0]
 80066ca:	e7e2      	b.n	8006692 <main+0x44a>
 80066cc:	f7ff f85a 	bl	8005784 <move_throttle.part.2>
 80066d0:	706c      	strb	r4, [r5, #1]
 80066d2:	e7f1      	b.n	80066b8 <main+0x470>
 80066d4:	40000400 	.word	0x40000400
 80066d8:	080056e9 	.word	0x080056e9
 80066dc:	080056ed 	.word	0x080056ed
 80066e0:	080081d0 	.word	0x080081d0
 80066e4:	20000128 	.word	0x20000128
 80066e8:	200002c0 	.word	0x200002c0
 80066ec:	20000126 	.word	0x20000126
 80066f0:	20000268 	.word	0x20000268
 80066f4:	2000000b 	.word	0x2000000b
 80066f8:	20000324 	.word	0x20000324
 80066fc:	2000025c 	.word	0x2000025c

08006700 <assert_failed>:
 8006700:	4770      	bx	lr
	...

08006704 <HAL_MspInit>:
 8006704:	4b0e      	ldr	r3, [pc, #56]	; (8006740 <HAL_MspInit+0x3c>)
 8006706:	b082      	sub	sp, #8
 8006708:	699a      	ldr	r2, [r3, #24]
 800670a:	f042 0201 	orr.w	r2, r2, #1
 800670e:	619a      	str	r2, [r3, #24]
 8006710:	699a      	ldr	r2, [r3, #24]
 8006712:	f002 0201 	and.w	r2, r2, #1
 8006716:	9200      	str	r2, [sp, #0]
 8006718:	9a00      	ldr	r2, [sp, #0]
 800671a:	69da      	ldr	r2, [r3, #28]
 800671c:	f042 5280 	orr.w	r2, r2, #268435456	; 0x10000000
 8006720:	61da      	str	r2, [r3, #28]
 8006722:	69db      	ldr	r3, [r3, #28]
 8006724:	4a07      	ldr	r2, [pc, #28]	; (8006744 <HAL_MspInit+0x40>)
 8006726:	f003 5380 	and.w	r3, r3, #268435456	; 0x10000000
 800672a:	9301      	str	r3, [sp, #4]
 800672c:	9b01      	ldr	r3, [sp, #4]
 800672e:	6853      	ldr	r3, [r2, #4]
 8006730:	f023 63e0 	bic.w	r3, r3, #117440512	; 0x7000000
 8006734:	f043 7300 	orr.w	r3, r3, #33554432	; 0x2000000
 8006738:	6053      	str	r3, [r2, #4]
 800673a:	b002      	add	sp, #8
 800673c:	4770      	bx	lr
 800673e:	bf00      	nop
 8006740:	40021000 	.word	0x40021000
 8006744:	40010000 	.word	0x40010000

08006748 <HAL_ADC_MspInit>:
 8006748:	2210      	movs	r2, #16
 800674a:	b510      	push	{r4, lr}
 800674c:	4604      	mov	r4, r0
 800674e:	b088      	sub	sp, #32
 8006750:	eb0d 0002 	add.w	r0, sp, r2
 8006754:	2100      	movs	r1, #0
 8006756:	f000 f9e1 	bl	8006b1c <memset>
 800675a:	6822      	ldr	r2, [r4, #0]
 800675c:	4b17      	ldr	r3, [pc, #92]	; (80067bc <HAL_ADC_MspInit+0x74>)
 800675e:	429a      	cmp	r2, r3
 8006760:	d12a      	bne.n	80067b8 <HAL_ADC_MspInit+0x70>
 8006762:	f503 436c 	add.w	r3, r3, #60416	; 0xec00
 8006766:	699a      	ldr	r2, [r3, #24]
 8006768:	2403      	movs	r4, #3
 800676a:	f442 7200 	orr.w	r2, r2, #512	; 0x200
 800676e:	619a      	str	r2, [r3, #24]
 8006770:	699a      	ldr	r2, [r3, #24]
 8006772:	a904      	add	r1, sp, #16
 8006774:	f402 7200 	and.w	r2, r2, #512	; 0x200
 8006778:	9201      	str	r2, [sp, #4]
 800677a:	9a01      	ldr	r2, [sp, #4]
 800677c:	699a      	ldr	r2, [r3, #24]
 800677e:	4810      	ldr	r0, [pc, #64]	; (80067c0 <HAL_ADC_MspInit+0x78>)
 8006780:	f042 0204 	orr.w	r2, r2, #4
 8006784:	619a      	str	r2, [r3, #24]
 8006786:	699a      	ldr	r2, [r3, #24]
 8006788:	f002 0204 	and.w	r2, r2, #4
 800678c:	9202      	str	r2, [sp, #8]
 800678e:	9a02      	ldr	r2, [sp, #8]
 8006790:	699a      	ldr	r2, [r3, #24]
 8006792:	f042 0208 	orr.w	r2, r2, #8
 8006796:	619a      	str	r2, [r3, #24]
 8006798:	699b      	ldr	r3, [r3, #24]
 800679a:	9405      	str	r4, [sp, #20]
 800679c:	f003 0308 	and.w	r3, r3, #8
 80067a0:	9303      	str	r3, [sp, #12]
 80067a2:	9b03      	ldr	r3, [sp, #12]
 80067a4:	2380      	movs	r3, #128	; 0x80
 80067a6:	9304      	str	r3, [sp, #16]
 80067a8:	f7fb f9b6 	bl	8001b18 <HAL_GPIO_Init>
 80067ac:	a904      	add	r1, sp, #16
 80067ae:	4805      	ldr	r0, [pc, #20]	; (80067c4 <HAL_ADC_MspInit+0x7c>)
 80067b0:	9404      	str	r4, [sp, #16]
 80067b2:	9405      	str	r4, [sp, #20]
 80067b4:	f7fb f9b0 	bl	8001b18 <HAL_GPIO_Init>
 80067b8:	b008      	add	sp, #32
 80067ba:	bd10      	pop	{r4, pc}
 80067bc:	40012400 	.word	0x40012400
 80067c0:	40010800 	.word	0x40010800
 80067c4:	40010c00 	.word	0x40010c00

080067c8 <HAL_CRC_MspInit>:
 80067c8:	6802      	ldr	r2, [r0, #0]
 80067ca:	4b08      	ldr	r3, [pc, #32]	; (80067ec <HAL_CRC_MspInit+0x24>)
 80067cc:	b082      	sub	sp, #8
 80067ce:	429a      	cmp	r2, r3
 80067d0:	d10a      	bne.n	80067e8 <HAL_CRC_MspInit+0x20>
 80067d2:	f5a3 5300 	sub.w	r3, r3, #8192	; 0x2000
 80067d6:	695a      	ldr	r2, [r3, #20]
 80067d8:	f042 0240 	orr.w	r2, r2, #64	; 0x40
 80067dc:	615a      	str	r2, [r3, #20]
 80067de:	695b      	ldr	r3, [r3, #20]
 80067e0:	f003 0340 	and.w	r3, r3, #64	; 0x40
 80067e4:	9301      	str	r3, [sp, #4]
 80067e6:	9b01      	ldr	r3, [sp, #4]
 80067e8:	b002      	add	sp, #8
 80067ea:	4770      	bx	lr
 80067ec:	40023000 	.word	0x40023000

080067f0 <HAL_I2C_MspInit>:
 80067f0:	b510      	push	{r4, lr}
 80067f2:	4604      	mov	r4, r0
 80067f4:	b086      	sub	sp, #24
 80067f6:	2210      	movs	r2, #16
 80067f8:	2100      	movs	r1, #0
 80067fa:	a802      	add	r0, sp, #8
 80067fc:	f000 f98e 	bl	8006b1c <memset>
 8006800:	6822      	ldr	r2, [r4, #0]
 8006802:	4b11      	ldr	r3, [pc, #68]	; (8006848 <HAL_I2C_MspInit+0x58>)
 8006804:	429a      	cmp	r2, r3
 8006806:	d11c      	bne.n	8006842 <HAL_I2C_MspInit+0x52>
 8006808:	4c10      	ldr	r4, [pc, #64]	; (800684c <HAL_I2C_MspInit+0x5c>)
 800680a:	a902      	add	r1, sp, #8
 800680c:	69a3      	ldr	r3, [r4, #24]
 800680e:	4810      	ldr	r0, [pc, #64]	; (8006850 <HAL_I2C_MspInit+0x60>)
 8006810:	f043 0308 	orr.w	r3, r3, #8
 8006814:	61a3      	str	r3, [r4, #24]
 8006816:	69a3      	ldr	r3, [r4, #24]
 8006818:	f003 0308 	and.w	r3, r3, #8
 800681c:	9300      	str	r3, [sp, #0]
 800681e:	9b00      	ldr	r3, [sp, #0]
 8006820:	23c0      	movs	r3, #192	; 0xc0
 8006822:	9302      	str	r3, [sp, #8]
 8006824:	2312      	movs	r3, #18
 8006826:	9303      	str	r3, [sp, #12]
 8006828:	2303      	movs	r3, #3
 800682a:	9305      	str	r3, [sp, #20]
 800682c:	f7fb f974 	bl	8001b18 <HAL_GPIO_Init>
 8006830:	69e3      	ldr	r3, [r4, #28]
 8006832:	f443 1300 	orr.w	r3, r3, #2097152	; 0x200000
 8006836:	61e3      	str	r3, [r4, #28]
 8006838:	69e3      	ldr	r3, [r4, #28]
 800683a:	f403 1300 	and.w	r3, r3, #2097152	; 0x200000
 800683e:	9301      	str	r3, [sp, #4]
 8006840:	9b01      	ldr	r3, [sp, #4]
 8006842:	b006      	add	sp, #24
 8006844:	bd10      	pop	{r4, pc}
 8006846:	bf00      	nop
 8006848:	40005400 	.word	0x40005400
 800684c:	40021000 	.word	0x40021000
 8006850:	40010c00 	.word	0x40010c00

08006854 <HAL_RTC_MspInit>:
 8006854:	b507      	push	{r0, r1, r2, lr}
 8006856:	4b0b      	ldr	r3, [pc, #44]	; (8006884 <HAL_RTC_MspInit+0x30>)
 8006858:	6802      	ldr	r2, [r0, #0]
 800685a:	429a      	cmp	r2, r3
 800685c:	d10e      	bne.n	800687c <HAL_RTC_MspInit+0x28>
 800685e:	f7fc f863 	bl	8002928 <HAL_PWR_EnableBkUpAccess>
 8006862:	4b09      	ldr	r3, [pc, #36]	; (8006888 <HAL_RTC_MspInit+0x34>)
 8006864:	69da      	ldr	r2, [r3, #28]
 8006866:	f042 6200 	orr.w	r2, r2, #134217728	; 0x8000000
 800686a:	61da      	str	r2, [r3, #28]
 800686c:	2201      	movs	r2, #1
 800686e:	69db      	ldr	r3, [r3, #28]
 8006870:	f003 6300 	and.w	r3, r3, #134217728	; 0x8000000
 8006874:	9301      	str	r3, [sp, #4]
 8006876:	9b01      	ldr	r3, [sp, #4]
 8006878:	4b04      	ldr	r3, [pc, #16]	; (800688c <HAL_RTC_MspInit+0x38>)
 800687a:	601a      	str	r2, [r3, #0]
 800687c:	b003      	add	sp, #12
 800687e:	f85d fb04 	ldr.w	pc, [sp], #4
 8006882:	bf00      	nop
 8006884:	40002800 	.word	0x40002800
 8006888:	40021000 	.word	0x40021000
 800688c:	4242043c 	.word	0x4242043c

08006890 <HAL_TIM_Base_MspInit>:
 8006890:	b530      	push	{r4, r5, lr}
 8006892:	2410      	movs	r4, #16
 8006894:	4605      	mov	r5, r0
 8006896:	b089      	sub	sp, #36	; 0x24
 8006898:	4622      	mov	r2, r4
 800689a:	2100      	movs	r1, #0
 800689c:	eb0d 0004 	add.w	r0, sp, r4
 80068a0:	f000 f93c 	bl	8006b1c <memset>
 80068a4:	682b      	ldr	r3, [r5, #0]
 80068a6:	4a21      	ldr	r2, [pc, #132]	; (800692c <HAL_TIM_Base_MspInit+0x9c>)
 80068a8:	4293      	cmp	r3, r2
 80068aa:	d113      	bne.n	80068d4 <HAL_TIM_Base_MspInit+0x44>
 80068ac:	4b20      	ldr	r3, [pc, #128]	; (8006930 <HAL_TIM_Base_MspInit+0xa0>)
 80068ae:	2019      	movs	r0, #25
 80068b0:	699a      	ldr	r2, [r3, #24]
 80068b2:	f442 6200 	orr.w	r2, r2, #2048	; 0x800
 80068b6:	619a      	str	r2, [r3, #24]
 80068b8:	2200      	movs	r2, #0
 80068ba:	699b      	ldr	r3, [r3, #24]
 80068bc:	4611      	mov	r1, r2
 80068be:	f403 6300 	and.w	r3, r3, #2048	; 0x800
 80068c2:	9301      	str	r3, [sp, #4]
 80068c4:	9b01      	ldr	r3, [sp, #4]
 80068c6:	f7fb f89b 	bl	8001a00 <HAL_NVIC_SetPriority>
 80068ca:	2019      	movs	r0, #25
 80068cc:	f7fb f8da 	bl	8001a84 <HAL_NVIC_EnableIRQ>
 80068d0:	b009      	add	sp, #36	; 0x24
 80068d2:	bd30      	pop	{r4, r5, pc}
 80068d4:	4a17      	ldr	r2, [pc, #92]	; (8006934 <HAL_TIM_Base_MspInit+0xa4>)
 80068d6:	4293      	cmp	r3, r2
 80068d8:	d1fa      	bne.n	80068d0 <HAL_TIM_Base_MspInit+0x40>
 80068da:	4b15      	ldr	r3, [pc, #84]	; (8006930 <HAL_TIM_Base_MspInit+0xa0>)
 80068dc:	a904      	add	r1, sp, #16
 80068de:	69da      	ldr	r2, [r3, #28]
 80068e0:	4815      	ldr	r0, [pc, #84]	; (8006938 <HAL_TIM_Base_MspInit+0xa8>)
 80068e2:	f042 0202 	orr.w	r2, r2, #2
 80068e6:	61da      	str	r2, [r3, #28]
 80068e8:	69da      	ldr	r2, [r3, #28]
 80068ea:	f002 0202 	and.w	r2, r2, #2
 80068ee:	9202      	str	r2, [sp, #8]
 80068f0:	9a02      	ldr	r2, [sp, #8]
 80068f2:	699a      	ldr	r2, [r3, #24]
 80068f4:	f042 0208 	orr.w	r2, r2, #8
 80068f8:	619a      	str	r2, [r3, #24]
 80068fa:	699b      	ldr	r3, [r3, #24]
 80068fc:	9404      	str	r4, [sp, #16]
 80068fe:	f003 0308 	and.w	r3, r3, #8
 8006902:	9303      	str	r3, [sp, #12]
 8006904:	9b03      	ldr	r3, [sp, #12]
 8006906:	f7fb f907 	bl	8001b18 <HAL_GPIO_Init>
 800690a:	4a0c      	ldr	r2, [pc, #48]	; (800693c <HAL_TIM_Base_MspInit+0xac>)
 800690c:	201d      	movs	r0, #29
 800690e:	6853      	ldr	r3, [r2, #4]
 8006910:	f423 6340 	bic.w	r3, r3, #3072	; 0xc00
 8006914:	f043 63e0 	orr.w	r3, r3, #117440512	; 0x7000000
 8006918:	f443 6300 	orr.w	r3, r3, #2048	; 0x800
 800691c:	6053      	str	r3, [r2, #4]
 800691e:	2200      	movs	r2, #0
 8006920:	4611      	mov	r1, r2
 8006922:	f7fb f86d 	bl	8001a00 <HAL_NVIC_SetPriority>
 8006926:	201d      	movs	r0, #29
 8006928:	e7d0      	b.n	80068cc <HAL_TIM_Base_MspInit+0x3c>
 800692a:	bf00      	nop
 800692c:	40012c00 	.word	0x40012c00
 8006930:	40021000 	.word	0x40021000
 8006934:	40000400 	.word	0x40000400
 8006938:	40010c00 	.word	0x40010c00
 800693c:	40010000 	.word	0x40010000

08006940 <HAL_TIM_PWM_MspInit>:
 8006940:	6803      	ldr	r3, [r0, #0]
 8006942:	b507      	push	{r0, r1, r2, lr}
 8006944:	f1b3 4f80 	cmp.w	r3, #1073741824	; 0x40000000
 8006948:	d112      	bne.n	8006970 <HAL_TIM_PWM_MspInit+0x30>
 800694a:	f503 3304 	add.w	r3, r3, #135168	; 0x21000
 800694e:	69da      	ldr	r2, [r3, #28]
 8006950:	201c      	movs	r0, #28
 8006952:	f042 0201 	orr.w	r2, r2, #1
 8006956:	61da      	str	r2, [r3, #28]
 8006958:	2200      	movs	r2, #0
 800695a:	69db      	ldr	r3, [r3, #28]
 800695c:	4611      	mov	r1, r2
 800695e:	f003 0301 	and.w	r3, r3, #1
 8006962:	9301      	str	r3, [sp, #4]
 8006964:	9b01      	ldr	r3, [sp, #4]
 8006966:	f7fb f84b 	bl	8001a00 <HAL_NVIC_SetPriority>
 800696a:	201c      	movs	r0, #28
 800696c:	f7fb f88a 	bl	8001a84 <HAL_NVIC_EnableIRQ>
 8006970:	b003      	add	sp, #12
 8006972:	f85d fb04 	ldr.w	pc, [sp], #4
	...

08006978 <HAL_TIM_MspPostInit>:
 8006978:	b510      	push	{r4, lr}
 800697a:	4604      	mov	r4, r0
 800697c:	b086      	sub	sp, #24
 800697e:	2210      	movs	r2, #16
 8006980:	2100      	movs	r1, #0
 8006982:	a802      	add	r0, sp, #8
 8006984:	f000 f8ca 	bl	8006b1c <memset>
 8006988:	6823      	ldr	r3, [r4, #0]
 800698a:	f1b3 4f80 	cmp.w	r3, #1073741824	; 0x40000000
 800698e:	d114      	bne.n	80069ba <HAL_TIM_MspPostInit+0x42>
 8006990:	f503 3304 	add.w	r3, r3, #135168	; 0x21000
 8006994:	699a      	ldr	r2, [r3, #24]
 8006996:	a902      	add	r1, sp, #8
 8006998:	f042 0204 	orr.w	r2, r2, #4
 800699c:	619a      	str	r2, [r3, #24]
 800699e:	699b      	ldr	r3, [r3, #24]
 80069a0:	4807      	ldr	r0, [pc, #28]	; (80069c0 <HAL_TIM_MspPostInit+0x48>)
 80069a2:	f003 0304 	and.w	r3, r3, #4
 80069a6:	9301      	str	r3, [sp, #4]
 80069a8:	9b01      	ldr	r3, [sp, #4]
 80069aa:	2301      	movs	r3, #1
 80069ac:	9302      	str	r3, [sp, #8]
 80069ae:	2312      	movs	r3, #18
 80069b0:	9303      	str	r3, [sp, #12]
 80069b2:	2302      	movs	r3, #2
 80069b4:	9305      	str	r3, [sp, #20]
 80069b6:	f7fb f8af 	bl	8001b18 <HAL_GPIO_Init>
 80069ba:	b006      	add	sp, #24
 80069bc:	bd10      	pop	{r4, pc}
 80069be:	bf00      	nop
 80069c0:	40010800 	.word	0x40010800

080069c4 <NMI_Handler>:
 80069c4:	f7fc bb2c 	b.w	8003020 <HAL_RCC_NMI_IRQHandler>

080069c8 <HardFault_Handler>:
 80069c8:	e7fe      	b.n	80069c8 <HardFault_Handler>

080069ca <MemManage_Handler>:
 80069ca:	e7fe      	b.n	80069ca <MemManage_Handler>

080069cc <BusFault_Handler>:
 80069cc:	e7fe      	b.n	80069cc <BusFault_Handler>

080069ce <UsageFault_Handler>:
 80069ce:	e7fe      	b.n	80069ce <UsageFault_Handler>

080069d0 <SVC_Handler>:
 80069d0:	4770      	bx	lr

080069d2 <DebugMon_Handler>:
 80069d2:	4770      	bx	lr

080069d4 <PendSV_Handler>:
 80069d4:	4770      	bx	lr

080069d6 <SysTick_Handler>:
 80069d6:	f7fa bbef 	b.w	80011b8 <HAL_IncTick>
	...

080069dc <TIM1_UP_IRQHandler>:
 80069dc:	4801      	ldr	r0, [pc, #4]	; (80069e4 <TIM1_UP_IRQHandler+0x8>)
 80069de:	f7fd ba5a 	b.w	8003e96 <HAL_TIM_IRQHandler>
 80069e2:	bf00      	nop
 80069e4:	20000364 	.word	0x20000364

080069e8 <TIM2_IRQHandler>:
 80069e8:	4801      	ldr	r0, [pc, #4]	; (80069f0 <TIM2_IRQHandler+0x8>)
 80069ea:	f7fd ba54 	b.w	8003e96 <HAL_TIM_IRQHandler>
 80069ee:	bf00      	nop
 80069f0:	200002e4 	.word	0x200002e4

080069f4 <TIM3_IRQHandler>:
 80069f4:	4801      	ldr	r0, [pc, #4]	; (80069fc <TIM3_IRQHandler+0x8>)
 80069f6:	f7fd ba4e 	b.w	8003e96 <HAL_TIM_IRQHandler>
 80069fa:	bf00      	nop
 80069fc:	20000324 	.word	0x20000324

08006a00 <EXTI15_10_IRQHandler>:
 8006a00:	f44f 6000 	mov.w	r0, #2048	; 0x800
 8006a04:	f7fb ba30 	b.w	8001e68 <HAL_GPIO_EXTI_IRQHandler>

08006a08 <SystemInit>:
 8006a08:	4b0f      	ldr	r3, [pc, #60]	; (8006a48 <SystemInit+0x40>)
 8006a0a:	681a      	ldr	r2, [r3, #0]
 8006a0c:	f042 0201 	orr.w	r2, r2, #1
 8006a10:	601a      	str	r2, [r3, #0]
 8006a12:	6859      	ldr	r1, [r3, #4]
 8006a14:	4a0d      	ldr	r2, [pc, #52]	; (8006a4c <SystemInit+0x44>)
 8006a16:	400a      	ands	r2, r1
 8006a18:	605a      	str	r2, [r3, #4]
 8006a1a:	681a      	ldr	r2, [r3, #0]
 8006a1c:	f022 7284 	bic.w	r2, r2, #17301504	; 0x1080000
 8006a20:	f422 3280 	bic.w	r2, r2, #65536	; 0x10000
 8006a24:	601a      	str	r2, [r3, #0]
 8006a26:	681a      	ldr	r2, [r3, #0]
 8006a28:	f422 2280 	bic.w	r2, r2, #262144	; 0x40000
 8006a2c:	601a      	str	r2, [r3, #0]
 8006a2e:	685a      	ldr	r2, [r3, #4]
 8006a30:	f422 02fe 	bic.w	r2, r2, #8323072	; 0x7f0000
 8006a34:	605a      	str	r2, [r3, #4]
 8006a36:	f44f 021f 	mov.w	r2, #10420224	; 0x9f0000
 8006a3a:	609a      	str	r2, [r3, #8]
 8006a3c:	f04f 6200 	mov.w	r2, #134217728	; 0x8000000
 8006a40:	4b03      	ldr	r3, [pc, #12]	; (8006a50 <SystemInit+0x48>)
 8006a42:	609a      	str	r2, [r3, #8]
 8006a44:	4770      	bx	lr
 8006a46:	bf00      	nop
 8006a48:	40021000 	.word	0x40021000
 8006a4c:	f8ff0000 	.word	0xf8ff0000
 8006a50:	e000ed00 	.word	0xe000ed00

08006a54 <Reset_Handler>:
 8006a54:	2100      	movs	r1, #0
 8006a56:	e003      	b.n	8006a60 <LoopCopyDataInit>

08006a58 <CopyDataInit>:
 8006a58:	4b0b      	ldr	r3, [pc, #44]	; (8006a88 <LoopFillZerobss+0x14>)
 8006a5a:	585b      	ldr	r3, [r3, r1]
 8006a5c:	5043      	str	r3, [r0, r1]
 8006a5e:	3104      	adds	r1, #4

08006a60 <LoopCopyDataInit>:
 8006a60:	480a      	ldr	r0, [pc, #40]	; (8006a8c <LoopFillZerobss+0x18>)
 8006a62:	4b0b      	ldr	r3, [pc, #44]	; (8006a90 <LoopFillZerobss+0x1c>)
 8006a64:	1842      	adds	r2, r0, r1
 8006a66:	429a      	cmp	r2, r3
 8006a68:	d3f6      	bcc.n	8006a58 <CopyDataInit>
 8006a6a:	4a0a      	ldr	r2, [pc, #40]	; (8006a94 <LoopFillZerobss+0x20>)
 8006a6c:	e002      	b.n	8006a74 <LoopFillZerobss>

08006a6e <FillZerobss>:
 8006a6e:	2300      	movs	r3, #0
 8006a70:	f842 3b04 	str.w	r3, [r2], #4

08006a74 <LoopFillZerobss>:
 8006a74:	4b08      	ldr	r3, [pc, #32]	; (8006a98 <LoopFillZerobss+0x24>)
 8006a76:	429a      	cmp	r2, r3
 8006a78:	d3f9      	bcc.n	8006a6e <FillZerobss>
 8006a7a:	f7ff ffc5 	bl	8006a08 <SystemInit>
 8006a7e:	f000 f80f 	bl	8006aa0 <__libc_init_array>
 8006a82:	f7ff fbe1 	bl	8006248 <main>
 8006a86:	4770      	bx	lr
 8006a88:	08008368 	.word	0x08008368
 8006a8c:	20000000 	.word	0x20000000
 8006a90:	20000078 	.word	0x20000078
 8006a94:	20000078 	.word	0x20000078
 8006a98:	200003ac 	.word	0x200003ac

08006a9c <ADC1_2_IRQHandler>:
 8006a9c:	e7fe      	b.n	8006a9c <ADC1_2_IRQHandler>
	...

08006aa0 <__libc_init_array>:
 8006aa0:	b570      	push	{r4, r5, r6, lr}
 8006aa2:	2500      	movs	r5, #0
 8006aa4:	4e0c      	ldr	r6, [pc, #48]	; (8006ad8 <__libc_init_array+0x38>)
 8006aa6:	4c0d      	ldr	r4, [pc, #52]	; (8006adc <__libc_init_array+0x3c>)
 8006aa8:	1ba4      	subs	r4, r4, r6
 8006aaa:	10a4      	asrs	r4, r4, #2
 8006aac:	42a5      	cmp	r5, r4
 8006aae:	d109      	bne.n	8006ac4 <__libc_init_array+0x24>
 8006ab0:	f001 f896 	bl	8007be0 <_init>
 8006ab4:	2500      	movs	r5, #0
 8006ab6:	4e0a      	ldr	r6, [pc, #40]	; (8006ae0 <__libc_init_array+0x40>)
 8006ab8:	4c0a      	ldr	r4, [pc, #40]	; (8006ae4 <__libc_init_array+0x44>)
 8006aba:	1ba4      	subs	r4, r4, r6
 8006abc:	10a4      	asrs	r4, r4, #2
 8006abe:	42a5      	cmp	r5, r4
 8006ac0:	d105      	bne.n	8006ace <__libc_init_array+0x2e>
 8006ac2:	bd70      	pop	{r4, r5, r6, pc}
 8006ac4:	f856 3025 	ldr.w	r3, [r6, r5, lsl #2]
 8006ac8:	4798      	blx	r3
 8006aca:	3501      	adds	r5, #1
 8006acc:	e7ee      	b.n	8006aac <__libc_init_array+0xc>
 8006ace:	f856 3025 	ldr.w	r3, [r6, r5, lsl #2]
 8006ad2:	4798      	blx	r3
 8006ad4:	3501      	adds	r5, #1
 8006ad6:	e7f2      	b.n	8006abe <__libc_init_array+0x1e>
 8006ad8:	08008360 	.word	0x08008360
 8006adc:	08008360 	.word	0x08008360
 8006ae0:	08008360 	.word	0x08008360
 8006ae4:	08008364 	.word	0x08008364

08006ae8 <__itoa>:
 8006ae8:	1e93      	subs	r3, r2, #2
 8006aea:	2b22      	cmp	r3, #34	; 0x22
 8006aec:	b510      	push	{r4, lr}
 8006aee:	460c      	mov	r4, r1
 8006af0:	d904      	bls.n	8006afc <__itoa+0x14>
 8006af2:	2300      	movs	r3, #0
 8006af4:	461c      	mov	r4, r3
 8006af6:	700b      	strb	r3, [r1, #0]
 8006af8:	4620      	mov	r0, r4
 8006afa:	bd10      	pop	{r4, pc}
 8006afc:	2a0a      	cmp	r2, #10
 8006afe:	d109      	bne.n	8006b14 <__itoa+0x2c>
 8006b00:	2800      	cmp	r0, #0
 8006b02:	da07      	bge.n	8006b14 <__itoa+0x2c>
 8006b04:	232d      	movs	r3, #45	; 0x2d
 8006b06:	700b      	strb	r3, [r1, #0]
 8006b08:	2101      	movs	r1, #1
 8006b0a:	4240      	negs	r0, r0
 8006b0c:	4421      	add	r1, r4
 8006b0e:	f000 f80d 	bl	8006b2c <__utoa>
 8006b12:	e7f1      	b.n	8006af8 <__itoa+0x10>
 8006b14:	2100      	movs	r1, #0
 8006b16:	e7f9      	b.n	8006b0c <__itoa+0x24>

08006b18 <itoa>:
 8006b18:	f7ff bfe6 	b.w	8006ae8 <__itoa>

08006b1c <memset>:
 8006b1c:	4603      	mov	r3, r0
 8006b1e:	4402      	add	r2, r0
 8006b20:	4293      	cmp	r3, r2
 8006b22:	d100      	bne.n	8006b26 <memset+0xa>
 8006b24:	4770      	bx	lr
 8006b26:	f803 1b01 	strb.w	r1, [r3], #1
 8006b2a:	e7f9      	b.n	8006b20 <memset+0x4>

08006b2c <__utoa>:
 8006b2c:	b5f0      	push	{r4, r5, r6, r7, lr}
 8006b2e:	b08b      	sub	sp, #44	; 0x2c
 8006b30:	4603      	mov	r3, r0
 8006b32:	460f      	mov	r7, r1
 8006b34:	466d      	mov	r5, sp
 8006b36:	4c1c      	ldr	r4, [pc, #112]	; (8006ba8 <__utoa+0x7c>)
 8006b38:	f104 0e20 	add.w	lr, r4, #32
 8006b3c:	462e      	mov	r6, r5
 8006b3e:	6820      	ldr	r0, [r4, #0]
 8006b40:	6861      	ldr	r1, [r4, #4]
 8006b42:	3408      	adds	r4, #8
 8006b44:	c603      	stmia	r6!, {r0, r1}
 8006b46:	4574      	cmp	r4, lr
 8006b48:	4635      	mov	r5, r6
 8006b4a:	d1f7      	bne.n	8006b3c <__utoa+0x10>
 8006b4c:	7921      	ldrb	r1, [r4, #4]
 8006b4e:	6820      	ldr	r0, [r4, #0]
 8006b50:	7131      	strb	r1, [r6, #4]
 8006b52:	1e91      	subs	r1, r2, #2
 8006b54:	2922      	cmp	r1, #34	; 0x22
 8006b56:	6030      	str	r0, [r6, #0]
 8006b58:	f04f 0100 	mov.w	r1, #0
 8006b5c:	d904      	bls.n	8006b68 <__utoa+0x3c>
 8006b5e:	7039      	strb	r1, [r7, #0]
 8006b60:	460f      	mov	r7, r1
 8006b62:	4638      	mov	r0, r7
 8006b64:	b00b      	add	sp, #44	; 0x2c
 8006b66:	bdf0      	pop	{r4, r5, r6, r7, pc}
 8006b68:	1e78      	subs	r0, r7, #1
 8006b6a:	4606      	mov	r6, r0
 8006b6c:	fbb3 f5f2 	udiv	r5, r3, r2
 8006b70:	fb02 3315 	mls	r3, r2, r5, r3
 8006b74:	f10d 0e28 	add.w	lr, sp, #40	; 0x28
 8006b78:	4473      	add	r3, lr
 8006b7a:	f813 3c28 	ldrb.w	r3, [r3, #-40]
 8006b7e:	1c4c      	adds	r4, r1, #1
 8006b80:	f806 3f01 	strb.w	r3, [r6, #1]!
 8006b84:	462b      	mov	r3, r5
 8006b86:	b965      	cbnz	r5, 8006ba2 <__utoa+0x76>
 8006b88:	553d      	strb	r5, [r7, r4]
 8006b8a:	187a      	adds	r2, r7, r1
 8006b8c:	1acc      	subs	r4, r1, r3
 8006b8e:	42a3      	cmp	r3, r4
 8006b90:	dae7      	bge.n	8006b62 <__utoa+0x36>
 8006b92:	7844      	ldrb	r4, [r0, #1]
 8006b94:	7815      	ldrb	r5, [r2, #0]
 8006b96:	3301      	adds	r3, #1
 8006b98:	f800 5f01 	strb.w	r5, [r0, #1]!
 8006b9c:	f802 4901 	strb.w	r4, [r2], #-1
 8006ba0:	e7f4      	b.n	8006b8c <__utoa+0x60>
 8006ba2:	4621      	mov	r1, r4
 8006ba4:	e7e2      	b.n	8006b6c <__utoa+0x40>
 8006ba6:	bf00      	nop
 8006ba8:	08008290 	.word	0x08008290

08006bac <pow>:
 8006bac:	e92d 4ff0 	stmdb	sp!, {r4, r5, r6, r7, r8, r9, sl, fp, lr}
 8006bb0:	b08f      	sub	sp, #60	; 0x3c
 8006bb2:	461d      	mov	r5, r3
 8006bb4:	4680      	mov	r8, r0
 8006bb6:	4689      	mov	r9, r1
 8006bb8:	4614      	mov	r4, r2
 8006bba:	f000 f95d 	bl	8006e78 <__ieee754_pow>
 8006bbe:	4fa5      	ldr	r7, [pc, #660]	; (8006e54 <pow+0x2a8>)
 8006bc0:	e9cd 0100 	strd	r0, r1, [sp]
 8006bc4:	f997 3000 	ldrsb.w	r3, [r7]
 8006bc8:	463e      	mov	r6, r7
 8006bca:	9302      	str	r3, [sp, #8]
 8006bcc:	3301      	adds	r3, #1
 8006bce:	d05f      	beq.n	8006c90 <pow+0xe4>
 8006bd0:	4622      	mov	r2, r4
 8006bd2:	462b      	mov	r3, r5
 8006bd4:	4620      	mov	r0, r4
 8006bd6:	4629      	mov	r1, r5
 8006bd8:	f7f9 ff0c 	bl	80009f4 <__aeabi_dcmpun>
 8006bdc:	4682      	mov	sl, r0
 8006bde:	2800      	cmp	r0, #0
 8006be0:	d156      	bne.n	8006c90 <pow+0xe4>
 8006be2:	4642      	mov	r2, r8
 8006be4:	464b      	mov	r3, r9
 8006be6:	4640      	mov	r0, r8
 8006be8:	4649      	mov	r1, r9
 8006bea:	f7f9 ff03 	bl	80009f4 <__aeabi_dcmpun>
 8006bee:	9003      	str	r0, [sp, #12]
 8006bf0:	b1e8      	cbz	r0, 8006c2e <pow+0x82>
 8006bf2:	2200      	movs	r2, #0
 8006bf4:	2300      	movs	r3, #0
 8006bf6:	4620      	mov	r0, r4
 8006bf8:	4629      	mov	r1, r5
 8006bfa:	f7f9 fec9 	bl	8000990 <__aeabi_dcmpeq>
 8006bfe:	2800      	cmp	r0, #0
 8006c00:	d046      	beq.n	8006c90 <pow+0xe4>
 8006c02:	2301      	movs	r3, #1
 8006c04:	2200      	movs	r2, #0
 8006c06:	9304      	str	r3, [sp, #16]
 8006c08:	4b93      	ldr	r3, [pc, #588]	; (8006e58 <pow+0x2ac>)
 8006c0a:	f8cd a030 	str.w	sl, [sp, #48]	; 0x30
 8006c0e:	9305      	str	r3, [sp, #20]
 8006c10:	4b92      	ldr	r3, [pc, #584]	; (8006e5c <pow+0x2b0>)
 8006c12:	e9cd 8906 	strd	r8, r9, [sp, #24]
 8006c16:	e9cd 230a 	strd	r2, r3, [sp, #40]	; 0x28
 8006c1a:	9b02      	ldr	r3, [sp, #8]
 8006c1c:	e9cd 4508 	strd	r4, r5, [sp, #32]
 8006c20:	2b02      	cmp	r3, #2
 8006c22:	d031      	beq.n	8006c88 <pow+0xdc>
 8006c24:	a804      	add	r0, sp, #16
 8006c26:	f000 fece 	bl	80079c6 <matherr>
 8006c2a:	bb38      	cbnz	r0, 8006c7c <pow+0xd0>
 8006c2c:	e058      	b.n	8006ce0 <pow+0x134>
 8006c2e:	f04f 0a00 	mov.w	sl, #0
 8006c32:	f04f 0b00 	mov.w	fp, #0
 8006c36:	4652      	mov	r2, sl
 8006c38:	465b      	mov	r3, fp
 8006c3a:	4640      	mov	r0, r8
 8006c3c:	4649      	mov	r1, r9
 8006c3e:	f7f9 fea7 	bl	8000990 <__aeabi_dcmpeq>
 8006c42:	2800      	cmp	r0, #0
 8006c44:	d051      	beq.n	8006cea <pow+0x13e>
 8006c46:	4652      	mov	r2, sl
 8006c48:	465b      	mov	r3, fp
 8006c4a:	4620      	mov	r0, r4
 8006c4c:	4629      	mov	r1, r5
 8006c4e:	f7f9 fe9f 	bl	8000990 <__aeabi_dcmpeq>
 8006c52:	4606      	mov	r6, r0
 8006c54:	b308      	cbz	r0, 8006c9a <pow+0xee>
 8006c56:	2301      	movs	r3, #1
 8006c58:	9304      	str	r3, [sp, #16]
 8006c5a:	4b7f      	ldr	r3, [pc, #508]	; (8006e58 <pow+0x2ac>)
 8006c5c:	e9cd 8906 	strd	r8, r9, [sp, #24]
 8006c60:	9305      	str	r3, [sp, #20]
 8006c62:	9b03      	ldr	r3, [sp, #12]
 8006c64:	e9cd 4508 	strd	r4, r5, [sp, #32]
 8006c68:	930c      	str	r3, [sp, #48]	; 0x30
 8006c6a:	9b02      	ldr	r3, [sp, #8]
 8006c6c:	e9cd ab0a 	strd	sl, fp, [sp, #40]	; 0x28
 8006c70:	2b00      	cmp	r3, #0
 8006c72:	d0d7      	beq.n	8006c24 <pow+0x78>
 8006c74:	2200      	movs	r2, #0
 8006c76:	4b79      	ldr	r3, [pc, #484]	; (8006e5c <pow+0x2b0>)
 8006c78:	e9cd 230a 	strd	r2, r3, [sp, #40]	; 0x28
 8006c7c:	9b0c      	ldr	r3, [sp, #48]	; 0x30
 8006c7e:	b11b      	cbz	r3, 8006c88 <pow+0xdc>
 8006c80:	f000 ffa8 	bl	8007bd4 <__errno>
 8006c84:	9b0c      	ldr	r3, [sp, #48]	; 0x30
 8006c86:	6003      	str	r3, [r0, #0]
 8006c88:	e9dd 340a 	ldrd	r3, r4, [sp, #40]	; 0x28
 8006c8c:	e88d 0018 	stmia.w	sp, {r3, r4}
 8006c90:	e9dd 0100 	ldrd	r0, r1, [sp]
 8006c94:	b00f      	add	sp, #60	; 0x3c
 8006c96:	e8bd 8ff0 	ldmia.w	sp!, {r4, r5, r6, r7, r8, r9, sl, fp, pc}
 8006c9a:	4620      	mov	r0, r4
 8006c9c:	4629      	mov	r1, r5
 8006c9e:	f000 fe8c 	bl	80079ba <finite>
 8006ca2:	2800      	cmp	r0, #0
 8006ca4:	d0f4      	beq.n	8006c90 <pow+0xe4>
 8006ca6:	4652      	mov	r2, sl
 8006ca8:	465b      	mov	r3, fp
 8006caa:	4620      	mov	r0, r4
 8006cac:	4629      	mov	r1, r5
 8006cae:	f7f9 fe79 	bl	80009a4 <__aeabi_dcmplt>
 8006cb2:	2800      	cmp	r0, #0
 8006cb4:	d0ec      	beq.n	8006c90 <pow+0xe4>
 8006cb6:	2301      	movs	r3, #1
 8006cb8:	9304      	str	r3, [sp, #16]
 8006cba:	4b67      	ldr	r3, [pc, #412]	; (8006e58 <pow+0x2ac>)
 8006cbc:	960c      	str	r6, [sp, #48]	; 0x30
 8006cbe:	9305      	str	r3, [sp, #20]
 8006cc0:	f997 3000 	ldrsb.w	r3, [r7]
 8006cc4:	e9cd 8906 	strd	r8, r9, [sp, #24]
 8006cc8:	e9cd 4508 	strd	r4, r5, [sp, #32]
 8006ccc:	b913      	cbnz	r3, 8006cd4 <pow+0x128>
 8006cce:	e9cd ab0a 	strd	sl, fp, [sp, #40]	; 0x28
 8006cd2:	e7a7      	b.n	8006c24 <pow+0x78>
 8006cd4:	2000      	movs	r0, #0
 8006cd6:	4962      	ldr	r1, [pc, #392]	; (8006e60 <pow+0x2b4>)
 8006cd8:	2b02      	cmp	r3, #2
 8006cda:	e9cd 010a 	strd	r0, r1, [sp, #40]	; 0x28
 8006cde:	d1a1      	bne.n	8006c24 <pow+0x78>
 8006ce0:	f000 ff78 	bl	8007bd4 <__errno>
 8006ce4:	2321      	movs	r3, #33	; 0x21
 8006ce6:	6003      	str	r3, [r0, #0]
 8006ce8:	e7c8      	b.n	8006c7c <pow+0xd0>
 8006cea:	e9dd 0100 	ldrd	r0, r1, [sp]
 8006cee:	f000 fe64 	bl	80079ba <finite>
 8006cf2:	9002      	str	r0, [sp, #8]
 8006cf4:	2800      	cmp	r0, #0
 8006cf6:	d17f      	bne.n	8006df8 <pow+0x24c>
 8006cf8:	4640      	mov	r0, r8
 8006cfa:	4649      	mov	r1, r9
 8006cfc:	f000 fe5d 	bl	80079ba <finite>
 8006d00:	2800      	cmp	r0, #0
 8006d02:	d079      	beq.n	8006df8 <pow+0x24c>
 8006d04:	4620      	mov	r0, r4
 8006d06:	4629      	mov	r1, r5
 8006d08:	f000 fe57 	bl	80079ba <finite>
 8006d0c:	2800      	cmp	r0, #0
 8006d0e:	d073      	beq.n	8006df8 <pow+0x24c>
 8006d10:	e9dd 2300 	ldrd	r2, r3, [sp]
 8006d14:	4619      	mov	r1, r3
 8006d16:	4610      	mov	r0, r2
 8006d18:	f7f9 fe6c 	bl	80009f4 <__aeabi_dcmpun>
 8006d1c:	f997 7000 	ldrsb.w	r7, [r7]
 8006d20:	4b4d      	ldr	r3, [pc, #308]	; (8006e58 <pow+0x2ac>)
 8006d22:	b1a0      	cbz	r0, 8006d4e <pow+0x1a2>
 8006d24:	2201      	movs	r2, #1
 8006d26:	9305      	str	r3, [sp, #20]
 8006d28:	9b02      	ldr	r3, [sp, #8]
 8006d2a:	9204      	str	r2, [sp, #16]
 8006d2c:	930c      	str	r3, [sp, #48]	; 0x30
 8006d2e:	e9cd 8906 	strd	r8, r9, [sp, #24]
 8006d32:	e9cd 4508 	strd	r4, r5, [sp, #32]
 8006d36:	2f00      	cmp	r7, #0
 8006d38:	d0c9      	beq.n	8006cce <pow+0x122>
 8006d3a:	4652      	mov	r2, sl
 8006d3c:	465b      	mov	r3, fp
 8006d3e:	4650      	mov	r0, sl
 8006d40:	4659      	mov	r1, fp
 8006d42:	f7f9 fce7 	bl	8000714 <__aeabi_ddiv>
 8006d46:	2f02      	cmp	r7, #2
 8006d48:	e9cd 010a 	strd	r0, r1, [sp, #40]	; 0x28
 8006d4c:	e7c7      	b.n	8006cde <pow+0x132>
 8006d4e:	2203      	movs	r2, #3
 8006d50:	9305      	str	r3, [sp, #20]
 8006d52:	9204      	str	r2, [sp, #16]
 8006d54:	900c      	str	r0, [sp, #48]	; 0x30
 8006d56:	e9cd 8906 	strd	r8, r9, [sp, #24]
 8006d5a:	e9cd 4508 	strd	r4, r5, [sp, #32]
 8006d5e:	bb57      	cbnz	r7, 8006db6 <pow+0x20a>
 8006d60:	f04f 4260 	mov.w	r2, #3758096384	; 0xe0000000
 8006d64:	4b3f      	ldr	r3, [pc, #252]	; (8006e64 <pow+0x2b8>)
 8006d66:	4640      	mov	r0, r8
 8006d68:	e9cd 230a 	strd	r2, r3, [sp, #40]	; 0x28
 8006d6c:	4649      	mov	r1, r9
 8006d6e:	4652      	mov	r2, sl
 8006d70:	465b      	mov	r3, fp
 8006d72:	f7f9 fe17 	bl	80009a4 <__aeabi_dcmplt>
 8006d76:	2800      	cmp	r0, #0
 8006d78:	d064      	beq.n	8006e44 <pow+0x298>
 8006d7a:	2200      	movs	r2, #0
 8006d7c:	4b3a      	ldr	r3, [pc, #232]	; (8006e68 <pow+0x2bc>)
 8006d7e:	4620      	mov	r0, r4
 8006d80:	4629      	mov	r1, r5
 8006d82:	f7f9 fb9d 	bl	80004c0 <__aeabi_dmul>
 8006d86:	4604      	mov	r4, r0
 8006d88:	460d      	mov	r5, r1
 8006d8a:	f000 fe25 	bl	80079d8 <rint>
 8006d8e:	4602      	mov	r2, r0
 8006d90:	460b      	mov	r3, r1
 8006d92:	4620      	mov	r0, r4
 8006d94:	4629      	mov	r1, r5
 8006d96:	f7f9 fdfb 	bl	8000990 <__aeabi_dcmpeq>
 8006d9a:	b920      	cbnz	r0, 8006da6 <pow+0x1fa>
 8006d9c:	f04f 4260 	mov.w	r2, #3758096384	; 0xe0000000
 8006da0:	4b32      	ldr	r3, [pc, #200]	; (8006e6c <pow+0x2c0>)
 8006da2:	e9cd 230a 	strd	r2, r3, [sp, #40]	; 0x28
 8006da6:	f996 3000 	ldrsb.w	r3, [r6]
 8006daa:	2b02      	cmp	r3, #2
 8006dac:	d14a      	bne.n	8006e44 <pow+0x298>
 8006dae:	f000 ff11 	bl	8007bd4 <__errno>
 8006db2:	2322      	movs	r3, #34	; 0x22
 8006db4:	e797      	b.n	8006ce6 <pow+0x13a>
 8006db6:	2200      	movs	r2, #0
 8006db8:	4b2d      	ldr	r3, [pc, #180]	; (8006e70 <pow+0x2c4>)
 8006dba:	4640      	mov	r0, r8
 8006dbc:	e9cd 230a 	strd	r2, r3, [sp, #40]	; 0x28
 8006dc0:	4649      	mov	r1, r9
 8006dc2:	4652      	mov	r2, sl
 8006dc4:	465b      	mov	r3, fp
 8006dc6:	f7f9 fded 	bl	80009a4 <__aeabi_dcmplt>
 8006dca:	2800      	cmp	r0, #0
 8006dcc:	d0eb      	beq.n	8006da6 <pow+0x1fa>
 8006dce:	2200      	movs	r2, #0
 8006dd0:	4b25      	ldr	r3, [pc, #148]	; (8006e68 <pow+0x2bc>)
 8006dd2:	4620      	mov	r0, r4
 8006dd4:	4629      	mov	r1, r5
 8006dd6:	f7f9 fb73 	bl	80004c0 <__aeabi_dmul>
 8006dda:	4604      	mov	r4, r0
 8006ddc:	460d      	mov	r5, r1
 8006dde:	f000 fdfb 	bl	80079d8 <rint>
 8006de2:	4602      	mov	r2, r0
 8006de4:	460b      	mov	r3, r1
 8006de6:	4620      	mov	r0, r4
 8006de8:	4629      	mov	r1, r5
 8006dea:	f7f9 fdd1 	bl	8000990 <__aeabi_dcmpeq>
 8006dee:	2800      	cmp	r0, #0
 8006df0:	d1d9      	bne.n	8006da6 <pow+0x1fa>
 8006df2:	2200      	movs	r2, #0
 8006df4:	4b1a      	ldr	r3, [pc, #104]	; (8006e60 <pow+0x2b4>)
 8006df6:	e7d4      	b.n	8006da2 <pow+0x1f6>
 8006df8:	2200      	movs	r2, #0
 8006dfa:	e9dd 0100 	ldrd	r0, r1, [sp]
 8006dfe:	2300      	movs	r3, #0
 8006e00:	f7f9 fdc6 	bl	8000990 <__aeabi_dcmpeq>
 8006e04:	2800      	cmp	r0, #0
 8006e06:	f43f af43 	beq.w	8006c90 <pow+0xe4>
 8006e0a:	4640      	mov	r0, r8
 8006e0c:	4649      	mov	r1, r9
 8006e0e:	f000 fdd4 	bl	80079ba <finite>
 8006e12:	2800      	cmp	r0, #0
 8006e14:	f43f af3c 	beq.w	8006c90 <pow+0xe4>
 8006e18:	4620      	mov	r0, r4
 8006e1a:	4629      	mov	r1, r5
 8006e1c:	f000 fdcd 	bl	80079ba <finite>
 8006e20:	2800      	cmp	r0, #0
 8006e22:	f43f af35 	beq.w	8006c90 <pow+0xe4>
 8006e26:	2304      	movs	r3, #4
 8006e28:	9304      	str	r3, [sp, #16]
 8006e2a:	4b0b      	ldr	r3, [pc, #44]	; (8006e58 <pow+0x2ac>)
 8006e2c:	e9cd 4508 	strd	r4, r5, [sp, #32]
 8006e30:	9305      	str	r3, [sp, #20]
 8006e32:	2300      	movs	r3, #0
 8006e34:	2400      	movs	r4, #0
 8006e36:	930c      	str	r3, [sp, #48]	; 0x30
 8006e38:	2300      	movs	r3, #0
 8006e3a:	e9cd 8906 	strd	r8, r9, [sp, #24]
 8006e3e:	e9cd 340a 	strd	r3, r4, [sp, #40]	; 0x28
 8006e42:	e7b0      	b.n	8006da6 <pow+0x1fa>
 8006e44:	a804      	add	r0, sp, #16
 8006e46:	f000 fdbe 	bl	80079c6 <matherr>
 8006e4a:	2800      	cmp	r0, #0
 8006e4c:	f47f af16 	bne.w	8006c7c <pow+0xd0>
 8006e50:	e7ad      	b.n	8006dae <pow+0x202>
 8006e52:	bf00      	nop
 8006e54:	20000074 	.word	0x20000074
 8006e58:	08008318 	.word	0x08008318
 8006e5c:	3ff00000 	.word	0x3ff00000
 8006e60:	fff00000 	.word	0xfff00000
 8006e64:	47efffff 	.word	0x47efffff
 8006e68:	3fe00000 	.word	0x3fe00000
 8006e6c:	c7efffff 	.word	0xc7efffff
 8006e70:	7ff00000 	.word	0x7ff00000
 8006e74:	00000000 	.word	0x00000000

08006e78 <__ieee754_pow>:
 8006e78:	e92d 4ff0 	stmdb	sp!, {r4, r5, r6, r7, r8, r9, sl, fp, lr}
 8006e7c:	b093      	sub	sp, #76	; 0x4c
 8006e7e:	e9cd 2302 	strd	r2, r3, [sp, #8]
 8006e82:	9e03      	ldr	r6, [sp, #12]
 8006e84:	9a02      	ldr	r2, [sp, #8]
 8006e86:	f026 4500 	bic.w	r5, r6, #2147483648	; 0x80000000
 8006e8a:	ea55 0302 	orrs.w	r3, r5, r2
 8006e8e:	4607      	mov	r7, r0
 8006e90:	4688      	mov	r8, r1
 8006e92:	4682      	mov	sl, r0
 8006e94:	4689      	mov	r9, r1
 8006e96:	f000 849e 	beq.w	80077d6 <__ieee754_pow+0x95e>
 8006e9a:	4b77      	ldr	r3, [pc, #476]	; (8007078 <__ieee754_pow+0x200>)
 8006e9c:	f021 4400 	bic.w	r4, r1, #2147483648	; 0x80000000
 8006ea0:	429c      	cmp	r4, r3
 8006ea2:	dc09      	bgt.n	8006eb8 <__ieee754_pow+0x40>
 8006ea4:	d103      	bne.n	8006eae <__ieee754_pow+0x36>
 8006ea6:	b938      	cbnz	r0, 8006eb8 <__ieee754_pow+0x40>
 8006ea8:	42a5      	cmp	r5, r4
 8006eaa:	dc0d      	bgt.n	8006ec8 <__ieee754_pow+0x50>
 8006eac:	e001      	b.n	8006eb2 <__ieee754_pow+0x3a>
 8006eae:	429d      	cmp	r5, r3
 8006eb0:	dc02      	bgt.n	8006eb8 <__ieee754_pow+0x40>
 8006eb2:	429d      	cmp	r5, r3
 8006eb4:	d10e      	bne.n	8006ed4 <__ieee754_pow+0x5c>
 8006eb6:	b16a      	cbz	r2, 8006ed4 <__ieee754_pow+0x5c>
 8006eb8:	f104 4440 	add.w	r4, r4, #3221225472	; 0xc0000000
 8006ebc:	f504 1480 	add.w	r4, r4, #1048576	; 0x100000
 8006ec0:	ea54 030a 	orrs.w	r3, r4, sl
 8006ec4:	f000 8487 	beq.w	80077d6 <__ieee754_pow+0x95e>
 8006ec8:	486c      	ldr	r0, [pc, #432]	; (800707c <__ieee754_pow+0x204>)
 8006eca:	b013      	add	sp, #76	; 0x4c
 8006ecc:	e8bd 4ff0 	ldmia.w	sp!, {r4, r5, r6, r7, r8, r9, sl, fp, lr}
 8006ed0:	f000 bd7c 	b.w	80079cc <nan>
 8006ed4:	f1b9 0f00 	cmp.w	r9, #0
 8006ed8:	da4f      	bge.n	8006f7a <__ieee754_pow+0x102>
 8006eda:	4b69      	ldr	r3, [pc, #420]	; (8007080 <__ieee754_pow+0x208>)
 8006edc:	429d      	cmp	r5, r3
 8006ede:	dc4a      	bgt.n	8006f76 <__ieee754_pow+0xfe>
 8006ee0:	f1a3 7354 	sub.w	r3, r3, #55574528	; 0x3500000
 8006ee4:	429d      	cmp	r5, r3
 8006ee6:	dd48      	ble.n	8006f7a <__ieee754_pow+0x102>
 8006ee8:	152b      	asrs	r3, r5, #20
 8006eea:	f2a3 33ff 	subw	r3, r3, #1023	; 0x3ff
 8006eee:	2b14      	cmp	r3, #20
 8006ef0:	dd24      	ble.n	8006f3c <__ieee754_pow+0xc4>
 8006ef2:	f1c3 0334 	rsb	r3, r3, #52	; 0x34
 8006ef6:	fa22 f103 	lsr.w	r1, r2, r3
 8006efa:	fa01 f303 	lsl.w	r3, r1, r3
 8006efe:	429a      	cmp	r2, r3
 8006f00:	d13b      	bne.n	8006f7a <__ieee754_pow+0x102>
 8006f02:	f001 0101 	and.w	r1, r1, #1
 8006f06:	f1c1 0302 	rsb	r3, r1, #2
 8006f0a:	9300      	str	r3, [sp, #0]
 8006f0c:	2a00      	cmp	r2, #0
 8006f0e:	d156      	bne.n	8006fbe <__ieee754_pow+0x146>
 8006f10:	4b59      	ldr	r3, [pc, #356]	; (8007078 <__ieee754_pow+0x200>)
 8006f12:	429d      	cmp	r5, r3
 8006f14:	d122      	bne.n	8006f5c <__ieee754_pow+0xe4>
 8006f16:	f104 4340 	add.w	r3, r4, #3221225472	; 0xc0000000
 8006f1a:	f503 1380 	add.w	r3, r3, #1048576	; 0x100000
 8006f1e:	ea53 030a 	orrs.w	r3, r3, sl
 8006f22:	f000 8458 	beq.w	80077d6 <__ieee754_pow+0x95e>
 8006f26:	4b57      	ldr	r3, [pc, #348]	; (8007084 <__ieee754_pow+0x20c>)
 8006f28:	429c      	cmp	r4, r3
 8006f2a:	dd28      	ble.n	8006f7e <__ieee754_pow+0x106>
 8006f2c:	2e00      	cmp	r6, #0
 8006f2e:	f280 8456 	bge.w	80077de <__ieee754_pow+0x966>
 8006f32:	2000      	movs	r0, #0
 8006f34:	2100      	movs	r1, #0
 8006f36:	b013      	add	sp, #76	; 0x4c
 8006f38:	e8bd 8ff0 	ldmia.w	sp!, {r4, r5, r6, r7, r8, r9, sl, fp, pc}
 8006f3c:	2a00      	cmp	r2, #0
 8006f3e:	d13c      	bne.n	8006fba <__ieee754_pow+0x142>
 8006f40:	f1c3 0314 	rsb	r3, r3, #20
 8006f44:	fa45 f103 	asr.w	r1, r5, r3
 8006f48:	fa01 f303 	lsl.w	r3, r1, r3
 8006f4c:	429d      	cmp	r5, r3
 8006f4e:	f040 844e 	bne.w	80077ee <__ieee754_pow+0x976>
 8006f52:	f001 0101 	and.w	r1, r1, #1
 8006f56:	f1c1 0302 	rsb	r3, r1, #2
 8006f5a:	9300      	str	r3, [sp, #0]
 8006f5c:	4b4a      	ldr	r3, [pc, #296]	; (8007088 <__ieee754_pow+0x210>)
 8006f5e:	429d      	cmp	r5, r3
 8006f60:	d114      	bne.n	8006f8c <__ieee754_pow+0x114>
 8006f62:	2e00      	cmp	r6, #0
 8006f64:	f280 843f 	bge.w	80077e6 <__ieee754_pow+0x96e>
 8006f68:	463a      	mov	r2, r7
 8006f6a:	4643      	mov	r3, r8
 8006f6c:	2000      	movs	r0, #0
 8006f6e:	4946      	ldr	r1, [pc, #280]	; (8007088 <__ieee754_pow+0x210>)
 8006f70:	f7f9 fbd0 	bl	8000714 <__aeabi_ddiv>
 8006f74:	e7df      	b.n	8006f36 <__ieee754_pow+0xbe>
 8006f76:	2302      	movs	r3, #2
 8006f78:	e7c7      	b.n	8006f0a <__ieee754_pow+0x92>
 8006f7a:	2300      	movs	r3, #0
 8006f7c:	e7c5      	b.n	8006f0a <__ieee754_pow+0x92>
 8006f7e:	2e00      	cmp	r6, #0
 8006f80:	dad7      	bge.n	8006f32 <__ieee754_pow+0xba>
 8006f82:	9b03      	ldr	r3, [sp, #12]
 8006f84:	9802      	ldr	r0, [sp, #8]
 8006f86:	f103 4100 	add.w	r1, r3, #2147483648	; 0x80000000
 8006f8a:	e7d4      	b.n	8006f36 <__ieee754_pow+0xbe>
 8006f8c:	f1b6 4f80 	cmp.w	r6, #1073741824	; 0x40000000
 8006f90:	d106      	bne.n	8006fa0 <__ieee754_pow+0x128>
 8006f92:	463a      	mov	r2, r7
 8006f94:	4643      	mov	r3, r8
 8006f96:	4638      	mov	r0, r7
 8006f98:	4641      	mov	r1, r8
 8006f9a:	f7f9 fa91 	bl	80004c0 <__aeabi_dmul>
 8006f9e:	e7ca      	b.n	8006f36 <__ieee754_pow+0xbe>
 8006fa0:	4b3a      	ldr	r3, [pc, #232]	; (800708c <__ieee754_pow+0x214>)
 8006fa2:	429e      	cmp	r6, r3
 8006fa4:	d10b      	bne.n	8006fbe <__ieee754_pow+0x146>
 8006fa6:	f1b9 0f00 	cmp.w	r9, #0
 8006faa:	db08      	blt.n	8006fbe <__ieee754_pow+0x146>
 8006fac:	4638      	mov	r0, r7
 8006fae:	4641      	mov	r1, r8
 8006fb0:	b013      	add	sp, #76	; 0x4c
 8006fb2:	e8bd 4ff0 	ldmia.w	sp!, {r4, r5, r6, r7, r8, r9, sl, fp, lr}
 8006fb6:	f000 bc51 	b.w	800785c <__ieee754_sqrt>
 8006fba:	2300      	movs	r3, #0
 8006fbc:	9300      	str	r3, [sp, #0]
 8006fbe:	4638      	mov	r0, r7
 8006fc0:	4641      	mov	r1, r8
 8006fc2:	f000 fcf7 	bl	80079b4 <fabs>
 8006fc6:	f1ba 0f00 	cmp.w	sl, #0
 8006fca:	d125      	bne.n	8007018 <__ieee754_pow+0x1a0>
 8006fcc:	b124      	cbz	r4, 8006fd8 <__ieee754_pow+0x160>
 8006fce:	4b2e      	ldr	r3, [pc, #184]	; (8007088 <__ieee754_pow+0x210>)
 8006fd0:	f029 4240 	bic.w	r2, r9, #3221225472	; 0xc0000000
 8006fd4:	429a      	cmp	r2, r3
 8006fd6:	d11f      	bne.n	8007018 <__ieee754_pow+0x1a0>
 8006fd8:	2e00      	cmp	r6, #0
 8006fda:	da05      	bge.n	8006fe8 <__ieee754_pow+0x170>
 8006fdc:	4602      	mov	r2, r0
 8006fde:	460b      	mov	r3, r1
 8006fe0:	2000      	movs	r0, #0
 8006fe2:	4929      	ldr	r1, [pc, #164]	; (8007088 <__ieee754_pow+0x210>)
 8006fe4:	f7f9 fb96 	bl	8000714 <__aeabi_ddiv>
 8006fe8:	f1b9 0f00 	cmp.w	r9, #0
 8006fec:	daa3      	bge.n	8006f36 <__ieee754_pow+0xbe>
 8006fee:	f104 4440 	add.w	r4, r4, #3221225472	; 0xc0000000
 8006ff2:	9b00      	ldr	r3, [sp, #0]
 8006ff4:	f504 1480 	add.w	r4, r4, #1048576	; 0x100000
 8006ff8:	4323      	orrs	r3, r4
 8006ffa:	d106      	bne.n	800700a <__ieee754_pow+0x192>
 8006ffc:	4602      	mov	r2, r0
 8006ffe:	460b      	mov	r3, r1
 8007000:	f7f9 f8aa 	bl	8000158 <__aeabi_dsub>
 8007004:	4602      	mov	r2, r0
 8007006:	460b      	mov	r3, r1
 8007008:	e7b2      	b.n	8006f70 <__ieee754_pow+0xf8>
 800700a:	9b00      	ldr	r3, [sp, #0]
 800700c:	2b01      	cmp	r3, #1
 800700e:	d192      	bne.n	8006f36 <__ieee754_pow+0xbe>
 8007010:	f101 4300 	add.w	r3, r1, #2147483648	; 0x80000000
 8007014:	4619      	mov	r1, r3
 8007016:	e78e      	b.n	8006f36 <__ieee754_pow+0xbe>
 8007018:	ea4f 79d9 	mov.w	r9, r9, lsr #31
 800701c:	f109 33ff 	add.w	r3, r9, #4294967295
 8007020:	930c      	str	r3, [sp, #48]	; 0x30
 8007022:	9a0c      	ldr	r2, [sp, #48]	; 0x30
 8007024:	9b00      	ldr	r3, [sp, #0]
 8007026:	4313      	orrs	r3, r2
 8007028:	d104      	bne.n	8007034 <__ieee754_pow+0x1bc>
 800702a:	463a      	mov	r2, r7
 800702c:	4643      	mov	r3, r8
 800702e:	4638      	mov	r0, r7
 8007030:	4641      	mov	r1, r8
 8007032:	e7e5      	b.n	8007000 <__ieee754_pow+0x188>
 8007034:	4b16      	ldr	r3, [pc, #88]	; (8007090 <__ieee754_pow+0x218>)
 8007036:	429d      	cmp	r5, r3
 8007038:	f340 80fc 	ble.w	8007234 <__ieee754_pow+0x3bc>
 800703c:	f103 7304 	add.w	r3, r3, #34603008	; 0x2100000
 8007040:	429d      	cmp	r5, r3
 8007042:	dd0b      	ble.n	800705c <__ieee754_pow+0x1e4>
 8007044:	4b0f      	ldr	r3, [pc, #60]	; (8007084 <__ieee754_pow+0x20c>)
 8007046:	429c      	cmp	r4, r3
 8007048:	dc0e      	bgt.n	8007068 <__ieee754_pow+0x1f0>
 800704a:	2e00      	cmp	r6, #0
 800704c:	f6bf af71 	bge.w	8006f32 <__ieee754_pow+0xba>
 8007050:	a307      	add	r3, pc, #28	; (adr r3, 8007070 <__ieee754_pow+0x1f8>)
 8007052:	e9d3 2300 	ldrd	r2, r3, [r3]
 8007056:	4610      	mov	r0, r2
 8007058:	4619      	mov	r1, r3
 800705a:	e79e      	b.n	8006f9a <__ieee754_pow+0x122>
 800705c:	4b0d      	ldr	r3, [pc, #52]	; (8007094 <__ieee754_pow+0x21c>)
 800705e:	429c      	cmp	r4, r3
 8007060:	ddf3      	ble.n	800704a <__ieee754_pow+0x1d2>
 8007062:	4b09      	ldr	r3, [pc, #36]	; (8007088 <__ieee754_pow+0x210>)
 8007064:	429c      	cmp	r4, r3
 8007066:	dd17      	ble.n	8007098 <__ieee754_pow+0x220>
 8007068:	2e00      	cmp	r6, #0
 800706a:	dcf1      	bgt.n	8007050 <__ieee754_pow+0x1d8>
 800706c:	e761      	b.n	8006f32 <__ieee754_pow+0xba>
 800706e:	bf00      	nop
 8007070:	8800759c 	.word	0x8800759c
 8007074:	7e37e43c 	.word	0x7e37e43c
 8007078:	7ff00000 	.word	0x7ff00000
 800707c:	08008248 	.word	0x08008248
 8007080:	433fffff 	.word	0x433fffff
 8007084:	3fefffff 	.word	0x3fefffff
 8007088:	3ff00000 	.word	0x3ff00000
 800708c:	3fe00000 	.word	0x3fe00000
 8007090:	41e00000 	.word	0x41e00000
 8007094:	3feffffe 	.word	0x3feffffe
 8007098:	2200      	movs	r2, #0
 800709a:	4b61      	ldr	r3, [pc, #388]	; (8007220 <__ieee754_pow+0x3a8>)
 800709c:	f7f9 f85c 	bl	8000158 <__aeabi_dsub>
 80070a0:	a355      	add	r3, pc, #340	; (adr r3, 80071f8 <__ieee754_pow+0x380>)
 80070a2:	e9d3 2300 	ldrd	r2, r3, [r3]
 80070a6:	4604      	mov	r4, r0
 80070a8:	460d      	mov	r5, r1
 80070aa:	f7f9 fa09 	bl	80004c0 <__aeabi_dmul>
 80070ae:	a354      	add	r3, pc, #336	; (adr r3, 8007200 <__ieee754_pow+0x388>)
 80070b0:	e9d3 2300 	ldrd	r2, r3, [r3]
 80070b4:	4606      	mov	r6, r0
 80070b6:	460f      	mov	r7, r1
 80070b8:	4620      	mov	r0, r4
 80070ba:	4629      	mov	r1, r5
 80070bc:	f7f9 fa00 	bl	80004c0 <__aeabi_dmul>
 80070c0:	2200      	movs	r2, #0
 80070c2:	4682      	mov	sl, r0
 80070c4:	468b      	mov	fp, r1
 80070c6:	4b57      	ldr	r3, [pc, #348]	; (8007224 <__ieee754_pow+0x3ac>)
 80070c8:	4620      	mov	r0, r4
 80070ca:	4629      	mov	r1, r5
 80070cc:	f7f9 f9f8 	bl	80004c0 <__aeabi_dmul>
 80070d0:	4602      	mov	r2, r0
 80070d2:	460b      	mov	r3, r1
 80070d4:	a14c      	add	r1, pc, #304	; (adr r1, 8007208 <__ieee754_pow+0x390>)
 80070d6:	e9d1 0100 	ldrd	r0, r1, [r1]
 80070da:	f7f9 f83d 	bl	8000158 <__aeabi_dsub>
 80070de:	4622      	mov	r2, r4
 80070e0:	462b      	mov	r3, r5
 80070e2:	f7f9 f9ed 	bl	80004c0 <__aeabi_dmul>
 80070e6:	4602      	mov	r2, r0
 80070e8:	460b      	mov	r3, r1
 80070ea:	2000      	movs	r0, #0
 80070ec:	494e      	ldr	r1, [pc, #312]	; (8007228 <__ieee754_pow+0x3b0>)
 80070ee:	f7f9 f833 	bl	8000158 <__aeabi_dsub>
 80070f2:	4622      	mov	r2, r4
 80070f4:	462b      	mov	r3, r5
 80070f6:	4680      	mov	r8, r0
 80070f8:	4689      	mov	r9, r1
 80070fa:	4620      	mov	r0, r4
 80070fc:	4629      	mov	r1, r5
 80070fe:	f7f9 f9df 	bl	80004c0 <__aeabi_dmul>
 8007102:	4602      	mov	r2, r0
 8007104:	460b      	mov	r3, r1
 8007106:	4640      	mov	r0, r8
 8007108:	4649      	mov	r1, r9
 800710a:	f7f9 f9d9 	bl	80004c0 <__aeabi_dmul>
 800710e:	a340      	add	r3, pc, #256	; (adr r3, 8007210 <__ieee754_pow+0x398>)
 8007110:	e9d3 2300 	ldrd	r2, r3, [r3]
 8007114:	f7f9 f9d4 	bl	80004c0 <__aeabi_dmul>
 8007118:	4602      	mov	r2, r0
 800711a:	460b      	mov	r3, r1
 800711c:	4650      	mov	r0, sl
 800711e:	4659      	mov	r1, fp
 8007120:	f7f9 f81a 	bl	8000158 <__aeabi_dsub>
 8007124:	4602      	mov	r2, r0
 8007126:	460b      	mov	r3, r1
 8007128:	4604      	mov	r4, r0
 800712a:	460d      	mov	r5, r1
 800712c:	4630      	mov	r0, r6
 800712e:	4639      	mov	r1, r7
 8007130:	f7f9 f814 	bl	800015c <__adddf3>
 8007134:	2000      	movs	r0, #0
 8007136:	468b      	mov	fp, r1
 8007138:	4682      	mov	sl, r0
 800713a:	4632      	mov	r2, r6
 800713c:	463b      	mov	r3, r7
 800713e:	f7f9 f80b 	bl	8000158 <__aeabi_dsub>
 8007142:	4602      	mov	r2, r0
 8007144:	460b      	mov	r3, r1
 8007146:	4620      	mov	r0, r4
 8007148:	4629      	mov	r1, r5
 800714a:	f7f9 f805 	bl	8000158 <__aeabi_dsub>
 800714e:	9b00      	ldr	r3, [sp, #0]
 8007150:	9a0c      	ldr	r2, [sp, #48]	; 0x30
 8007152:	3b01      	subs	r3, #1
 8007154:	4313      	orrs	r3, r2
 8007156:	f04f 0300 	mov.w	r3, #0
 800715a:	bf0c      	ite	eq
 800715c:	4c33      	ldreq	r4, [pc, #204]	; (800722c <__ieee754_pow+0x3b4>)
 800715e:	4c30      	ldrne	r4, [pc, #192]	; (8007220 <__ieee754_pow+0x3a8>)
 8007160:	4606      	mov	r6, r0
 8007162:	e88d 0018 	stmia.w	sp, {r3, r4}
 8007166:	e9dd 4502 	ldrd	r4, r5, [sp, #8]
 800716a:	2400      	movs	r4, #0
 800716c:	460f      	mov	r7, r1
 800716e:	e9dd 0102 	ldrd	r0, r1, [sp, #8]
 8007172:	4622      	mov	r2, r4
 8007174:	462b      	mov	r3, r5
 8007176:	f7f8 ffef 	bl	8000158 <__aeabi_dsub>
 800717a:	4652      	mov	r2, sl
 800717c:	465b      	mov	r3, fp
 800717e:	f7f9 f99f 	bl	80004c0 <__aeabi_dmul>
 8007182:	e9dd 2302 	ldrd	r2, r3, [sp, #8]
 8007186:	4680      	mov	r8, r0
 8007188:	4689      	mov	r9, r1
 800718a:	4630      	mov	r0, r6
 800718c:	4639      	mov	r1, r7
 800718e:	f7f9 f997 	bl	80004c0 <__aeabi_dmul>
 8007192:	4602      	mov	r2, r0
 8007194:	460b      	mov	r3, r1
 8007196:	4640      	mov	r0, r8
 8007198:	4649      	mov	r1, r9
 800719a:	f7f8 ffdf 	bl	800015c <__adddf3>
 800719e:	4622      	mov	r2, r4
 80071a0:	462b      	mov	r3, r5
 80071a2:	4680      	mov	r8, r0
 80071a4:	4689      	mov	r9, r1
 80071a6:	4650      	mov	r0, sl
 80071a8:	4659      	mov	r1, fp
 80071aa:	f7f9 f989 	bl	80004c0 <__aeabi_dmul>
 80071ae:	4604      	mov	r4, r0
 80071b0:	460d      	mov	r5, r1
 80071b2:	460b      	mov	r3, r1
 80071b4:	4602      	mov	r2, r0
 80071b6:	4649      	mov	r1, r9
 80071b8:	4640      	mov	r0, r8
 80071ba:	e9cd 4502 	strd	r4, r5, [sp, #8]
 80071be:	f7f8 ffcd 	bl	800015c <__adddf3>
 80071c2:	4b1b      	ldr	r3, [pc, #108]	; (8007230 <__ieee754_pow+0x3b8>)
 80071c4:	4682      	mov	sl, r0
 80071c6:	4299      	cmp	r1, r3
 80071c8:	460f      	mov	r7, r1
 80071ca:	460e      	mov	r6, r1
 80071cc:	f340 82da 	ble.w	8007784 <__ieee754_pow+0x90c>
 80071d0:	f101 433f 	add.w	r3, r1, #3204448256	; 0xbf000000
 80071d4:	f503 03e0 	add.w	r3, r3, #7340032	; 0x700000
 80071d8:	4303      	orrs	r3, r0
 80071da:	f000 81d5 	beq.w	8007588 <__ieee754_pow+0x710>
 80071de:	a30e      	add	r3, pc, #56	; (adr r3, 8007218 <__ieee754_pow+0x3a0>)
 80071e0:	e9d3 2300 	ldrd	r2, r3, [r3]
 80071e4:	e9dd 0100 	ldrd	r0, r1, [sp]
 80071e8:	f7f9 f96a 	bl	80004c0 <__aeabi_dmul>
 80071ec:	a30a      	add	r3, pc, #40	; (adr r3, 8007218 <__ieee754_pow+0x3a0>)
 80071ee:	e9d3 2300 	ldrd	r2, r3, [r3]
 80071f2:	e6d2      	b.n	8006f9a <__ieee754_pow+0x122>
 80071f4:	f3af 8000 	nop.w
 80071f8:	60000000 	.word	0x60000000
 80071fc:	3ff71547 	.word	0x3ff71547
 8007200:	f85ddf44 	.word	0xf85ddf44
 8007204:	3e54ae0b 	.word	0x3e54ae0b
 8007208:	55555555 	.word	0x55555555
 800720c:	3fd55555 	.word	0x3fd55555
 8007210:	652b82fe 	.word	0x652b82fe
 8007214:	3ff71547 	.word	0x3ff71547
 8007218:	8800759c 	.word	0x8800759c
 800721c:	7e37e43c 	.word	0x7e37e43c
 8007220:	3ff00000 	.word	0x3ff00000
 8007224:	3fd00000 	.word	0x3fd00000
 8007228:	3fe00000 	.word	0x3fe00000
 800722c:	bff00000 	.word	0xbff00000
 8007230:	408fffff 	.word	0x408fffff
 8007234:	f5b4 1f80 	cmp.w	r4, #1048576	; 0x100000
 8007238:	f04f 0200 	mov.w	r2, #0
 800723c:	da05      	bge.n	800724a <__ieee754_pow+0x3d2>
 800723e:	4bca      	ldr	r3, [pc, #808]	; (8007568 <__ieee754_pow+0x6f0>)
 8007240:	f7f9 f93e 	bl	80004c0 <__aeabi_dmul>
 8007244:	f06f 0234 	mvn.w	r2, #52	; 0x34
 8007248:	460c      	mov	r4, r1
 800724a:	1523      	asrs	r3, r4, #20
 800724c:	f2a3 33ff 	subw	r3, r3, #1023	; 0x3ff
 8007250:	4413      	add	r3, r2
 8007252:	9307      	str	r3, [sp, #28]
 8007254:	4bc5      	ldr	r3, [pc, #788]	; (800756c <__ieee754_pow+0x6f4>)
 8007256:	f3c4 0413 	ubfx	r4, r4, #0, #20
 800725a:	f044 557f 	orr.w	r5, r4, #1069547520	; 0x3fc00000
 800725e:	429c      	cmp	r4, r3
 8007260:	f445 1540 	orr.w	r5, r5, #3145728	; 0x300000
 8007264:	dd08      	ble.n	8007278 <__ieee754_pow+0x400>
 8007266:	4bc2      	ldr	r3, [pc, #776]	; (8007570 <__ieee754_pow+0x6f8>)
 8007268:	429c      	cmp	r4, r3
 800726a:	f340 8154 	ble.w	8007516 <__ieee754_pow+0x69e>
 800726e:	9b07      	ldr	r3, [sp, #28]
 8007270:	f5a5 1580 	sub.w	r5, r5, #1048576	; 0x100000
 8007274:	3301      	adds	r3, #1
 8007276:	9307      	str	r3, [sp, #28]
 8007278:	2600      	movs	r6, #0
 800727a:	4629      	mov	r1, r5
 800727c:	00f3      	lsls	r3, r6, #3
 800727e:	930d      	str	r3, [sp, #52]	; 0x34
 8007280:	4bbc      	ldr	r3, [pc, #752]	; (8007574 <__ieee754_pow+0x6fc>)
 8007282:	00f2      	lsls	r2, r6, #3
 8007284:	4413      	add	r3, r2
 8007286:	cb18      	ldmia	r3, {r3, r4}
 8007288:	e9cd 340a 	strd	r3, r4, [sp, #40]	; 0x28
 800728c:	461a      	mov	r2, r3
 800728e:	4623      	mov	r3, r4
 8007290:	e9cd 0108 	strd	r0, r1, [sp, #32]
 8007294:	f7f8 ff60 	bl	8000158 <__aeabi_dsub>
 8007298:	e9dd 230a 	ldrd	r2, r3, [sp, #40]	; 0x28
 800729c:	e9cd 010e 	strd	r0, r1, [sp, #56]	; 0x38
 80072a0:	e9dd 0108 	ldrd	r0, r1, [sp, #32]
 80072a4:	f7f8 ff5a 	bl	800015c <__adddf3>
 80072a8:	4602      	mov	r2, r0
 80072aa:	460b      	mov	r3, r1
 80072ac:	2000      	movs	r0, #0
 80072ae:	49b2      	ldr	r1, [pc, #712]	; (8007578 <__ieee754_pow+0x700>)
 80072b0:	f7f9 fa30 	bl	8000714 <__aeabi_ddiv>
 80072b4:	4602      	mov	r2, r0
 80072b6:	460b      	mov	r3, r1
 80072b8:	e9cd 0110 	strd	r0, r1, [sp, #64]	; 0x40
 80072bc:	e9dd 010e 	ldrd	r0, r1, [sp, #56]	; 0x38
 80072c0:	f7f9 f8fe 	bl	80004c0 <__aeabi_dmul>
 80072c4:	e9cd 0104 	strd	r0, r1, [sp, #16]
 80072c8:	e9dd ab04 	ldrd	sl, fp, [sp, #16]
 80072cc:	f04f 0a00 	mov.w	sl, #0
 80072d0:	2200      	movs	r2, #0
 80072d2:	106d      	asrs	r5, r5, #1
 80072d4:	f045 5500 	orr.w	r5, r5, #536870912	; 0x20000000
 80072d8:	f505 2500 	add.w	r5, r5, #524288	; 0x80000
 80072dc:	eb05 4386 	add.w	r3, r5, r6, lsl #18
 80072e0:	4659      	mov	r1, fp
 80072e2:	4650      	mov	r0, sl
 80072e4:	4614      	mov	r4, r2
 80072e6:	461d      	mov	r5, r3
 80072e8:	f7f9 f8ea 	bl	80004c0 <__aeabi_dmul>
 80072ec:	4602      	mov	r2, r0
 80072ee:	460b      	mov	r3, r1
 80072f0:	e9dd 010e 	ldrd	r0, r1, [sp, #56]	; 0x38
 80072f4:	f7f8 ff30 	bl	8000158 <__aeabi_dsub>
 80072f8:	e9dd 230a 	ldrd	r2, r3, [sp, #40]	; 0x28
 80072fc:	4606      	mov	r6, r0
 80072fe:	460f      	mov	r7, r1
 8007300:	4620      	mov	r0, r4
 8007302:	4629      	mov	r1, r5
 8007304:	f7f8 ff28 	bl	8000158 <__aeabi_dsub>
 8007308:	4602      	mov	r2, r0
 800730a:	460b      	mov	r3, r1
 800730c:	e9dd 0108 	ldrd	r0, r1, [sp, #32]
 8007310:	f7f8 ff22 	bl	8000158 <__aeabi_dsub>
 8007314:	465b      	mov	r3, fp
 8007316:	4652      	mov	r2, sl
 8007318:	f7f9 f8d2 	bl	80004c0 <__aeabi_dmul>
 800731c:	4602      	mov	r2, r0
 800731e:	460b      	mov	r3, r1
 8007320:	4630      	mov	r0, r6
 8007322:	4639      	mov	r1, r7
 8007324:	f7f8 ff18 	bl	8000158 <__aeabi_dsub>
 8007328:	e9dd 2310 	ldrd	r2, r3, [sp, #64]	; 0x40
 800732c:	f7f9 f8c8 	bl	80004c0 <__aeabi_dmul>
 8007330:	e9dd 2304 	ldrd	r2, r3, [sp, #16]
 8007334:	e9cd 0108 	strd	r0, r1, [sp, #32]
 8007338:	4610      	mov	r0, r2
 800733a:	4619      	mov	r1, r3
 800733c:	f7f9 f8c0 	bl	80004c0 <__aeabi_dmul>
 8007340:	a377      	add	r3, pc, #476	; (adr r3, 8007520 <__ieee754_pow+0x6a8>)
 8007342:	e9d3 2300 	ldrd	r2, r3, [r3]
 8007346:	4604      	mov	r4, r0
 8007348:	460d      	mov	r5, r1
 800734a:	f7f9 f8b9 	bl	80004c0 <__aeabi_dmul>
 800734e:	a376      	add	r3, pc, #472	; (adr r3, 8007528 <__ieee754_pow+0x6b0>)
 8007350:	e9d3 2300 	ldrd	r2, r3, [r3]
 8007354:	f7f8 ff02 	bl	800015c <__adddf3>
 8007358:	4622      	mov	r2, r4
 800735a:	462b      	mov	r3, r5
 800735c:	f7f9 f8b0 	bl	80004c0 <__aeabi_dmul>
 8007360:	a373      	add	r3, pc, #460	; (adr r3, 8007530 <__ieee754_pow+0x6b8>)
 8007362:	e9d3 2300 	ldrd	r2, r3, [r3]
 8007366:	f7f8 fef9 	bl	800015c <__adddf3>
 800736a:	4622      	mov	r2, r4
 800736c:	462b      	mov	r3, r5
 800736e:	f7f9 f8a7 	bl	80004c0 <__aeabi_dmul>
 8007372:	a371      	add	r3, pc, #452	; (adr r3, 8007538 <__ieee754_pow+0x6c0>)
 8007374:	e9d3 2300 	ldrd	r2, r3, [r3]
 8007378:	f7f8 fef0 	bl	800015c <__adddf3>
 800737c:	4622      	mov	r2, r4
 800737e:	462b      	mov	r3, r5
 8007380:	f7f9 f89e 	bl	80004c0 <__aeabi_dmul>
 8007384:	a36e      	add	r3, pc, #440	; (adr r3, 8007540 <__ieee754_pow+0x6c8>)
 8007386:	e9d3 2300 	ldrd	r2, r3, [r3]
 800738a:	f7f8 fee7 	bl	800015c <__adddf3>
 800738e:	4622      	mov	r2, r4
 8007390:	462b      	mov	r3, r5
 8007392:	f7f9 f895 	bl	80004c0 <__aeabi_dmul>
 8007396:	a36c      	add	r3, pc, #432	; (adr r3, 8007548 <__ieee754_pow+0x6d0>)
 8007398:	e9d3 2300 	ldrd	r2, r3, [r3]
 800739c:	f7f8 fede 	bl	800015c <__adddf3>
 80073a0:	4622      	mov	r2, r4
 80073a2:	4606      	mov	r6, r0
 80073a4:	460f      	mov	r7, r1
 80073a6:	462b      	mov	r3, r5
 80073a8:	4620      	mov	r0, r4
 80073aa:	4629      	mov	r1, r5
 80073ac:	f7f9 f888 	bl	80004c0 <__aeabi_dmul>
 80073b0:	4602      	mov	r2, r0
 80073b2:	460b      	mov	r3, r1
 80073b4:	4630      	mov	r0, r6
 80073b6:	4639      	mov	r1, r7
 80073b8:	f7f9 f882 	bl	80004c0 <__aeabi_dmul>
 80073bc:	4604      	mov	r4, r0
 80073be:	460d      	mov	r5, r1
 80073c0:	e9dd 0104 	ldrd	r0, r1, [sp, #16]
 80073c4:	465b      	mov	r3, fp
 80073c6:	4652      	mov	r2, sl
 80073c8:	f7f8 fec8 	bl	800015c <__adddf3>
 80073cc:	e9dd 2308 	ldrd	r2, r3, [sp, #32]
 80073d0:	f7f9 f876 	bl	80004c0 <__aeabi_dmul>
 80073d4:	4622      	mov	r2, r4
 80073d6:	462b      	mov	r3, r5
 80073d8:	f7f8 fec0 	bl	800015c <__adddf3>
 80073dc:	465b      	mov	r3, fp
 80073de:	4606      	mov	r6, r0
 80073e0:	460f      	mov	r7, r1
 80073e2:	4652      	mov	r2, sl
 80073e4:	4659      	mov	r1, fp
 80073e6:	4650      	mov	r0, sl
 80073e8:	f7f9 f86a 	bl	80004c0 <__aeabi_dmul>
 80073ec:	2200      	movs	r2, #0
 80073ee:	4b63      	ldr	r3, [pc, #396]	; (800757c <__ieee754_pow+0x704>)
 80073f0:	e9cd 010a 	strd	r0, r1, [sp, #40]	; 0x28
 80073f4:	f7f8 feb2 	bl	800015c <__adddf3>
 80073f8:	4632      	mov	r2, r6
 80073fa:	463b      	mov	r3, r7
 80073fc:	f7f8 feae 	bl	800015c <__adddf3>
 8007400:	4650      	mov	r0, sl
 8007402:	460d      	mov	r5, r1
 8007404:	4602      	mov	r2, r0
 8007406:	460b      	mov	r3, r1
 8007408:	4650      	mov	r0, sl
 800740a:	4659      	mov	r1, fp
 800740c:	f7f9 f858 	bl	80004c0 <__aeabi_dmul>
 8007410:	2200      	movs	r2, #0
 8007412:	4680      	mov	r8, r0
 8007414:	4689      	mov	r9, r1
 8007416:	4b59      	ldr	r3, [pc, #356]	; (800757c <__ieee754_pow+0x704>)
 8007418:	4629      	mov	r1, r5
 800741a:	4650      	mov	r0, sl
 800741c:	f7f8 fe9c 	bl	8000158 <__aeabi_dsub>
 8007420:	e9dd 230a 	ldrd	r2, r3, [sp, #40]	; 0x28
 8007424:	f7f8 fe98 	bl	8000158 <__aeabi_dsub>
 8007428:	4602      	mov	r2, r0
 800742a:	460b      	mov	r3, r1
 800742c:	4630      	mov	r0, r6
 800742e:	4639      	mov	r1, r7
 8007430:	f7f8 fe92 	bl	8000158 <__aeabi_dsub>
 8007434:	e9dd 2304 	ldrd	r2, r3, [sp, #16]
 8007438:	f7f9 f842 	bl	80004c0 <__aeabi_dmul>
 800743c:	462b      	mov	r3, r5
 800743e:	4606      	mov	r6, r0
 8007440:	460f      	mov	r7, r1
 8007442:	e9dd 0108 	ldrd	r0, r1, [sp, #32]
 8007446:	4652      	mov	r2, sl
 8007448:	f7f9 f83a 	bl	80004c0 <__aeabi_dmul>
 800744c:	4602      	mov	r2, r0
 800744e:	460b      	mov	r3, r1
 8007450:	4630      	mov	r0, r6
 8007452:	4639      	mov	r1, r7
 8007454:	f7f8 fe82 	bl	800015c <__adddf3>
 8007458:	4606      	mov	r6, r0
 800745a:	460f      	mov	r7, r1
 800745c:	4602      	mov	r2, r0
 800745e:	460b      	mov	r3, r1
 8007460:	4640      	mov	r0, r8
 8007462:	4649      	mov	r1, r9
 8007464:	f7f8 fe7a 	bl	800015c <__adddf3>
 8007468:	a339      	add	r3, pc, #228	; (adr r3, 8007550 <__ieee754_pow+0x6d8>)
 800746a:	e9d3 2300 	ldrd	r2, r3, [r3]
 800746e:	4650      	mov	r0, sl
 8007470:	460d      	mov	r5, r1
 8007472:	f7f9 f825 	bl	80004c0 <__aeabi_dmul>
 8007476:	4642      	mov	r2, r8
 8007478:	e9cd 0104 	strd	r0, r1, [sp, #16]
 800747c:	464b      	mov	r3, r9
 800747e:	4629      	mov	r1, r5
 8007480:	4650      	mov	r0, sl
 8007482:	f7f8 fe69 	bl	8000158 <__aeabi_dsub>
 8007486:	4602      	mov	r2, r0
 8007488:	460b      	mov	r3, r1
 800748a:	4630      	mov	r0, r6
 800748c:	4639      	mov	r1, r7
 800748e:	f7f8 fe63 	bl	8000158 <__aeabi_dsub>
 8007492:	a331      	add	r3, pc, #196	; (adr r3, 8007558 <__ieee754_pow+0x6e0>)
 8007494:	e9d3 2300 	ldrd	r2, r3, [r3]
 8007498:	f7f9 f812 	bl	80004c0 <__aeabi_dmul>
 800749c:	a330      	add	r3, pc, #192	; (adr r3, 8007560 <__ieee754_pow+0x6e8>)
 800749e:	e9d3 2300 	ldrd	r2, r3, [r3]
 80074a2:	4606      	mov	r6, r0
 80074a4:	460f      	mov	r7, r1
 80074a6:	4650      	mov	r0, sl
 80074a8:	4629      	mov	r1, r5
 80074aa:	f7f9 f809 	bl	80004c0 <__aeabi_dmul>
 80074ae:	4602      	mov	r2, r0
 80074b0:	460b      	mov	r3, r1
 80074b2:	4630      	mov	r0, r6
 80074b4:	4639      	mov	r1, r7
 80074b6:	f7f8 fe51 	bl	800015c <__adddf3>
 80074ba:	9a0d      	ldr	r2, [sp, #52]	; 0x34
 80074bc:	4b30      	ldr	r3, [pc, #192]	; (8007580 <__ieee754_pow+0x708>)
 80074be:	4413      	add	r3, r2
 80074c0:	e9d3 2300 	ldrd	r2, r3, [r3]
 80074c4:	f7f8 fe4a 	bl	800015c <__adddf3>
 80074c8:	4604      	mov	r4, r0
 80074ca:	9807      	ldr	r0, [sp, #28]
 80074cc:	460d      	mov	r5, r1
 80074ce:	f7f8 ff91 	bl	80003f4 <__aeabi_i2d>
 80074d2:	4606      	mov	r6, r0
 80074d4:	460f      	mov	r7, r1
 80074d6:	9a0d      	ldr	r2, [sp, #52]	; 0x34
 80074d8:	4b2a      	ldr	r3, [pc, #168]	; (8007584 <__ieee754_pow+0x70c>)
 80074da:	e9dd 0104 	ldrd	r0, r1, [sp, #16]
 80074de:	4413      	add	r3, r2
 80074e0:	e9d3 8900 	ldrd	r8, r9, [r3]
 80074e4:	4622      	mov	r2, r4
 80074e6:	462b      	mov	r3, r5
 80074e8:	f7f8 fe38 	bl	800015c <__adddf3>
 80074ec:	4642      	mov	r2, r8
 80074ee:	464b      	mov	r3, r9
 80074f0:	f7f8 fe34 	bl	800015c <__adddf3>
 80074f4:	4632      	mov	r2, r6
 80074f6:	463b      	mov	r3, r7
 80074f8:	f7f8 fe30 	bl	800015c <__adddf3>
 80074fc:	4632      	mov	r2, r6
 80074fe:	463b      	mov	r3, r7
 8007500:	4650      	mov	r0, sl
 8007502:	468b      	mov	fp, r1
 8007504:	f7f8 fe28 	bl	8000158 <__aeabi_dsub>
 8007508:	4642      	mov	r2, r8
 800750a:	464b      	mov	r3, r9
 800750c:	f7f8 fe24 	bl	8000158 <__aeabi_dsub>
 8007510:	e9dd 2304 	ldrd	r2, r3, [sp, #16]
 8007514:	e613      	b.n	800713e <__ieee754_pow+0x2c6>
 8007516:	2601      	movs	r6, #1
 8007518:	e6af      	b.n	800727a <__ieee754_pow+0x402>
 800751a:	bf00      	nop
 800751c:	f3af 8000 	nop.w
 8007520:	4a454eef 	.word	0x4a454eef
 8007524:	3fca7e28 	.word	0x3fca7e28
 8007528:	93c9db65 	.word	0x93c9db65
 800752c:	3fcd864a 	.word	0x3fcd864a
 8007530:	a91d4101 	.word	0xa91d4101
 8007534:	3fd17460 	.word	0x3fd17460
 8007538:	518f264d 	.word	0x518f264d
 800753c:	3fd55555 	.word	0x3fd55555
 8007540:	db6fabff 	.word	0xdb6fabff
 8007544:	3fdb6db6 	.word	0x3fdb6db6
 8007548:	33333303 	.word	0x33333303
 800754c:	3fe33333 	.word	0x3fe33333
 8007550:	e0000000 	.word	0xe0000000
 8007554:	3feec709 	.word	0x3feec709
 8007558:	dc3a03fd 	.word	0xdc3a03fd
 800755c:	3feec709 	.word	0x3feec709
 8007560:	145b01f5 	.word	0x145b01f5
 8007564:	be3e2fe0 	.word	0xbe3e2fe0
 8007568:	43400000 	.word	0x43400000
 800756c:	0003988e 	.word	0x0003988e
 8007570:	000bb679 	.word	0x000bb679
 8007574:	08008320 	.word	0x08008320
 8007578:	3ff00000 	.word	0x3ff00000
 800757c:	40080000 	.word	0x40080000
 8007580:	08008340 	.word	0x08008340
 8007584:	08008330 	.word	0x08008330
 8007588:	a39b      	add	r3, pc, #620	; (adr r3, 80077f8 <__ieee754_pow+0x980>)
 800758a:	e9d3 2300 	ldrd	r2, r3, [r3]
 800758e:	4640      	mov	r0, r8
 8007590:	4649      	mov	r1, r9
 8007592:	f7f8 fde3 	bl	800015c <__adddf3>
 8007596:	4622      	mov	r2, r4
 8007598:	e9cd 0104 	strd	r0, r1, [sp, #16]
 800759c:	462b      	mov	r3, r5
 800759e:	4650      	mov	r0, sl
 80075a0:	4639      	mov	r1, r7
 80075a2:	f7f8 fdd9 	bl	8000158 <__aeabi_dsub>
 80075a6:	4602      	mov	r2, r0
 80075a8:	460b      	mov	r3, r1
 80075aa:	e9dd 0104 	ldrd	r0, r1, [sp, #16]
 80075ae:	f7f9 fa17 	bl	80009e0 <__aeabi_dcmpgt>
 80075b2:	2800      	cmp	r0, #0
 80075b4:	f47f ae13 	bne.w	80071de <__ieee754_pow+0x366>
 80075b8:	4aa3      	ldr	r2, [pc, #652]	; (8007848 <__ieee754_pow+0x9d0>)
 80075ba:	f026 4300 	bic.w	r3, r6, #2147483648	; 0x80000000
 80075be:	4293      	cmp	r3, r2
 80075c0:	f340 8104 	ble.w	80077cc <__ieee754_pow+0x954>
 80075c4:	f44f 1a80 	mov.w	sl, #1048576	; 0x100000
 80075c8:	2000      	movs	r0, #0
 80075ca:	151b      	asrs	r3, r3, #20
 80075cc:	f2a3 33fe 	subw	r3, r3, #1022	; 0x3fe
 80075d0:	fa4a f303 	asr.w	r3, sl, r3
 80075d4:	4433      	add	r3, r6
 80075d6:	f3c3 520a 	ubfx	r2, r3, #20, #11
 80075da:	4f9c      	ldr	r7, [pc, #624]	; (800784c <__ieee754_pow+0x9d4>)
 80075dc:	f2a2 32ff 	subw	r2, r2, #1023	; 0x3ff
 80075e0:	4117      	asrs	r7, r2
 80075e2:	f3c3 0a13 	ubfx	sl, r3, #0, #20
 80075e6:	ea23 0107 	bic.w	r1, r3, r7
 80075ea:	f1c2 0214 	rsb	r2, r2, #20
 80075ee:	f44a 1a80 	orr.w	sl, sl, #1048576	; 0x100000
 80075f2:	fa4a fa02 	asr.w	sl, sl, r2
 80075f6:	2e00      	cmp	r6, #0
 80075f8:	4602      	mov	r2, r0
 80075fa:	460b      	mov	r3, r1
 80075fc:	4620      	mov	r0, r4
 80075fe:	4629      	mov	r1, r5
 8007600:	bfb8      	it	lt
 8007602:	f1ca 0a00 	rsblt	sl, sl, #0
 8007606:	f7f8 fda7 	bl	8000158 <__aeabi_dsub>
 800760a:	e9cd 0102 	strd	r0, r1, [sp, #8]
 800760e:	e9dd 0102 	ldrd	r0, r1, [sp, #8]
 8007612:	4642      	mov	r2, r8
 8007614:	464b      	mov	r3, r9
 8007616:	f7f8 fda1 	bl	800015c <__adddf3>
 800761a:	a379      	add	r3, pc, #484	; (adr r3, 8007800 <__ieee754_pow+0x988>)
 800761c:	e9d3 2300 	ldrd	r2, r3, [r3]
 8007620:	2000      	movs	r0, #0
 8007622:	460d      	mov	r5, r1
 8007624:	4604      	mov	r4, r0
 8007626:	f7f8 ff4b 	bl	80004c0 <__aeabi_dmul>
 800762a:	e9dd 2302 	ldrd	r2, r3, [sp, #8]
 800762e:	4606      	mov	r6, r0
 8007630:	460f      	mov	r7, r1
 8007632:	4620      	mov	r0, r4
 8007634:	4629      	mov	r1, r5
 8007636:	f7f8 fd8f 	bl	8000158 <__aeabi_dsub>
 800763a:	4602      	mov	r2, r0
 800763c:	460b      	mov	r3, r1
 800763e:	4640      	mov	r0, r8
 8007640:	4649      	mov	r1, r9
 8007642:	f7f8 fd89 	bl	8000158 <__aeabi_dsub>
 8007646:	a370      	add	r3, pc, #448	; (adr r3, 8007808 <__ieee754_pow+0x990>)
 8007648:	e9d3 2300 	ldrd	r2, r3, [r3]
 800764c:	f7f8 ff38 	bl	80004c0 <__aeabi_dmul>
 8007650:	a36f      	add	r3, pc, #444	; (adr r3, 8007810 <__ieee754_pow+0x998>)
 8007652:	e9d3 2300 	ldrd	r2, r3, [r3]
 8007656:	4680      	mov	r8, r0
 8007658:	4689      	mov	r9, r1
 800765a:	4620      	mov	r0, r4
 800765c:	4629      	mov	r1, r5
 800765e:	f7f8 ff2f 	bl	80004c0 <__aeabi_dmul>
 8007662:	4602      	mov	r2, r0
 8007664:	460b      	mov	r3, r1
 8007666:	4640      	mov	r0, r8
 8007668:	4649      	mov	r1, r9
 800766a:	f7f8 fd77 	bl	800015c <__adddf3>
 800766e:	4604      	mov	r4, r0
 8007670:	460d      	mov	r5, r1
 8007672:	4602      	mov	r2, r0
 8007674:	460b      	mov	r3, r1
 8007676:	4630      	mov	r0, r6
 8007678:	4639      	mov	r1, r7
 800767a:	f7f8 fd6f 	bl	800015c <__adddf3>
 800767e:	4632      	mov	r2, r6
 8007680:	463b      	mov	r3, r7
 8007682:	4680      	mov	r8, r0
 8007684:	4689      	mov	r9, r1
 8007686:	f7f8 fd67 	bl	8000158 <__aeabi_dsub>
 800768a:	4602      	mov	r2, r0
 800768c:	460b      	mov	r3, r1
 800768e:	4620      	mov	r0, r4
 8007690:	4629      	mov	r1, r5
 8007692:	f7f8 fd61 	bl	8000158 <__aeabi_dsub>
 8007696:	4642      	mov	r2, r8
 8007698:	4606      	mov	r6, r0
 800769a:	460f      	mov	r7, r1
 800769c:	464b      	mov	r3, r9
 800769e:	4640      	mov	r0, r8
 80076a0:	4649      	mov	r1, r9
 80076a2:	f7f8 ff0d 	bl	80004c0 <__aeabi_dmul>
 80076a6:	a35c      	add	r3, pc, #368	; (adr r3, 8007818 <__ieee754_pow+0x9a0>)
 80076a8:	e9d3 2300 	ldrd	r2, r3, [r3]
 80076ac:	4604      	mov	r4, r0
 80076ae:	460d      	mov	r5, r1
 80076b0:	f7f8 ff06 	bl	80004c0 <__aeabi_dmul>
 80076b4:	a35a      	add	r3, pc, #360	; (adr r3, 8007820 <__ieee754_pow+0x9a8>)
 80076b6:	e9d3 2300 	ldrd	r2, r3, [r3]
 80076ba:	f7f8 fd4d 	bl	8000158 <__aeabi_dsub>
 80076be:	4622      	mov	r2, r4
 80076c0:	462b      	mov	r3, r5
 80076c2:	f7f8 fefd 	bl	80004c0 <__aeabi_dmul>
 80076c6:	a358      	add	r3, pc, #352	; (adr r3, 8007828 <__ieee754_pow+0x9b0>)
 80076c8:	e9d3 2300 	ldrd	r2, r3, [r3]
 80076cc:	f7f8 fd46 	bl	800015c <__adddf3>
 80076d0:	4622      	mov	r2, r4
 80076d2:	462b      	mov	r3, r5
 80076d4:	f7f8 fef4 	bl	80004c0 <__aeabi_dmul>
 80076d8:	a355      	add	r3, pc, #340	; (adr r3, 8007830 <__ieee754_pow+0x9b8>)
 80076da:	e9d3 2300 	ldrd	r2, r3, [r3]
 80076de:	f7f8 fd3b 	bl	8000158 <__aeabi_dsub>
 80076e2:	4622      	mov	r2, r4
 80076e4:	462b      	mov	r3, r5
 80076e6:	f7f8 feeb 	bl	80004c0 <__aeabi_dmul>
 80076ea:	a353      	add	r3, pc, #332	; (adr r3, 8007838 <__ieee754_pow+0x9c0>)
 80076ec:	e9d3 2300 	ldrd	r2, r3, [r3]
 80076f0:	f7f8 fd34 	bl	800015c <__adddf3>
 80076f4:	4622      	mov	r2, r4
 80076f6:	462b      	mov	r3, r5
 80076f8:	f7f8 fee2 	bl	80004c0 <__aeabi_dmul>
 80076fc:	4602      	mov	r2, r0
 80076fe:	460b      	mov	r3, r1
 8007700:	4640      	mov	r0, r8
 8007702:	4649      	mov	r1, r9
 8007704:	f7f8 fd28 	bl	8000158 <__aeabi_dsub>
 8007708:	4604      	mov	r4, r0
 800770a:	460d      	mov	r5, r1
 800770c:	4602      	mov	r2, r0
 800770e:	460b      	mov	r3, r1
 8007710:	4640      	mov	r0, r8
 8007712:	4649      	mov	r1, r9
 8007714:	f7f8 fed4 	bl	80004c0 <__aeabi_dmul>
 8007718:	2200      	movs	r2, #0
 800771a:	e9cd 0102 	strd	r0, r1, [sp, #8]
 800771e:	f04f 4380 	mov.w	r3, #1073741824	; 0x40000000
 8007722:	4620      	mov	r0, r4
 8007724:	4629      	mov	r1, r5
 8007726:	f7f8 fd17 	bl	8000158 <__aeabi_dsub>
 800772a:	4602      	mov	r2, r0
 800772c:	460b      	mov	r3, r1
 800772e:	e9dd 0102 	ldrd	r0, r1, [sp, #8]
 8007732:	f7f8 ffef 	bl	8000714 <__aeabi_ddiv>
 8007736:	4632      	mov	r2, r6
 8007738:	4604      	mov	r4, r0
 800773a:	460d      	mov	r5, r1
 800773c:	463b      	mov	r3, r7
 800773e:	4640      	mov	r0, r8
 8007740:	4649      	mov	r1, r9
 8007742:	f7f8 febd 	bl	80004c0 <__aeabi_dmul>
 8007746:	4632      	mov	r2, r6
 8007748:	463b      	mov	r3, r7
 800774a:	f7f8 fd07 	bl	800015c <__adddf3>
 800774e:	4602      	mov	r2, r0
 8007750:	460b      	mov	r3, r1
 8007752:	4620      	mov	r0, r4
 8007754:	4629      	mov	r1, r5
 8007756:	f7f8 fcff 	bl	8000158 <__aeabi_dsub>
 800775a:	4642      	mov	r2, r8
 800775c:	464b      	mov	r3, r9
 800775e:	f7f8 fcfb 	bl	8000158 <__aeabi_dsub>
 8007762:	4602      	mov	r2, r0
 8007764:	460b      	mov	r3, r1
 8007766:	2000      	movs	r0, #0
 8007768:	4939      	ldr	r1, [pc, #228]	; (8007850 <__ieee754_pow+0x9d8>)
 800776a:	f7f8 fcf5 	bl	8000158 <__aeabi_dsub>
 800776e:	eb01 540a 	add.w	r4, r1, sl, lsl #20
 8007772:	f5b4 1f80 	cmp.w	r4, #1048576	; 0x100000
 8007776:	da2c      	bge.n	80077d2 <__ieee754_pow+0x95a>
 8007778:	4652      	mov	r2, sl
 800777a:	f000 f9b5 	bl	8007ae8 <scalbn>
 800777e:	e9dd 2300 	ldrd	r2, r3, [sp]
 8007782:	e40a      	b.n	8006f9a <__ieee754_pow+0x122>
 8007784:	4b33      	ldr	r3, [pc, #204]	; (8007854 <__ieee754_pow+0x9dc>)
 8007786:	f021 4700 	bic.w	r7, r1, #2147483648	; 0x80000000
 800778a:	429f      	cmp	r7, r3
 800778c:	f77f af14 	ble.w	80075b8 <__ieee754_pow+0x740>
 8007790:	4b31      	ldr	r3, [pc, #196]	; (8007858 <__ieee754_pow+0x9e0>)
 8007792:	440b      	add	r3, r1
 8007794:	4303      	orrs	r3, r0
 8007796:	d00b      	beq.n	80077b0 <__ieee754_pow+0x938>
 8007798:	a329      	add	r3, pc, #164	; (adr r3, 8007840 <__ieee754_pow+0x9c8>)
 800779a:	e9d3 2300 	ldrd	r2, r3, [r3]
 800779e:	e9dd 0100 	ldrd	r0, r1, [sp]
 80077a2:	f7f8 fe8d 	bl	80004c0 <__aeabi_dmul>
 80077a6:	a326      	add	r3, pc, #152	; (adr r3, 8007840 <__ieee754_pow+0x9c8>)
 80077a8:	e9d3 2300 	ldrd	r2, r3, [r3]
 80077ac:	f7ff bbf5 	b.w	8006f9a <__ieee754_pow+0x122>
 80077b0:	4622      	mov	r2, r4
 80077b2:	462b      	mov	r3, r5
 80077b4:	f7f8 fcd0 	bl	8000158 <__aeabi_dsub>
 80077b8:	4602      	mov	r2, r0
 80077ba:	460b      	mov	r3, r1
 80077bc:	4640      	mov	r0, r8
 80077be:	4649      	mov	r1, r9
 80077c0:	f7f9 f8fa 	bl	80009b8 <__aeabi_dcmple>
 80077c4:	2800      	cmp	r0, #0
 80077c6:	f43f aef7 	beq.w	80075b8 <__ieee754_pow+0x740>
 80077ca:	e7e5      	b.n	8007798 <__ieee754_pow+0x920>
 80077cc:	f04f 0a00 	mov.w	sl, #0
 80077d0:	e71d      	b.n	800760e <__ieee754_pow+0x796>
 80077d2:	4621      	mov	r1, r4
 80077d4:	e7d3      	b.n	800777e <__ieee754_pow+0x906>
 80077d6:	2000      	movs	r0, #0
 80077d8:	491d      	ldr	r1, [pc, #116]	; (8007850 <__ieee754_pow+0x9d8>)
 80077da:	f7ff bbac 	b.w	8006f36 <__ieee754_pow+0xbe>
 80077de:	e9dd 0102 	ldrd	r0, r1, [sp, #8]
 80077e2:	f7ff bba8 	b.w	8006f36 <__ieee754_pow+0xbe>
 80077e6:	4638      	mov	r0, r7
 80077e8:	4641      	mov	r1, r8
 80077ea:	f7ff bba4 	b.w	8006f36 <__ieee754_pow+0xbe>
 80077ee:	9200      	str	r2, [sp, #0]
 80077f0:	f7ff bbb4 	b.w	8006f5c <__ieee754_pow+0xe4>
 80077f4:	f3af 8000 	nop.w
 80077f8:	652b82fe 	.word	0x652b82fe
 80077fc:	3c971547 	.word	0x3c971547
 8007800:	00000000 	.word	0x00000000
 8007804:	3fe62e43 	.word	0x3fe62e43
 8007808:	fefa39ef 	.word	0xfefa39ef
 800780c:	3fe62e42 	.word	0x3fe62e42
 8007810:	0ca86c39 	.word	0x0ca86c39
 8007814:	be205c61 	.word	0xbe205c61
 8007818:	72bea4d0 	.word	0x72bea4d0
 800781c:	3e663769 	.word	0x3e663769
 8007820:	c5d26bf1 	.word	0xc5d26bf1
 8007824:	3ebbbd41 	.word	0x3ebbbd41
 8007828:	af25de2c 	.word	0xaf25de2c
 800782c:	3f11566a 	.word	0x3f11566a
 8007830:	16bebd93 	.word	0x16bebd93
 8007834:	3f66c16c 	.word	0x3f66c16c
 8007838:	5555553e 	.word	0x5555553e
 800783c:	3fc55555 	.word	0x3fc55555
 8007840:	c2f8f359 	.word	0xc2f8f359
 8007844:	01a56e1f 	.word	0x01a56e1f
 8007848:	3fe00000 	.word	0x3fe00000
 800784c:	000fffff 	.word	0x000fffff
 8007850:	3ff00000 	.word	0x3ff00000
 8007854:	4090cbff 	.word	0x4090cbff
 8007858:	3f6f3400 	.word	0x3f6f3400

0800785c <__ieee754_sqrt>:
 800785c:	e92d 41f0 	stmdb	sp!, {r4, r5, r6, r7, r8, lr}
 8007860:	f8df e14c 	ldr.w	lr, [pc, #332]	; 80079b0 <__ieee754_sqrt+0x154>
 8007864:	4606      	mov	r6, r0
 8007866:	ea3e 0e01 	bics.w	lr, lr, r1
 800786a:	460d      	mov	r5, r1
 800786c:	4607      	mov	r7, r0
 800786e:	460a      	mov	r2, r1
 8007870:	460c      	mov	r4, r1
 8007872:	4603      	mov	r3, r0
 8007874:	d10f      	bne.n	8007896 <__ieee754_sqrt+0x3a>
 8007876:	4602      	mov	r2, r0
 8007878:	460b      	mov	r3, r1
 800787a:	f7f8 fe21 	bl	80004c0 <__aeabi_dmul>
 800787e:	4602      	mov	r2, r0
 8007880:	460b      	mov	r3, r1
 8007882:	4630      	mov	r0, r6
 8007884:	4629      	mov	r1, r5
 8007886:	f7f8 fc69 	bl	800015c <__adddf3>
 800788a:	4606      	mov	r6, r0
 800788c:	460d      	mov	r5, r1
 800788e:	4630      	mov	r0, r6
 8007890:	4629      	mov	r1, r5
 8007892:	e8bd 81f0 	ldmia.w	sp!, {r4, r5, r6, r7, r8, pc}
 8007896:	2900      	cmp	r1, #0
 8007898:	dc0e      	bgt.n	80078b8 <__ieee754_sqrt+0x5c>
 800789a:	f021 4e00 	bic.w	lr, r1, #2147483648	; 0x80000000
 800789e:	ea5e 0707 	orrs.w	r7, lr, r7
 80078a2:	d0f4      	beq.n	800788e <__ieee754_sqrt+0x32>
 80078a4:	b141      	cbz	r1, 80078b8 <__ieee754_sqrt+0x5c>
 80078a6:	4602      	mov	r2, r0
 80078a8:	460b      	mov	r3, r1
 80078aa:	f7f8 fc55 	bl	8000158 <__aeabi_dsub>
 80078ae:	4602      	mov	r2, r0
 80078b0:	460b      	mov	r3, r1
 80078b2:	f7f8 ff2f 	bl	8000714 <__aeabi_ddiv>
 80078b6:	e7e8      	b.n	800788a <__ieee754_sqrt+0x2e>
 80078b8:	1512      	asrs	r2, r2, #20
 80078ba:	d10c      	bne.n	80078d6 <__ieee754_sqrt+0x7a>
 80078bc:	2c00      	cmp	r4, #0
 80078be:	d06e      	beq.n	800799e <__ieee754_sqrt+0x142>
 80078c0:	2100      	movs	r1, #0
 80078c2:	02e6      	lsls	r6, r4, #11
 80078c4:	d56f      	bpl.n	80079a6 <__ieee754_sqrt+0x14a>
 80078c6:	1e48      	subs	r0, r1, #1
 80078c8:	1a12      	subs	r2, r2, r0
 80078ca:	f1c1 0020 	rsb	r0, r1, #32
 80078ce:	fa23 f000 	lsr.w	r0, r3, r0
 80078d2:	4304      	orrs	r4, r0
 80078d4:	408b      	lsls	r3, r1
 80078d6:	f2a2 32ff 	subw	r2, r2, #1023	; 0x3ff
 80078da:	07d5      	lsls	r5, r2, #31
 80078dc:	f04f 0500 	mov.w	r5, #0
 80078e0:	f3c4 0413 	ubfx	r4, r4, #0, #20
 80078e4:	f444 1480 	orr.w	r4, r4, #1048576	; 0x100000
 80078e8:	bf42      	ittt	mi
 80078ea:	0064      	lslmi	r4, r4, #1
 80078ec:	eb04 74d3 	addmi.w	r4, r4, r3, lsr #31
 80078f0:	005b      	lslmi	r3, r3, #1
 80078f2:	eb04 71d3 	add.w	r1, r4, r3, lsr #31
 80078f6:	1050      	asrs	r0, r2, #1
 80078f8:	4421      	add	r1, r4
 80078fa:	2216      	movs	r2, #22
 80078fc:	462c      	mov	r4, r5
 80078fe:	f44f 1600 	mov.w	r6, #2097152	; 0x200000
 8007902:	005b      	lsls	r3, r3, #1
 8007904:	19a7      	adds	r7, r4, r6
 8007906:	428f      	cmp	r7, r1
 8007908:	bfde      	ittt	le
 800790a:	1bc9      	suble	r1, r1, r7
 800790c:	19bc      	addle	r4, r7, r6
 800790e:	19ad      	addle	r5, r5, r6
 8007910:	0049      	lsls	r1, r1, #1
 8007912:	3a01      	subs	r2, #1
 8007914:	eb01 71d3 	add.w	r1, r1, r3, lsr #31
 8007918:	ea4f 0656 	mov.w	r6, r6, lsr #1
 800791c:	ea4f 0343 	mov.w	r3, r3, lsl #1
 8007920:	d1f0      	bne.n	8007904 <__ieee754_sqrt+0xa8>
 8007922:	f04f 0e20 	mov.w	lr, #32
 8007926:	4694      	mov	ip, r2
 8007928:	f04f 4600 	mov.w	r6, #2147483648	; 0x80000000
 800792c:	42a1      	cmp	r1, r4
 800792e:	eb06 070c 	add.w	r7, r6, ip
 8007932:	dc02      	bgt.n	800793a <__ieee754_sqrt+0xde>
 8007934:	d112      	bne.n	800795c <__ieee754_sqrt+0x100>
 8007936:	429f      	cmp	r7, r3
 8007938:	d810      	bhi.n	800795c <__ieee754_sqrt+0x100>
 800793a:	2f00      	cmp	r7, #0
 800793c:	eb07 0c06 	add.w	ip, r7, r6
 8007940:	da34      	bge.n	80079ac <__ieee754_sqrt+0x150>
 8007942:	f1bc 0f00 	cmp.w	ip, #0
 8007946:	db31      	blt.n	80079ac <__ieee754_sqrt+0x150>
 8007948:	f104 0801 	add.w	r8, r4, #1
 800794c:	1b09      	subs	r1, r1, r4
 800794e:	4644      	mov	r4, r8
 8007950:	429f      	cmp	r7, r3
 8007952:	bf88      	it	hi
 8007954:	f101 31ff 	addhi.w	r1, r1, #4294967295
 8007958:	1bdb      	subs	r3, r3, r7
 800795a:	4432      	add	r2, r6
 800795c:	eb01 77d3 	add.w	r7, r1, r3, lsr #31
 8007960:	f1be 0e01 	subs.w	lr, lr, #1
 8007964:	4439      	add	r1, r7
 8007966:	ea4f 0343 	mov.w	r3, r3, lsl #1
 800796a:	ea4f 0656 	mov.w	r6, r6, lsr #1
 800796e:	d1dd      	bne.n	800792c <__ieee754_sqrt+0xd0>
 8007970:	430b      	orrs	r3, r1
 8007972:	d006      	beq.n	8007982 <__ieee754_sqrt+0x126>
 8007974:	1c54      	adds	r4, r2, #1
 8007976:	bf0b      	itete	eq
 8007978:	4672      	moveq	r2, lr
 800797a:	3201      	addne	r2, #1
 800797c:	3501      	addeq	r5, #1
 800797e:	f022 0201 	bicne.w	r2, r2, #1
 8007982:	106b      	asrs	r3, r5, #1
 8007984:	0852      	lsrs	r2, r2, #1
 8007986:	07e9      	lsls	r1, r5, #31
 8007988:	f103 537f 	add.w	r3, r3, #1069547520	; 0x3fc00000
 800798c:	f503 1300 	add.w	r3, r3, #2097152	; 0x200000
 8007990:	bf48      	it	mi
 8007992:	f042 4200 	orrmi.w	r2, r2, #2147483648	; 0x80000000
 8007996:	eb03 5500 	add.w	r5, r3, r0, lsl #20
 800799a:	4616      	mov	r6, r2
 800799c:	e777      	b.n	800788e <__ieee754_sqrt+0x32>
 800799e:	0adc      	lsrs	r4, r3, #11
 80079a0:	3a15      	subs	r2, #21
 80079a2:	055b      	lsls	r3, r3, #21
 80079a4:	e78a      	b.n	80078bc <__ieee754_sqrt+0x60>
 80079a6:	0064      	lsls	r4, r4, #1
 80079a8:	3101      	adds	r1, #1
 80079aa:	e78a      	b.n	80078c2 <__ieee754_sqrt+0x66>
 80079ac:	46a0      	mov	r8, r4
 80079ae:	e7cd      	b.n	800794c <__ieee754_sqrt+0xf0>
 80079b0:	7ff00000 	.word	0x7ff00000

080079b4 <fabs>:
 80079b4:	f021 4100 	bic.w	r1, r1, #2147483648	; 0x80000000
 80079b8:	4770      	bx	lr

080079ba <finite>:
 80079ba:	f041 4100 	orr.w	r1, r1, #2147483648	; 0x80000000
 80079be:	f501 1080 	add.w	r0, r1, #1048576	; 0x100000
 80079c2:	0fc0      	lsrs	r0, r0, #31
 80079c4:	4770      	bx	lr

080079c6 <matherr>:
 80079c6:	2000      	movs	r0, #0
 80079c8:	4770      	bx	lr
	...

080079cc <nan>:
 80079cc:	2000      	movs	r0, #0
 80079ce:	4901      	ldr	r1, [pc, #4]	; (80079d4 <nan+0x8>)
 80079d0:	4770      	bx	lr
 80079d2:	bf00      	nop
 80079d4:	7ff80000 	.word	0x7ff80000

080079d8 <rint>:
 80079d8:	b5f7      	push	{r0, r1, r2, r4, r5, r6, r7, lr}
 80079da:	f3c1 5e0a 	ubfx	lr, r1, #20, #11
 80079de:	f2ae 37ff 	subw	r7, lr, #1023	; 0x3ff
 80079e2:	2f13      	cmp	r7, #19
 80079e4:	4602      	mov	r2, r0
 80079e6:	460b      	mov	r3, r1
 80079e8:	4684      	mov	ip, r0
 80079ea:	460c      	mov	r4, r1
 80079ec:	4605      	mov	r5, r0
 80079ee:	ea4f 76d1 	mov.w	r6, r1, lsr #31
 80079f2:	dc56      	bgt.n	8007aa2 <rint+0xca>
 80079f4:	2f00      	cmp	r7, #0
 80079f6:	da29      	bge.n	8007a4c <rint+0x74>
 80079f8:	f021 4100 	bic.w	r1, r1, #2147483648	; 0x80000000
 80079fc:	4301      	orrs	r1, r0
 80079fe:	d021      	beq.n	8007a44 <rint+0x6c>
 8007a00:	f3c3 0513 	ubfx	r5, r3, #0, #20
 8007a04:	4305      	orrs	r5, r0
 8007a06:	426b      	negs	r3, r5
 8007a08:	432b      	orrs	r3, r5
 8007a0a:	0b1b      	lsrs	r3, r3, #12
 8007a0c:	0c64      	lsrs	r4, r4, #17
 8007a0e:	f403 2300 	and.w	r3, r3, #524288	; 0x80000
 8007a12:	0464      	lsls	r4, r4, #17
 8007a14:	ea43 0104 	orr.w	r1, r3, r4
 8007a18:	4b31      	ldr	r3, [pc, #196]	; (8007ae0 <rint+0x108>)
 8007a1a:	eb03 03c6 	add.w	r3, r3, r6, lsl #3
 8007a1e:	e9d3 4500 	ldrd	r4, r5, [r3]
 8007a22:	4622      	mov	r2, r4
 8007a24:	462b      	mov	r3, r5
 8007a26:	f7f8 fb99 	bl	800015c <__adddf3>
 8007a2a:	e9cd 0100 	strd	r0, r1, [sp]
 8007a2e:	e9dd 0100 	ldrd	r0, r1, [sp]
 8007a32:	4622      	mov	r2, r4
 8007a34:	462b      	mov	r3, r5
 8007a36:	f7f8 fb8f 	bl	8000158 <__aeabi_dsub>
 8007a3a:	4602      	mov	r2, r0
 8007a3c:	f021 4100 	bic.w	r1, r1, #2147483648	; 0x80000000
 8007a40:	ea41 73c6 	orr.w	r3, r1, r6, lsl #31
 8007a44:	4610      	mov	r0, r2
 8007a46:	4619      	mov	r1, r3
 8007a48:	b003      	add	sp, #12
 8007a4a:	bdf0      	pop	{r4, r5, r6, r7, pc}
 8007a4c:	4925      	ldr	r1, [pc, #148]	; (8007ae4 <rint+0x10c>)
 8007a4e:	4139      	asrs	r1, r7
 8007a50:	ea03 0001 	and.w	r0, r3, r1
 8007a54:	4310      	orrs	r0, r2
 8007a56:	d0f5      	beq.n	8007a44 <rint+0x6c>
 8007a58:	084b      	lsrs	r3, r1, #1
 8007a5a:	ea04 0203 	and.w	r2, r4, r3
 8007a5e:	ea52 050c 	orrs.w	r5, r2, ip
 8007a62:	d00a      	beq.n	8007a7a <rint+0xa2>
 8007a64:	ea24 0303 	bic.w	r3, r4, r3
 8007a68:	f44f 2480 	mov.w	r4, #262144	; 0x40000
 8007a6c:	2f13      	cmp	r7, #19
 8007a6e:	bf0c      	ite	eq
 8007a70:	f04f 4500 	moveq.w	r5, #2147483648	; 0x80000000
 8007a74:	2500      	movne	r5, #0
 8007a76:	413c      	asrs	r4, r7
 8007a78:	431c      	orrs	r4, r3
 8007a7a:	4b19      	ldr	r3, [pc, #100]	; (8007ae0 <rint+0x108>)
 8007a7c:	4621      	mov	r1, r4
 8007a7e:	eb03 06c6 	add.w	r6, r3, r6, lsl #3
 8007a82:	4628      	mov	r0, r5
 8007a84:	e9d6 4500 	ldrd	r4, r5, [r6]
 8007a88:	4622      	mov	r2, r4
 8007a8a:	462b      	mov	r3, r5
 8007a8c:	f7f8 fb66 	bl	800015c <__adddf3>
 8007a90:	e9cd 0100 	strd	r0, r1, [sp]
 8007a94:	e9dd 0100 	ldrd	r0, r1, [sp]
 8007a98:	4622      	mov	r2, r4
 8007a9a:	462b      	mov	r3, r5
 8007a9c:	f7f8 fb5c 	bl	8000158 <__aeabi_dsub>
 8007aa0:	e006      	b.n	8007ab0 <rint+0xd8>
 8007aa2:	2f33      	cmp	r7, #51	; 0x33
 8007aa4:	dd07      	ble.n	8007ab6 <rint+0xde>
 8007aa6:	f5b7 6f80 	cmp.w	r7, #1024	; 0x400
 8007aaa:	d1cb      	bne.n	8007a44 <rint+0x6c>
 8007aac:	f7f8 fb56 	bl	800015c <__adddf3>
 8007ab0:	4602      	mov	r2, r0
 8007ab2:	460b      	mov	r3, r1
 8007ab4:	e7c6      	b.n	8007a44 <rint+0x6c>
 8007ab6:	f04f 31ff 	mov.w	r1, #4294967295
 8007aba:	f2ae 4e13 	subw	lr, lr, #1043	; 0x413
 8007abe:	fa21 f10e 	lsr.w	r1, r1, lr
 8007ac2:	4208      	tst	r0, r1
 8007ac4:	d0be      	beq.n	8007a44 <rint+0x6c>
 8007ac6:	084b      	lsrs	r3, r1, #1
 8007ac8:	4218      	tst	r0, r3
 8007aca:	bf1f      	itttt	ne
 8007acc:	f04f 4580 	movne.w	r5, #1073741824	; 0x40000000
 8007ad0:	ea20 0303 	bicne.w	r3, r0, r3
 8007ad4:	fa45 fe0e 	asrne.w	lr, r5, lr
 8007ad8:	ea4e 0503 	orrne.w	r5, lr, r3
 8007adc:	e7cd      	b.n	8007a7a <rint+0xa2>
 8007ade:	bf00      	nop
 8007ae0:	08008350 	.word	0x08008350
 8007ae4:	000fffff 	.word	0x000fffff

08007ae8 <scalbn>:
 8007ae8:	b5f8      	push	{r3, r4, r5, r6, r7, lr}
 8007aea:	4616      	mov	r6, r2
 8007aec:	f3c1 520a 	ubfx	r2, r1, #20, #11
 8007af0:	4604      	mov	r4, r0
 8007af2:	460d      	mov	r5, r1
 8007af4:	460b      	mov	r3, r1
 8007af6:	b98a      	cbnz	r2, 8007b1c <scalbn+0x34>
 8007af8:	f021 4300 	bic.w	r3, r1, #2147483648	; 0x80000000
 8007afc:	4303      	orrs	r3, r0
 8007afe:	d035      	beq.n	8007b6c <scalbn+0x84>
 8007b00:	2200      	movs	r2, #0
 8007b02:	4b2d      	ldr	r3, [pc, #180]	; (8007bb8 <scalbn+0xd0>)
 8007b04:	f7f8 fcdc 	bl	80004c0 <__aeabi_dmul>
 8007b08:	4a2c      	ldr	r2, [pc, #176]	; (8007bbc <scalbn+0xd4>)
 8007b0a:	4604      	mov	r4, r0
 8007b0c:	4296      	cmp	r6, r2
 8007b0e:	460d      	mov	r5, r1
 8007b10:	460b      	mov	r3, r1
 8007b12:	da0e      	bge.n	8007b32 <scalbn+0x4a>
 8007b14:	a324      	add	r3, pc, #144	; (adr r3, 8007ba8 <scalbn+0xc0>)
 8007b16:	e9d3 2300 	ldrd	r2, r3, [r3]
 8007b1a:	e01c      	b.n	8007b56 <scalbn+0x6e>
 8007b1c:	f240 77ff 	movw	r7, #2047	; 0x7ff
 8007b20:	42ba      	cmp	r2, r7
 8007b22:	d109      	bne.n	8007b38 <scalbn+0x50>
 8007b24:	4602      	mov	r2, r0
 8007b26:	460b      	mov	r3, r1
 8007b28:	f7f8 fb18 	bl	800015c <__adddf3>
 8007b2c:	4604      	mov	r4, r0
 8007b2e:	460d      	mov	r5, r1
 8007b30:	e01c      	b.n	8007b6c <scalbn+0x84>
 8007b32:	f3c1 520a 	ubfx	r2, r1, #20, #11
 8007b36:	3a36      	subs	r2, #54	; 0x36
 8007b38:	f240 71fe 	movw	r1, #2046	; 0x7fe
 8007b3c:	4432      	add	r2, r6
 8007b3e:	428a      	cmp	r2, r1
 8007b40:	dd0c      	ble.n	8007b5c <scalbn+0x74>
 8007b42:	4622      	mov	r2, r4
 8007b44:	462b      	mov	r3, r5
 8007b46:	a11a      	add	r1, pc, #104	; (adr r1, 8007bb0 <scalbn+0xc8>)
 8007b48:	e9d1 0100 	ldrd	r0, r1, [r1]
 8007b4c:	f000 f83a 	bl	8007bc4 <copysign>
 8007b50:	a317      	add	r3, pc, #92	; (adr r3, 8007bb0 <scalbn+0xc8>)
 8007b52:	e9d3 2300 	ldrd	r2, r3, [r3]
 8007b56:	f7f8 fcb3 	bl	80004c0 <__aeabi_dmul>
 8007b5a:	e7e7      	b.n	8007b2c <scalbn+0x44>
 8007b5c:	2a00      	cmp	r2, #0
 8007b5e:	dd08      	ble.n	8007b72 <scalbn+0x8a>
 8007b60:	f023 43ff 	bic.w	r3, r3, #2139095040	; 0x7f800000
 8007b64:	f423 03e0 	bic.w	r3, r3, #7340032	; 0x700000
 8007b68:	ea43 5502 	orr.w	r5, r3, r2, lsl #20
 8007b6c:	4620      	mov	r0, r4
 8007b6e:	4629      	mov	r1, r5
 8007b70:	bdf8      	pop	{r3, r4, r5, r6, r7, pc}
 8007b72:	f112 0f35 	cmn.w	r2, #53	; 0x35
 8007b76:	da0b      	bge.n	8007b90 <scalbn+0xa8>
 8007b78:	f24c 3350 	movw	r3, #50000	; 0xc350
 8007b7c:	429e      	cmp	r6, r3
 8007b7e:	4622      	mov	r2, r4
 8007b80:	462b      	mov	r3, r5
 8007b82:	dce0      	bgt.n	8007b46 <scalbn+0x5e>
 8007b84:	a108      	add	r1, pc, #32	; (adr r1, 8007ba8 <scalbn+0xc0>)
 8007b86:	e9d1 0100 	ldrd	r0, r1, [r1]
 8007b8a:	f000 f81b 	bl	8007bc4 <copysign>
 8007b8e:	e7c1      	b.n	8007b14 <scalbn+0x2c>
 8007b90:	f023 43ff 	bic.w	r3, r3, #2139095040	; 0x7f800000
 8007b94:	3236      	adds	r2, #54	; 0x36
 8007b96:	f423 03e0 	bic.w	r3, r3, #7340032	; 0x700000
 8007b9a:	ea43 5502 	orr.w	r5, r3, r2, lsl #20
 8007b9e:	4620      	mov	r0, r4
 8007ba0:	4629      	mov	r1, r5
 8007ba2:	2200      	movs	r2, #0
 8007ba4:	4b06      	ldr	r3, [pc, #24]	; (8007bc0 <scalbn+0xd8>)
 8007ba6:	e7d6      	b.n	8007b56 <scalbn+0x6e>
 8007ba8:	c2f8f359 	.word	0xc2f8f359
 8007bac:	01a56e1f 	.word	0x01a56e1f
 8007bb0:	8800759c 	.word	0x8800759c
 8007bb4:	7e37e43c 	.word	0x7e37e43c
 8007bb8:	43500000 	.word	0x43500000
 8007bbc:	ffff3cb0 	.word	0xffff3cb0
 8007bc0:	3c900000 	.word	0x3c900000

08007bc4 <copysign>:
 8007bc4:	f021 4200 	bic.w	r2, r1, #2147483648	; 0x80000000
 8007bc8:	f003 4300 	and.w	r3, r3, #2147483648	; 0x80000000
 8007bcc:	ea42 0103 	orr.w	r1, r2, r3
 8007bd0:	4770      	bx	lr
	...

08007bd4 <__errno>:
 8007bd4:	4b01      	ldr	r3, [pc, #4]	; (8007bdc <__errno+0x8>)
 8007bd6:	6818      	ldr	r0, [r3, #0]
 8007bd8:	4770      	bx	lr
 8007bda:	bf00      	nop
 8007bdc:	20000010 	.word	0x20000010

08007be0 <_init>:
 8007be0:	b5f8      	push	{r3, r4, r5, r6, r7, lr}
 8007be2:	bf00      	nop
 8007be4:	bcf8      	pop	{r3, r4, r5, r6, r7}
 8007be6:	bc08      	pop	{r3}
 8007be8:	469e      	mov	lr, r3
 8007bea:	4770      	bx	lr

08007bec <_fini>:
 8007bec:	b5f8      	push	{r3, r4, r5, r6, r7, lr}
 8007bee:	bf00      	nop
 8007bf0:	bcf8      	pop	{r3, r4, r5, r6, r7}
 8007bf2:	bc08      	pop	{r3}
 8007bf4:	469e      	mov	lr, r3
 8007bf6:	4770      	bx	lr
